
RT-Thread_test-1.elf:     file format elf32-littleriscv
RT-Thread_test-1.elf
architecture: riscv:rv32, flags 0x00000112:
EXEC_P, HAS_SYMS, D_PAGED
start address 0x00000000

Program Header:
    LOAD off    0x00001000 vaddr 0x00000000 paddr 0x00000000 align 2**12
         filesz 0x0000d118 memsz 0x0000d118 flags r-x
    LOAD off    0x0000f000 vaddr 0x20000000 paddr 0x0000d118 align 2**12
         filesz 0x00000368 memsz 0x00001b08 flags rw-
    LOAD off    0x0000f800 vaddr 0x2000f800 paddr 0x2000f800 align 2**12
         filesz 0x00000000 memsz 0x00000800 flags rw-

Sections:
Idx Name          Size      VMA       LMA       File off  Algn
  0 .init         00000038  00000000  00000000  00001000  2**1
                  CONTENTS, ALLOC, LOAD, READONLY, CODE
  1 .vector       000001c8  00000038  00000038  00001038  2**1
                  CONTENTS, ALLOC, LOAD, READONLY, CODE
  2 .text         0000cf18  00000200  00000200  00001200  2**3
                  CONTENTS, ALLOC, LOAD, READONLY, CODE
  3 .fini         00000000  0000d118  0000d118  0000f368  2**0
                  CONTENTS, ALLOC, LOAD, CODE
  4 .dalign       00000000  20000000  20000000  0000f368  2**0
                  CONTENTS
  5 .dlalign      00000000  0000d118  0000d118  0000f368  2**0
                  CONTENTS
  6 .data         00000368  20000000  0000d118  0000f000  2**2
                  CONTENTS, ALLOC, LOAD, DATA
  7 .bss          000017a0  20000368  0000d480  0000f368  2**2
                  ALLOC
  8 .stack        00000800  2000f800  2000f800  0000f800  2**0
                  ALLOC
  9 .debug_info   00030eae  00000000  00000000  0000f368  2**0
                  CONTENTS, READONLY, DEBUGGING
 10 .debug_abbrev 00008241  00000000  00000000  00040216  2**0
                  CONTENTS, READONLY, DEBUGGING
 11 .debug_loc    0000d76a  00000000  00000000  00048457  2**0
                  CONTENTS, READONLY, DEBUGGING
 12 .debug_aranges 000017f0  00000000  00000000  00055bc8  2**3
                  CONTENTS, READONLY, DEBUGGING
 13 .debug_ranges 00001ff8  00000000  00000000  000573b8  2**3
                  CONTENTS, READONLY, DEBUGGING
 14 .debug_line   000212e5  00000000  00000000  000593b0  2**0
                  CONTENTS, READONLY, DEBUGGING
 15 .debug_str    000074df  00000000  00000000  0007a695  2**0
                  CONTENTS, READONLY, DEBUGGING
 16 .comment      00000033  00000000  00000000  00081b74  2**0
                  CONTENTS, READONLY
 17 .debug_frame  0000549c  00000000  00000000  00081ba8  2**2
                  CONTENTS, READONLY, DEBUGGING
 18 .stab         00000084  00000000  00000000  00087044  2**2
                  CONTENTS, READONLY, DEBUGGING
 19 .stabstr      00000117  00000000  00000000  000870c8  2**0
                  CONTENTS, READONLY, DEBUGGING
SYMBOL TABLE:
00000000 l    d  .init	00000000 .init
00000038 l    d  .vector	00000000 .vector
00000200 l    d  .text	00000000 .text
0000d118 l    d  .fini	00000000 .fini
20000000 l    d  .dalign	00000000 .dalign
0000d118 l    d  .dlalign	00000000 .dlalign
20000000 l    d  .data	00000000 .data
20000368 l    d  .bss	00000000 .bss
2000f800 l    d  .stack	00000000 .stack
00000000 l    d  .debug_info	00000000 .debug_info
00000000 l    d  .debug_abbrev	00000000 .debug_abbrev
00000000 l    d  .debug_loc	00000000 .debug_loc
00000000 l    d  .debug_aranges	00000000 .debug_aranges
00000000 l    d  .debug_ranges	00000000 .debug_ranges
00000000 l    d  .debug_line	00000000 .debug_line
00000000 l    d  .debug_str	00000000 .debug_str
00000000 l    d  .comment	00000000 .comment
00000000 l    d  .debug_frame	00000000 .debug_frame
00000000 l    d  .stab	00000000 .stab
00000000 l    d  .stabstr	00000000 .stabstr
00000000 l    df *ABS*	00000000 ./Startup/startup_ch32v30x.o
00000038 l       .vector	00000000 _vector_base
00000000 l    df *ABS*	00000000 clock.c
20000368 l     O .bss	00000004 rt_tick
00000000 l    df *ABS*	00000000 components.c
00000510 l     F .text	00000004 rti_start
00000514 l     F .text	00000004 rti_end
00000518 l     F .text	00000004 rti_board_start
0000051c l     F .text	00000004 rti_board_end
00000000 l    df *ABS*	00000000 device.c
00000000 l    df *ABS*	00000000 idle.c
000007a2 l     F .text	0000001c rt_thread_idle_entry
20000460 l     O .bss	00000080 idle
200004e0 l     O .bss	00000010 idle_hook_list
200004f0 l     O .bss	00000200 rt_thread_stack
00000000 l    df *ABS*	00000000 ipc.c
000007f4 l     F .text	0000005a rt_ipc_list_suspend
00000000 l    df *ABS*	00000000 irq.c
2000036c l     O .bss	00000004 rt_interrupt_enter_hook
20000370 l     O .bss	00000004 rt_interrupt_leave_hook
00000000 l    df *ABS*	00000000 kservice.c
00000994 l     F .text	0000017e print_number
200006f0 l     O .bss	00000080 rt_log_buf.2693
00009fc0 l     O .text	00000011 large_digits.2583
0000a064 l     O .text	00000011 small_digits.2582
20000378 l     O .bss	00000004 __rt_errno
2000037c l     O .bss	00000004 _console_device
00000000 l    df *ABS*	00000000 mem.c
000010e2 l     F .text	00000058 plug_holes
20000770 l     O .bss	00000020 heap_sem
20000380 l     O .bss	00000004 heap_end
20000384 l     O .bss	00000004 heap_ptr
20000388 l     O .bss	00000004 lfree
2000038c l     O .bss	00000004 max_mem
20000390 l     O .bss	00000004 mem_size_aligned
20000394 l     O .bss	00000004 rt_free_hook
20000398 l     O .bss	00000004 rt_malloc_hook
2000039c l     O .bss	00000004 used_mem
00000000 l    df *ABS*	00000000 object.c
20000000 l     O .data	00000080 rt_object_container
200003a0 l     O .bss	00000004 rt_object_attach_hook
200003a4 l     O .bss	00000004 rt_object_detach_hook
00000000 l    df *ABS*	00000000 scheduler.c
200003bc l     O .bss	00000004 rt_scheduler_hook
200003c0 l     O .bss	00000002 rt_scheduler_lock_nest
00000000 l    df *ABS*	00000000 thread.c
0000170a l     F .text	0000008e _rt_thread_init.isra.0
200003d0 l     O .bss	00000004 rt_thread_inited_hook
200003d4 l     O .bss	00000004 rt_thread_resume_hook
200003d8 l     O .bss	00000004 rt_thread_suspend_hook
00000000 l    df *ABS*	00000000 timer.c
00001998 l     F .text	00000012 _rt_timer_remove.part.1
200003dc l     O .bss	00000004 random_nr.2483
200003e0 l     O .bss	00000004 rt_timer_enter_hook
200003e4 l     O .bss	00000004 rt_timer_exit_hook
200003e8 l     O .bss	00000008 rt_timer_list
00000000 l    df *ABS*	00000000 cpuport.c
00000000 l    df *ABS*	00000000 cmd.c
00001bf6 l     F .text	00000012 rt_list_len
00001c30 l     F .text	00000020 object_split
00001c50 l     F .text	00000036 show_wait_queue
00001c86 l     F .text	0000003e object_name_maxlen
00000000 l    df *ABS*	00000000 msh.c
00000000 l    df *ABS*	00000000 msh_cmd.c
00000000 l    df *ABS*	00000000 shell.c
0000253a l     F .text	00000012 finsh_rx_ind
00002620 l     F .text	0000002e shell_handle_history
20000810 l     O .bss	00000081 finsh_prompt.4315
00000000 l    df *ABS*	00000000 serial.c
00002adc l     F .text	00000020 rt_serial_init
00002afc l     F .text	00000042 rt_serial_write
00002b3e l     F .text	0000009e rt_serial_open
00002bdc l     F .text	0000006e rt_serial_control
00002c4a l     F .text	0000009e rt_serial_read
00002ce8 l     F .text	00000040 rt_serial_close
00000000 l    df *ABS*	00000000 pin.c
00002e2c l     F .text	0000001c _pin_control
00002e94 l     F .text	0000002e _pin_read
00002ec2 l     F .text	0000002c _pin_write
20000894 l     O .bss	00000048 _hw_pin
00000000 l    df *ABS*	00000000 board.c
200008dc l     O .bss	00001000 rt_heap
00000000 l    df *ABS*	00000000 drv_gpio.c
00002fe8 l     F .text	0000001c bit2bitno
00003004 l     F .text	00000012 GPIOD_CLK_ENABLE
00003016 l     F .text	00000010 GPIOB_CLK_ENABLE
00003026 l     F .text	00000010 GPIOA_CLK_ENABLE
00003036 l     F .text	00000010 GPIOC_CLK_ENABLE
00003046 l     F .text	00000012 GPIOE_CLK_ENABLE
0000abec l     O .text	00000018 _ch32_pin_ops
0000ac04 l     O .text	00000080 pin_irq_map
0000ac84 l     O .text	00000650 pins
00000000 l    df *ABS*	00000000 drv_usart.c
00003582 l     F .text	000000ce ch32_configure
00003714 l     F .text	00000022 ch32_getc
00003736 l     F .text	00000022 ch32_putc
00003758 l     F .text	0000005c ch32_control
0000b2d8 l     O .text	00000014 ch32_uart_ops
00000000 l    df *ABS*	00000000 OPL2.c
000037fe l     F .text	00000014 usDelay
00003aba l     F .text	0000001c setWaveFormSelect.part.0
00000000 l    df *ABS*	00000000 ILI9341.c
0000453c l     F .text	00000016 ILI9341_Select
00004688 l     F .text	0000002e ILI9341_WriteCommand
000046b6 l     F .text	0000002e ILI9341_WriteData
000046e4 l     F .text	00000068 ILI9341_SetAddressWindow
00004762 l     F .text	000000aa ILI9341_FillRectangle.part.0
00000000 l    df *ABS*	00000000 MIDI.c
00000000 l    df *ABS*	00000000 adc_helpers.c
00000000 l    df *ABS*	00000000 inputs.c
00000000 l    df *ABS*	00000000 menu.c
000052a4 l     F .text	00000002 Do_Nothing
00000000 l    df *ABS*	00000000 ch32v30x_it.c
00000000 l    df *ABS*	00000000 main.c
20001ad8 l     O .bss	0000002c PollTimer
00000000 l    df *ABS*	00000000 system_ch32v30x.c
00000000 l    df *ABS*	00000000 ch32v30x_adc.c
00000000 l    df *ABS*	00000000 ch32v30x_exti.c
00000000 l    df *ABS*	00000000 ch32v30x_gpio.c
00000000 l    df *ABS*	00000000 ch32v30x_misc.c
00000000 l    df *ABS*	00000000 ch32v30x_rcc.c
20000140 l     O .data	00000010 APBAHBPrescTable
20000340 l     O .data	00000004 ADCPrescTable
00000000 l    df *ABS*	00000000 ch32v30x_spi.c
00000000 l    df *ABS*	00000000 ch32v30x_usart.c
00000000 l    df *ABS*	00000000 debug.c
20000344 l     O .data	00000004 curbrk.5230
00000000 l    df *ABS*	00000000 muldf3.c
00000000 l    df *ABS*	00000000 subdf3.c
00000000 l    df *ABS*	00000000 fixunsdfsi.c
00000000 l    df *ABS*	00000000 divsf3.c
00000000 l    df *ABS*	00000000 gesf2.c
00000000 l    df *ABS*	00000000 lesf2.c
00000000 l    df *ABS*	00000000 mulsf3.c
00000000 l    df *ABS*	00000000 fixsfsi.c
00000000 l    df *ABS*	00000000 floatunsisf.c
00000000 l    df *ABS*	00000000 extendsfdf2.c
00000000 l    df *ABS*	00000000 libgcc2.c
00000000 l    df *ABS*	00000000 atoi.c
00000000 l    df *ABS*	00000000 itoa.c
00000000 l    df *ABS*	00000000 memcmp.c
00000000 l    df *ABS*	00000000 memcpy.c
00000000 l    df *ABS*	00000000 printf.c
00000000 l    df *ABS*	00000000 strcat.c
00000000 l    df *ABS*	00000000 strcpy.c
00000000 l    df *ABS*	00000000 strlen.c
00000000 l    df *ABS*	00000000 strncmp.c
00000000 l    df *ABS*	00000000 strtol.c
00008ad0 l     F .text	00000138 _strtol_l.isra.0
00000000 l    df *ABS*	00000000 utoa.c
00000000 l    df *ABS*	00000000 findfp.c
00008cb2 l     F .text	00000066 std
00000000 l    df *ABS*	00000000 fwalk.c
00000000 l    df *ABS*	00000000 locale.c
00000000 l    df *ABS*	00000000 mbtowc_r.c
00000000 l    df *ABS*	00000000 nano-mallocr.c
00000000 l    df *ABS*	00000000 nano-vfprintf.c
00008fea l     F .text	00000026 __sfputc_r
00000000 l    df *ABS*	00000000 nano-vfprintf_i.c
00000000 l    df *ABS*	00000000 sbrkr.c
00000000 l    df *ABS*	00000000 stdio.c
00000000 l    df *ABS*	00000000 wbuf.c
00000000 l    df *ABS*	00000000 wctomb_r.c
00000000 l    df *ABS*	00000000 writer.c
00000000 l    df *ABS*	00000000 wsetup.c
00000000 l    df *ABS*	00000000 closer.c
00000000 l    df *ABS*	00000000 fflush.c
00000000 l    df *ABS*	00000000 lseekr.c
00000000 l    df *ABS*	00000000 makebuf.c
00000000 l    df *ABS*	00000000 memchr.c
00000000 l    df *ABS*	00000000 mlock.c
00000000 l    df *ABS*	00000000 nano-mallocr.c
00000000 l    df *ABS*	00000000 readr.c
00000000 l    df *ABS*	00000000 fstatr.c
00000000 l    df *ABS*	00000000 isattyr.c
00000000 l    df *ABS*	00000000 close.c
00000000 l    df *ABS*	00000000 fstat.c
00000000 l    df *ABS*	00000000 isatty.c
00000000 l    df *ABS*	00000000 lseek.c
00000000 l    df *ABS*	00000000 read.c
00000000 l    df *ABS*	00000000 fonts.c
0000b348 l     O .text	00000d5c Font11x18
0000c0a4 l     O .text	0000076c Font7x10
00000000 l    df *ABS*	00000000 libgcc2.c
00000000 l    df *ABS*	00000000 ctype_.c
00000000 l    df *ABS*	00000000 impure.c
20000150 l     O .data	00000060 impure_data
00000000 l    df *ABS*	00000000 symbol.c
00000000 l    df *ABS*	00000000 reent.c
0000340e g     F .text	00000028 EXTI2_IRQHandler
000042ea g     F .text	00000028 setSynthMode
00006a30  w      .text	00000000 TIM8_TRG_COM_IRQHandler
00005e38 g     F .text	00000038 Change_Operator2_Tremolo
20000334 g     O .data	00000004 PORT_GPIO
00001314 g     F .text	00000024 rt_calloc
00006a32  w      .text	00000000 TIM8_CC_IRQHandler
0000d048 g     O .text	0000000c __fsym_list_thread
000005b8 g     F .text	0000000a entry
00009d88 g     F .text	00000030 _isatty_r
000038b4 g     F .text	00000040 SWSPI_Write
2000033a g     O .data	00000001 buttonRight
00008a86 g     F .text	00000010 strcpy
00001cc4 g     F .text	000000e2 list_thread
000026cc g     F .text	00000410 finsh_thread_entry
00001520 g     F .text	00000008 rt_object_is_systemobject
00005ab4 g     F .text	00000034 Change_Operator1_ScalingLevel
00000bfe g     F .text	0000002c rt_strncpy
00001b6e g     F .text	00000036 rt_hw_stack_init
00009b42 g     F .text	00000034 _lseek_r
00001912 g     F .text	0000000e rt_thread_mdelay
00005b74 g     F .text	00000058 Draw_Operator2_MaintainSustain
00006a68  w      .text	00000000 UART8_IRQHandler
000022d2 g     F .text	000001aa msh_exec
0000cb58 g     O .text	00000020 __fsym___cmd_Read_Potentiometers_Debug_name
0000407e g     F .text	0000001a getAttack
0000b2ec g     O .text	0000000b TEST_INSTRUMENT
0000a72c g     O .text	0000000d __fsym_list_mailbox_name
00001498 g     F .text	00000056 rt_object_allocate
0000d0a8 g     O .text	0000000c __fsym_pinRead
00009ec0 g     O .text	00000100 __lowest_bit_bitmap
00005132 g     F .text	000000fe Poll_Inputs
00008a2a g     F .text	0000003e printf
20000b20 g       .data	00000000 __global_pointer$
00001556 g     F .text	0000002c rt_system_scheduler_start
000003ba g     F .text	00000028 .hidden __riscv_save_8
00006a0c  w      .text	00000000 TIM1_CC_IRQHandler
20000434 g     O .bss	00000004 Pot2_Interrupt_Handler
200003f4 g     O .bss	00000004 rt_interrupt_to_thread
00009734 g     F .text	00000030 __sseek
00008d68 g     F .text	0000006c __sinit
00007232 g     F .text	00000004 SPI_I2S_SendData
0000976a g     F .text	000000be __swbuf_r
0000545c g     F .text	00000020 HardFault_Handler
000043a6 g     F .text	0000002e setWaveForm
0000587c g     F .text	0000000c Change_Operator2_Blank
0000410c g     F .text	0000001a getSustain
00008d22 g     F .text	00000046 __sfmoreglue
00009c78 g     F .text	00000002 __malloc_unlock
000042ac g     F .text	0000002a setFeedback
0000a824 g     O .text	00000009 __fsym_list_sem_name
0000cae4 g     O .text	0000000c __fsym___cmd_YM3812_Test_Sequence_desc
0000cb1c g     O .text	0000001b __fsym___cmd_YM3812_Write_Wrapper_name
00000406 g     F .text	0000000c .hidden __riscv_restore_3
00006a42  w      .text	00000000 TIM6_IRQHandler
0000806c g     F .text	000002ae .hidden __divsf3
00003eac g     F .text	0000001a getTremolo
00000728 g     F .text	00000006 rt_device_set_rx_indicate
00002fc8 g     F .text	00000020 SysTick_Handler
00006bd0 g     F .text	0000000a ADC_StartCalibration
00001338 g     F .text	000000aa rt_free
200003f0 g     O .bss	00000004 rt_interrupt_from_thread
00006fc2 g     F .text	000000a6 NVIC_Init
0000116c g     F .text	0000007c rt_system_heap_init
000067e2 g     F .text	00000024 Setup_Inputs
000069d8  w      .text	00000000 PVD_IRQHandler
0000055c g     F .text	0000000c main_thread_entry
00006a38  w      .text	00000000 SDIO_IRQHandler
00006a6a  w      .text	00000000 TIM9_BRK_IRQHandler
0000a8dc g     O .text	00000007 __fsym_reboot_name
00001aea g     F .text	00000078 rt_timer_check
000003f2 g     F .text	00000020 .hidden __riscv_restore_10
000015ec g     F .text	00000048 rt_schedule_insert_thread
00001da6 g     F .text	000000b6 list_sem
0000063e g     F .text	0000007a rt_device_open
00003ad6 g     F .text	00000036 setChannelRegister
00006a7e  w      .text	00000000 DMA2_Channel8_IRQHandler
0000543c g     F .text	00000020 NMI_Handler
00004552 g     F .text	000000aa ILI9341_GPIO_Init
000086bc g     F .text	00000062 .hidden __fixsfsi
00006a58  w      .text	00000000 CAN2_RX1_IRQHandler
00003436 g     F .text	00000028 EXTI3_IRQHandler
00004484 g     F .text	00000068 MIDI_Note_On
000003ba g     F .text	00000028 .hidden __riscv_save_11
0000222c g     F .text	0000004a list
0000a0e0 g     O .text	00000009 __fsym_list_mem_name
20000408 g     O .bss	00000004 _sysvar_table_begin
0000a754 g     O .text	00000011 __fsym___cmd_list_mutex_name
00006806 g     F .text	00000024 Setup_MIDI
0000d118 g       .text	00000000 __rtmsymtab_start
00005cec g     F .text	00000034 Change_Operator1_WaveForm
00003f66 g     F .text	00000038 setMaintainSustain
00004032 g     F .text	0000001a getScalingLevel
00006a60  w      .text	00000000 USBHS_IRQHandler
000002d0 g       .text	00000000 SW_handler
0000cb78 g     O .text	0000000d __fsym___cmd_Read_Buttons_Debug_desc
00007358 g     F .text	0000000a USART_GetFlagStatus
00006a80  w      .text	00000000 DMA2_Channel9_IRQHandler
00009d56 g     F .text	00000032 _fstat_r
0000072e g     F .text	00000074 rt_thread_idle_excute
2000041c g     O .bss	00000004 Note_On
00001888 g     F .text	0000004a rt_thread_suspend
00000fee g     F .text	00000068 rt_kprintf
00006a78  w      .text	00000000 TIM10_CC_IRQHandler
20001b04 g     O .bss	00000004 errno
00003a5a g     F .text	00000018 getOperatorRegister
0000098e g     F .text	00000006 rt_interrupt_get_nest
20000368 g       .bss	00000000 _sbss
00000800 g       *ABS*	00000000 __stack_size
00005a04 g     F .text	00000058 Draw_Operator1_ScalingLevel
00006ccc g     F .text	0000000a ADC_GetFlagStatus
20000416 g     O .bss	00000002 ILI9341_SPI_PORT
00005c94 g     F .text	00000058 Draw_Operator2_WaveForm
00003b7e g     F .text	0000013a loadInstrument
00006436 g     F .text	0000005c Draw_Global_Feedback
000057c0 g     F .text	00000058 Draw_Operator1_Release
00004c8a g     F .text	000000ca UART_Init
00001798 g     F .text	00000020 rt_thread_timeout
00005b1c g     F .text	00000058 Draw_Operator1_MaintainSustain
0000a87c g     O .text	0000000c __fsym___cmd_clear_name
0000252c g     F .text	0000000e cmd_free
20000428 g     O .bss	00000004 Button_Left_Interrupt_Handler
00004156 g     F .text	00000016 getRelease
0000a7b8 g     O .text	00000015 __fsym_list_event_desc
0000cfd0 g     O .text	0000000c __fsym_list_msgqueue
0000d0fc g       .text	00000000 __rt_init_start
00001f8a g     F .text	000000be list_mailbox
00000406 g     F .text	0000000c .hidden __riscv_restore_2
0000abc4 g     O .text	00000016 __fsym_pinMode_desc
0000d0fc g       .text	00000000 __fsymtab_end
20001990 g     O .bss	00000009 notePlayedNumber
00002e62 g     F .text	0000001a rt_pin_write
0000578c g     F .text	00000034 Change_Operator2_Sustain
0000a868 g     O .text	00000014 __fsym___cmd_clear_desc
0000599c g     F .text	00000034 Change_Operator1_Multiplier
000006f0 g     F .text	0000001c rt_device_read
200003fc g     O .bss	00000004 shell
0000555c g     F .text	00000034 Change_Operator2_Attack
00008978 g     F .text	000000b2 memcpy
00006bae g     F .text	00000010 ADC_Cmd
2000199c g     O .bss	0000005a operatorRegisters
00008d18 g     F .text	0000000a _cleanup_r
00004ef6 g     F .text	00000028 Apply_Calibration_Offset
0000254c g     F .text	00000098 finsh_system_init
00006492 g     F .text	00000032 Change_Global_Feedback
00006bfa g     F .text	00000012 ADC_DiscModeChannelCountConfig
0000053e g     F .text	0000001e rt_components_init
000033be g     F .text	00000028 EXTI0_IRQHandler
00006a18  w      .text	00000000 I2C2_EV_IRQHandler
00006a76  w      .text	00000000 TIM10_TRG_COM_IRQHandler
00003efe g     F .text	00000018 getVibrato
000019aa g     F .text	0000003a rt_timer_init
00004c74 g     F .text	00000016 Note_Off_Debug
0000d118 g       .text	00000000 __rt_init_end
000007be g     F .text	00000036 rt_thread_idle_init
0000419a g     F .text	0000003a setFNumber
2000033c g     O .data	00000004 SystemCoreClock
0000d000 g     O .text	0000000c __fsym_list_mutex
00007350 g     F .text	00000008 USART_ReceiveData
000042d6 g     F .text	00000014 getSynthMode
20000423 g     O .bss	00000001 midi_index
20000404 g     O .bss	00000004 _syscall_table_end
20001934 g     O .bss	00000018 uart1
00001528 g     F .text	0000002e rt_system_scheduler_init
000005c2 g     F .text	00000048 rt_device_find
00000200 g       .text	00000000 rt_hw_context_switch_to
00009dc8 g     F .text	00000010 _fstat
0000d104 g     O .text	00000004 __rt_init_rt_hw_pin_init
00005d20 g     F .text	00000034 Change_Operator2_WaveForm
00000038 g       .init	00000000 _einit
00003992 g     F .text	0000001c getChipRegisterOffset
200003f8 g     O .bss	00000004 rt_thread_switch_interrupt_flag
000083a0 g     F .text	0000008c .hidden __lesf2
00007180 g     F .text	0000001e RCC_APB2PeriphClockCmd
00008010 g     F .text	0000005c .hidden __fixunsdfsi
000003b2 g     F .text	00000030 .hidden __riscv_save_12
00006a5a  w      .text	00000000 CAN2_SCE_IRQHandler
000069fa  w      .text	00000000 ADC1_2_IRQHandler
0000d114 g     O .text	00000004 __rt_init_rti_end
00006eb4 g     F .text	000000c0 GPIO_Init
00004838 g     F .text	00000226 ILI9341_Init
0000a7f8 g     O .text	0000000f __fsym___cmd_list_sem_name
00007068 g     F .text	00000012 RCC_ADCCLKConfig
000069d0  w      .text	00000000 Break_Point_Handler
00008950 g     F .text	00000004 itoa
0000cfc4 g     O .text	0000000c __fsym___cmd_list_msgqueue
0000caf0 g     O .text	0000001b __fsym___cmd_YM3812_Test_Sequence_name
0000a5c0 g     O .text	0000001a __fsym_list_desc
000003f2 g     F .text	00000020 .hidden __riscv_restore_11
20000454 g     O .bss	00000004 NVIC_Priority_Group
00006a1c  w      .text	00000000 SPI1_IRQHandler
20000424 g     O .bss	00000002 calibrationVal
00006bbe g     F .text	0000000a ADC_ResetCalibration
00002d28 g     F .text	0000005a rt_hw_serial_register
000072fc g     F .text	00000016 USART_Cmd
0000a5dc g     O .text	00000005 __fsym_list_name
00001bd4 g     F .text	00000022 rt_hw_context_switch_interrupt
0000a8b8 g     O .text	0000000d __fsym___cmd_reboot_name
0000968e g     F .text	00000032 _sbrk_r
000058f0 g     F .text	00000056 Draw_Operator1_Multiplier
000069da  w      .text	00000000 TAMPER_IRQHandler
000003e2 g     F .text	0000000c .hidden __riscv_save_1
00000406 g     F .text	0000000c .hidden __riscv_restore_0
0000a830 g     O .text	0000000c __fsym___cmd_list_thread_desc
00009d22 g     F .text	00000034 _read_r
0000a89c g     O .text	00000006 __fsym_clear_name
000017f0 g     F .text	00000046 rt_thread_create
000003c8 g     F .text	0000001a .hidden __riscv_save_7
0000d118 g       .text	00000000 __rtmsymtab_end
0000a678 g     O .text	0000000b __fsym_list_timer_name
0000739e g     F .text	00000014 USART_ClearITPendingBit
000045fc g     F .text	0000004a ILI9341_SPI_Init
00006a56  w      .text	00000000 CAN2_RX0_IRQHandler
00003fee g     F .text	00000016 getMultiplier
2000043c g     O .bss	00000004 Pot4_Interrupt_Handler
00001836 g     F .text	00000052 rt_thread_yield
000087ec g     F .text	000000ac .hidden __extendsfdf2
00006a2e  w      .text	00000000 TIM8_UP_IRQHandler
00000568 g     F .text	00000028 rt_application_init
00003f9e g     F .text	00000018 getEnvelopeScaling
0000719e g     F .text	0000001e RCC_APB1PeriphClockCmd
000069cc  w      .text	00000000 Ecall_M_Mode_Handler
000038f4 g     F .text	0000001e YM3812_Reset
20000450 g     O .bss	00000001 Menu_Index
000011e8 g     F .text	0000012c rt_malloc
2000f800 g       .stack	00000000 _heap_end
20000442 g     O .bss	00000002 pot1Val
00009dd8 g     F .text	00000010 _isatty
000008f6 g     F .text	00000040 rt_sem_release
0000d030 g     O .text	0000000c __fsym_list_sem
2000034c g     O .data	00000004 _global_impure_ptr
2000033b g     O .data	00000001 buttonRightPrev
000003fc g     F .text	00000016 .hidden __riscv_restore_5
00002f42  w    F .text	0000000a rt_heap_begin_get
00007236 g     F .text	0000000a SPI_I2S_GetFlagStatus
00006a48  w      .text	00000000 DMA2_Channel2_IRQHandler
0000cf88 g     O .text	0000000c __fsym_list
0000404c g     F .text	00000032 setScalingLevel
000069f2  w      .text	00000000 DMA1_Channel4_IRQHandler
00006c0c g     F .text	000000b8 ADC_RegularChannelConfig
200019f8 g     O .bss	000000e0 Main_Menu
00004f98 g     F .text	00000014 Generic_Input_Interrupt
00001ba4 g     F .text	00000010 sw_setpend
2000044c g     O .bss	00000002 pot4PrevVal
00003fb6 g     F .text	00000038 setEnvelopeScaling
20000410 g     O .bss	00000003 chipRegisters
000044ec g     F .text	00000050 MIDI_Note_Off
000073f0 g     F .text	0000002a _sbrk
00006cc4 g     F .text	00000008 ADC_GetConversionValue
20000080 g     O .data	000000c0 pin_irq_hdr_tab
0000a83c g     O .text	00000012 __fsym___cmd_list_thread_name
0000abdc g     O .text	00000008 __fsym_pinMode_name
0000d06c g     O .text	0000000c __fsym___cmd_reboot
00005528 g     F .text	00000034 Change_Operator1_Attack
0000a714 g     O .text	00000018 __fsym_list_mailbox_desc
0000d0cc g     O .text	0000000c __fsym___cmd_YM3812_Test_Sequence
000019e4 g     F .text	0000001e rt_timer_detach
00008c08 g     F .text	0000001e strtol
000062ae g     F .text	00000058 Draw_Global_DeepTremolo
00006a6c  w      .text	00000000 TIM9_UP_IRQHandler
000022ce g     F .text	00000004 msh_is_used
00004af6 g     F .text	00000098 ILI9341_WriteString
000003fc g     F .text	00000016 .hidden __riscv_restore_6
00004ddc g     F .text	00000038 USART3_IRQHandler
00006eaa g     F .text	0000000a EXTI_ClearITPendingBit
000058bc g     F .text	00000034 Change_Operator2_Release
00000520 g     F .text	0000001e rt_components_board_init
000069dc  w      .text	00000000 RTC_IRQHandler
0000a8c8 g     O .text	00000011 __fsym_reboot_desc
00006bda g     F .text	00000008 ADC_GetCalibrationStatus
00001056 g     F .text	0000003e rt_show_version
20001b08 g       .bss	00000000 _ebss
00007362 g     F .text	0000003c USART_GetITStatus
2000044e g     O .bss	00000002 pot4Val
0000d0fc g     O .text	00000004 __rt_init_rti_start
000069f8  w      .text	00000000 DMA1_Channel7_IRQHandler
00006be2 g     F .text	00000018 ADC_SoftwareStartConvCmd
00002f56 g     F .text	00000072 rt_hw_board_init
00002eee g     F .text	00000054 rt_device_pin_register
00006bc8 g     F .text	00000008 ADC_GetResetCalibrationStatus
0000527c g     F .text	00000028 Read_Buttons_Debug
0000d054 g     O .text	0000000c __fsym___cmd_clear
00006a00  w      .text	00000000 CAN1_RX1_IRQHandler
00001920 g     F .text	0000004c rt_thread_resume
00000590 g     F .text	00000028 rtthread_startup
000031e4 g     F .text	0000005a ch32_pin_dettach_irq
00006a62  w      .text	00000000 DVP_IRQHandler
00006a40  w      .text	00000000 UART5_IRQHandler
000060b0 g     F .text	0000002e Draw_Operator1_Blank
00003ec6 g     F .text	00000038 setTremolo
0000a6d8 g     O .text	0000000e __fsym_list_msgqueue_name
00005fe8 g     F .text	00000058 Draw_Operator2_EnvelopeScaling
00001ab2 g     F .text	00000038 rt_timer_control
00003f16 g     F .text	00000038 setVibrato
0000831a g     F .text	00000086 .hidden __gtsf2
000013e2 g     F .text	0000002a rt_object_get_information
20000790 g     O .bss	00000080 rt_thread_priority_table
00006f7e g     F .text	00000004 GPIO_SetBits
200018dc g     O .bss	00000058 serial1
00006a12  w      .text	00000000 TIM4_IRQHandler
0000ab74 g     O .text	0000001e __fsym_pinRead_desc
00001c1a g     F .text	00000016 clear
20000413 g     O .bss	00000001 notesPlayed
200003a8 g     O .bss	00000004 rt_object_put_hook
0000480c g     F .text	00000016 ILI9341_TurnOn
000003ba g     F .text	00000028 .hidden __riscv_save_9
00006f86 g     F .text	0000000a GPIO_WriteBit
00008a68 g     F .text	0000001e strcat
000016ba g     F .text	00000050 rt_thread_exit
00006a46  w      .text	00000000 DMA2_Channel1_IRQHandler
0000a78c g     O .text	00000015 __fsym___cmd_list_event_desc
0000060a g     F .text	00000034 rt_device_register
00003cb8 g     F .text	00000170 setInstrument
00000bb6 g     F .text	00000048 rt_memmove
0000cdcc g     O .text	00000020 __sf_fake_stderr
000003c8 g     F .text	0000001a .hidden __riscv_save_4
2000044a g     O .bss	00000002 pot3Val
0000339a g     F .text	00000024 HAL_GPIO_EXTI_Callback
00001c08 g     F .text	00000012 reboot
00003912 g     F .text	00000080 YM3812_Write_Full
00003a06 g     F .text	00000054 getOperatorRegisterOffset
00006a14  w      .text	00000000 I2C1_EV_IRQHandler
0000cfdc g     O .text	0000000c __fsym___cmd_list_mailbox
0000890c g     F .text	00000044 __itoa
00004328 g     F .text	0000002a setDeepTremolo
0000707a g     F .text	00000106 RCC_GetClocksFreq
2000194c g     O .bss	0000001b Current_Instrument
00005674 g     F .text	00000034 Change_Operator2_Decay
0000502a g     F .text	000000e4 Inputs_Init
0000abb8 g     O .text	00000009 __fsym_pinWrite_name
000052a6 g     F .text	00000168 Slider_Draw
000069f6  w      .text	00000000 DMA1_Channel6_IRQHandler
00008898 g     F .text	0000006e .hidden __clzsi2
00002048 g     F .text	000000b6 list_msgqueue
00009010 g     F .text	00000042 __sfputs_r
00006a3e  w      .text	00000000 UART4_IRQHandler
00006a4c  w      .text	00000000 DMA2_Channel4_IRQHandler
00009c5e g     F .text	00000018 memchr
00007240 g     F .text	000000bc USART_Init
00009c7a g     F .text	000000a8 _free_r
00006a10  w      .text	00000000 TIM3_IRQHandler
000069e0  w      .text	00000000 RCC_IRQHandler
00004126 g     F .text	00000030 setSustain
00000c54 g     F .text	00000012 rt_strlen
000003e2 g     F .text	0000000c .hidden __riscv_save_3
00006a0a  w      .text	00000000 TIM1_TRG_COM_IRQHandler
0000d078 g     O .text	0000000c __fsym_reboot
0000d084 g     O .text	0000000c __fsym___cmd_help
000069ec  w      .text	00000000 DMA1_Channel1_IRQHandler
00003812 g     F .text	000000a2 SWSPI_Init
200003b4 g     O .bss	00000001 rt_current_priority
000030d4 g     F .text	0000007e ch32_pin_mode
00004352 g     F .text	00000014 getDeepVibrato
0000cfac g     O .text	0000000c __fsym___cmd_list_timer
00000000 g       .init	00000000 _start
0000a6e8 g     O .text	00000018 __fsym___cmd_list_mailbox_desc
00005d54 g     F .text	00000056 Draw_Operator1_Tremolo
00006a7c  w      .text	00000000 DMA2_Channel7_IRQHandler
00003a72 g     F .text	00000022 YM3812_Write
00009de8 g     F .text	00000010 _lseek
00005e00 g     F .text	00000038 Change_Operator1_Tremolo
00001e5c g     F .text	000000ac list_event
000060de g     F .text	0000000c Draw_Operator2_Blank
000034fe g     F .text	00000080 EXTI15_10_IRQHandler
00008aa8 g     F .text	00000028 strncmp
00004c42 g     F .text	0000001a ILI9341_FillScreen
00002e48 g     F .text	0000001a rt_pin_mode
0000cb88 g     O .text	00000019 __fsym___cmd_Read_Buttons_Debug_name
00007312 g     F .text	00000036 USART_ITConfig
20000446 g     O .bss	00000002 pot2Val
0000d0c0 g     O .text	0000000c __fsym_pinMode
0000a5e4 g     O .text	00000016 __fsym___cmd_list_device_desc
00006e22 g     F .text	0000006a EXTI_Init
00006306 g     F .text	00000024 Change_Global_DeepTremolo
20000330 g     O .data	00000001 midiCommandBytes
0000cfa0 g     O .text	0000000c __fsym_list_device
0000cff4 g     O .text	0000000c __fsym___cmd_list_mutex
00005758 g     F .text	00000034 Change_Operator1_Sustain
00003b56 g     F .text	00000028 createInstrument
0000474c g     F .text	00000016 ILI9341_Unselect
00002e7c g     F .text	00000018 rt_pin_read
0000aa90 g     O .text	0000000b __fsym___cmd_help_name
00004d54 g     F .text	00000088 MIDI_Handler
000056a8 g     F .text	00000058 Draw_Operator1_Sustain
000004c0 g     F .text	00000028 rt_tick_increase
0000113a g     F .text	00000032 list_mem
0000aacc g     O .text	0000001b __fsym___cmd_ps_desc
00006f82 g     F .text	00000004 GPIO_ResetBits
00006a44  w      .text	00000000 TIM7_IRQHandler
0000a768 g     O .text	00000015 __fsym_list_mutex_desc
00001a82 g     F .text	00000030 rt_timer_stop
0000997a g     F .text	00000030 _close_r
00006a54  w      .text	00000000 CAN2_TX_IRQHandler
0000aa9c g     O .text	00000024 __fsym___cmd_free_desc
20000000 g       .dalign	00000000 _data_vma
000061ca g     F .text	000000e4 Handle_Button_Right
00000c66 g     F .text	00000352 rt_vsnprintf
0000d03c g     O .text	0000000c __fsym___cmd_list_thread
00006a3a  w      .text	00000000 TIM5_IRQHandler
00004b8e g     F .text	00000096 ILI9341_WriteString_Horizontal_Backwards
00003f4e g     F .text	00000018 getMaintainSustain
00004246 g     F .text	00000050 playNote
00008954 g     F .text	00000024 memcmp
2000042c g     O .bss	00000004 Button_Right_Interrupt_Handler
20000338 g     O .data	00000001 buttonLeft
00003094 g     F .text	00000022 ch32_pin_write
00005590 g     F .text	00000058 Draw_Operator1_Decay
0000987c g     F .text	000000fe __swsetup_r
00003486 g     F .text	00000078 EXTI9_5_IRQHandler
0000a888 g     O .text	00000014 __fsym_clear_desc
00005f58 g     F .text	00000038 Change_Operator2_Vibrato
00001bb4 g     F .text	0000000e sw_clearpend
00008dd4 g     F .text	000000a0 __sfp
000004e8 g     F .text	00000028 rt_tick_from_millisecond
20000400 g     O .bss	00000004 _syscall_table_begin
00002f4c  w    F .text	0000000a rt_heap_end_get
00006f90 g     F .text	0000002c GPIO_EXTILineConfig
0000741a g     F .text	000004b8 .hidden __muldf3
000003ba g     F .text	00000028 .hidden __riscv_save_10
00003a94 g     F .text	00000026 setChipRegister
20000448 g     O .bss	00000002 pot3PrevVal
0000357e g     F .text	00000004 ch32dma_transmit
000096c0 g     F .text	0000002c __sread
000025e4 g     F .text	0000003c finsh_get_prompt
000040de g     F .text	0000002e setDecay
00006a52  w      .text	00000000 ETH_WKUP_IRQHandler
00009c76 g     F .text	00000002 __malloc_lock
000003fc g     F .text	00000016 .hidden __riscv_restore_4
00004c24 g     F .text	0000001e ILI9341_FillRectangle
000003f2 g     F .text	00000020 .hidden __riscv_restore_8
00009ada g     F .text	00000068 _fflush_r
00001094 g     F .text	0000004e __rt_ffs
000003c8 g     F .text	0000001a .hidden __riscv_save_6
00006e8c g     F .text	0000001e EXTI_GetITStatus
000041fe g     F .text	00000016 getKeyOn
00006a1e  w      .text	00000000 SPI2_IRQHandler
000060ea g     F .text	000000e0 Handle_Button_Left
0000cdec g     O .text	00000020 __sf_fake_stdin
0000247c g     F .text	000000a2 msh_auto_complete
00008c26 g     F .text	0000008c __utoa
2000040c g     O .bss	00000004 _sysvar_table_end
0000d0e4 g     O .text	0000000c __fsym___cmd_Read_Potentiometers_Debug
00005230 g     F .text	0000004c Read_Potentiometers_Debug
00004822 g     F .text	00000016 ILI9341_TurnOff
000039ee g     F .text	00000018 getChannelRegister
00001676 g     F .text	00000016 rt_enter_critical
000018d2 g     F .text	00000040 rt_thread_sleep
00004214 g     F .text	00000032 setKeyOn
00000412 g     F .text	000000a8 memset
0000510e g     F .text	00000024 Read_Buttons
000003f2 g     F .text	00000020 .hidden __riscv_restore_9
000003fc g     F .text	00000016 .hidden __riscv_restore_7
0000682a g     F .text	000000a6 main
00005824 g     F .text	00000058 Draw_Operator2_Release
0000aa78 g     O .text	00000015 __fsym___cmd_help_desc
00006a72  w      .text	00000000 TIM10_BRK_IRQHandler
00004390 g     F .text	00000016 getWaveForm
00000962 g     F .text	0000002c rt_interrupt_leave
00006a70  w      .text	00000000 TIM9_CC_IRQHandler
000083a0 g     F .text	0000008c .hidden __ltsf2
00003e28 g     F .text	00000084 YM3812_Begin
00005818 g     F .text	0000000c Change_Operator1_Blank
0000a64c g     O .text	00000011 __fsym___cmd_list_timer_name
00005700 g     F .text	00000058 Draw_Operator2_Sustain
00009764 g     F .text	00000006 __sclose
00006a4e  w      .text	00000000 DMA2_Channel5_IRQHandler
00001b6c g     F .text	00000002 rt_system_timer_thread_init
00006404 g     F .text	00000032 Change_Global_SynthMode
000017b8 g     F .text	00000032 rt_thread_init
00008f16 g     F .text	000000d4 _malloc_r
0000a634 g     O .text	00000015 __fsym___cmd_list_timer_desc
00009828 g     F .text	0000001e __ascii_wctomb
0000b2f8 g     O .text	00000030 noteFNumbers
0000d0fc g       .text	00000000 __vsymtab_start
00006cee g     F .text	00000134 Get_CalibrationValue
000069f4  w      .text	00000000 DMA1_Channel5_IRQHandler
00005f90 g     F .text	00000058 Draw_Operator1_EnvelopeScaling
0000345e g     F .text	00000028 EXTI4_IRQHandler
0000a7dc g     O .text	00000019 __fsym___cmd_list_sem_desc
20000374 g     O .bss	00000001 rt_interrupt_nest
000069fe  w      .text	00000000 USB_LP_CAN1_RX0_IRQHandler
0000a8a4 g     O .text	00000011 __fsym___cmd_reboot_desc
0000a73c g     O .text	00000015 __fsym___cmd_list_mutex_desc
00000fec  w    F .text	00000002 rt_hw_console_output
00004f5c g     F .text	0000003c Clamp
0000842c g     F .text	00000290 .hidden __mulsf3
00006cd6 g     F .text	00000018 ADC_BufferCmd
00007218 g     F .text	0000001a SPI_Cmd
200003ac g     O .bss	00000004 rt_object_take_hook
00002192 g     F .text	0000009a list_timer
000059d0 g     F .text	00000034 Change_Operator2_Multiplier
0000a684 g     O .text	0000001d __fsym___cmd_list_msgqueue_desc
000068d0 g     F .text	000000f8 SystemInit
00006a34  w      .text	00000000 RNG_IRQHandler
0000aac0 g     O .text	0000000b __fsym___cmd_free_name
00001bc2 g     F .text	0000000c rt_hw_interrupt_disable
20000440 g     O .bss	00000002 pot1PrevVal
0000196c g     F .text	0000002c rt_thread_startup
200003b8 g     O .bss	00000004 rt_current_thread
00008a2a g     F .text	0000003e iprintf
00000fb8 g     F .text	00000006 rt_console_get_device
00005ae8 g     F .text	00000034 Change_Operator2_ScalingLevel
000069fc  w      .text	00000000 USB_HP_CAN1_TX_IRQHandler
0000cca4 g     O .text	00000100 .hidden __clz_tab
00005ec8 g     F .text	00000058 Draw_Operator2_Vibrato
00000000 g       .init	00000000 _sinit
000041d4 g     F .text	0000002a setBlock
0000a780 g     O .text	0000000b __fsym_list_mutex_name
0000831a g     F .text	00000086 .hidden __gesf2
00009846 g     F .text	00000036 _write_r
000064c4 g     F .text	0000031e Initialize_Menu_Pages
000069f0  w      .text	00000000 DMA1_Channel3_IRQHandler
200003cc g     O .bss	00000004 rt_thread_ready_priority_group
00004004 g     F .text	0000002e setMultiplier
00004296 g     F .text	00000016 getFeedback
20000414 g     O .bss	00000002 HAL_MAX_DELAY
00006040 g     F .text	00000038 Change_Operator1_EnvelopeScaling
00006a36  w      .text	00000000 FSMC_IRQHandler
00006a50  w      .text	00000000 ETH_IRQHandler
000092de g     F .text	0000010c _printf_common
0000d090 g     O .text	0000000c __fsym___cmd_free
20000348 g     O .data	00000004 _impure_ptr
00004f1e g     F .text	0000003e Get_ADC_Val
00004e14 g     F .text	000000e2 ADC_Function_Init
00006a08  w      .text	00000000 TIM1_UP_IRQHandler
0000a700 g     O .text	00000013 __fsym___cmd_list_mailbox_name
000099aa g     F .text	00000130 __sflush_r
000043d4 g     F .text	0000002a YM3812_Write_Wrapper
000039c2 g     F .text	0000002c getChannelRegisterOffset
0000a5fc g     O .text	00000012 __fsym___cmd_list_device_name
0000b328 g     O .text	00000012 registerOffsets
200003c4 g     O .bss	00000008 rt_thread_defunct
0000d10c g     O .text	00000004 __rt_init_rti_board_end
00005946 g     F .text	00000056 Draw_Operator2_Multiplier
000069d6  w      .text	00000000 WWDG_IRQHandler
0000d0b4 g     O .text	0000000c __fsym_pinWrite
0000084e g     F .text	00000028 rt_sem_init
00000276 g       .text	00000000 rt_hw_context_switch_exit
00006a5e  w      .text	00000000 USBHSWakeup_IRQHandler
00000b2e g     F .text	00000088 rt_memset
00006a84  w      .text	00000000 DMA2_Channel11_IRQHandler
000020fe g     F .text	00000094 list_device
00008ee4 g     F .text	00000032 __ascii_mbtowc
0000cb38 g     O .text	00000020 __fsym___cmd_Read_Potentiometers_Debug_desc
000069ce  w      .text	00000000 Ecall_U_Mode_Handler
0000cfe8 g     O .text	0000000c __fsym_list_mailbox
000039ae g     F .text	00000014 getChipRegister
00000c2a g     F .text	0000002a rt_strncmp
0000d00c g     O .text	0000000c __fsym___cmd_list_event
00006a7a  w      .text	00000000 DMA2_Channel6_IRQHandler
20000328 g     O .data	00000008 Font_7x10
0000d0fc g       .text	00000000 __vsymtab_end
0000ab94 g     O .text	00000008 __fsym_pinRead_name
0000aae8 g     O .text	00000009 __fsym___cmd_ps_name
0000cfb8 g     O .text	0000000c __fsym_list_timer
00006a0e  w      .text	00000000 TIM2_IRQHandler
20010000 g       .stack	00000000 _eusrstack
0000146a g     F .text	0000002e rt_object_detach
000003e2 g     F .text	0000000c .hidden __riscv_save_2
00006078 g     F .text	00000038 Change_Operator2_EnvelopeScaling
00006b18 g     F .text	00000040 ADC_DeInit
0000d108 g     O .text	00000004 __rt_init_rt_hw_usart_init
00000b12 g     F .text	0000001c rt_set_errno
00001b62 g     F .text	0000000a rt_system_timer_init
0000416c g     F .text	0000002e setRelease
00006a06  w      .text	00000000 TIM1_BRK_IRQHandler
00001634 g     F .text	00000042 rt_schedule_remove_thread
00009b76 g     F .text	00000056 __swhatbuf_r
00006b58 g     F .text	00000056 ADC_Init
00007348 g     F .text	00000008 USART_SendData
00000936 g     F .text	0000002c rt_interrupt_enter
00006a82  w      .text	00000000 DMA2_Channel10_IRQHandler
000033e6 g     F .text	00000028 EXTI1_IRQHandler
00001bce g     F .text	00000006 rt_hw_interrupt_enable
000003c8 g     F .text	0000001a .hidden __riscv_save_5
0000cf7c g     O .text	0000000c __fsym_list_mem
000073b2 g     F .text	0000003e _write
20000368 g       .data	00000000 _edata
000054d2 g     F .text	00000056 Draw_Operator2_Attack
0000cf94 g     O .text	0000000c __fsym___cmd_list_device
20001b08 g       .bss	00000000 _end
0000a6a4 g     O .text	00000014 __fsym___cmd_list_msgqueue_name
0000168c g     F .text	0000002e rt_exit_critical
00006a28  w      .text	00000000 RTCAlarm_IRQHandler
00001f08 g     F .text	00000082 list_mutex
0000251e g     F .text	0000000e cmd_ps
0000d118 g       .dlalign	00000000 _data_lma
0000264e g     F .text	0000007e finsh_set_device
00006a74  w      .text	00000000 TIM10_UP_IRQHandler
00006a6e  w      .text	00000000 TIM9_TRG_COM_IRQHandler
00006a66  w      .text	00000000 UART7_IRQHandler
000063a8 g     F .text	0000005c Draw_Global_SynthMode
0000632a g     F .text	0000005a Draw_Global_DeepVibrato
00005888 g     F .text	00000034 Change_Operator1_Release
00004a5e g     F .text	00000098 ILI9341_WriteChar
00003074 g     F .text	00000020 get_pin
00006a22  w      .text	00000000 USART2_IRQHandler
00006384 g     F .text	00000024 Change_Global_DeepVibrato
00006a64  w      .text	00000000 UART6_IRQHandler
000096ec g     F .text	00000048 __swrite
00005c04 g     F .text	00000038 Change_Operator2_MaintainSustain
000006b8 g     F .text	00000038 rt_device_close
000017ea g     F .text	00000006 rt_thread_self
00009052 g     F .text	0000028c _vfiprintf_r
0000d110 g     O .text	00000004 __rt_init_finsh_system_init
0000a610 g     O .text	00000016 __fsym_list_device_desc
00008e74 g     F .text	0000006a _fwalk_reent
0000d0f0 g     O .text	0000000c __fsym___cmd_Read_Buttons_Debug
00004312 g     F .text	00000016 getDeepTremolo
0000871e g     F .text	000000ce .hidden __floatunsisf
00004366 g     F .text	0000002a setDeepVibrato
0000a850 g     O .text	0000000c __fsym_list_thread_desc
20000320 g     O .data	00000008 Font_11x18
00006a1a  w      .text	00000000 I2C2_ER_IRQHandler
000069ee  w      .text	00000000 DMA1_Channel2_IRQHandler
0000cb0c g     O .text	00000010 __fsym___cmd_YM3812_Write_Wrapper_desc
20001984 g     O .bss	00000009 noteOn
000014ee g     F .text	00000032 rt_object_delete
00005daa g     F .text	00000056 Draw_Operator2_Tremolo
00003650 g     F .text	000000c4 rt_hw_usart_init
000004ba g     F .text	00000006 rt_tick_get
0000ce0c g     O .text	00000020 __sf_fake_stdout
20000430 g     O .bss	00000004 Pot1_Interrupt_Handler
00008906 g     F .text	00000006 atoi
000003ee g     F .text	00000024 .hidden __riscv_restore_12
00006a2c  w      .text	00000000 TIM8_BRK_IRQHandler
0000ce78 g     O .text	00000101 _ctype_
0000540e g     F .text	0000002e Initialize_Menu
00009df8 g     F .text	00000010 _read
0000a7d0 g     O .text	0000000b __fsym_list_event_name
00006a86  w      .text	00000000 handle_reset
00006a02  w      .text	00000000 CAN1_SCE_IRQHandler
000043fe g     F .text	00000086 YM3812_Test_Sequence
00005640 g     F .text	00000034 Change_Operator1_Decay
00004646 g     F .text	00000042 HAL_SPI_Transmit
000040c8 g     F .text	00000016 getDecay
0000d018 g     O .text	0000000c __fsym_list_event
200003b0 g     O .bss	00000004 rt_object_trytake_hook
000069de  w      .text	00000000 FLASH_IRQHandler
000003e2 g     F .text	0000000c .hidden __riscv_save_0
0000a7a4 g     O .text	00000011 __fsym___cmd_list_event_name
00004fac g     F .text	0000007e Read_Potentiometers
00005a5c g     F .text	00000058 Draw_Operator2_ScalingLevel
0000a0c0 g     O .text	0000001e __fsym_list_mem_desc
00000876 g     F .text	00000080 rt_sem_take
000037b4 g     F .text	0000004a USART1_IRQHandler
0000d024 g     O .text	0000000c __fsym___cmd_list_sem
00009bcc g     F .text	00000092 __smakebuf_r
00003b0c g     F .text	0000004a setOperatorRegister
00008a96 g     F .text	00000012 strlen
00006a5c  w      .text	00000000 OTG_FS_IRQHandler
000093ea g     F .text	000002a4 _printf_i
00006a3c  w      .text	00000000 SPI3_IRQHandler
00008ede g     F .text	00000006 __locale_ctype_ptr_l
0000a660 g     O .text	00000015 __fsym_list_timer_desc
20000339 g     O .data	00000001 buttonLeftPrev
00005e70 g     F .text	00000058 Draw_Operator1_Vibrato
00005c3c g     F .text	00000058 Draw_Operator1_WaveForm
000055e8 g     F .text	00000058 Draw_Operator2_Decay
2000045c g     O .bss	00000004 __malloc_sbrk_start
000071bc g     F .text	0000001e RCC_APB2PeriphResetCmd
00000fbe g     F .text	0000002e rt_console_set_device
00003152 g     F .text	00000092 ch32_pin_attach_irq
00005f20 g     F .text	00000038 Change_Operator1_Vibrato
00004c5c g     F .text	00000018 Note_On_Debug
00006a16  w      .text	00000000 I2C1_ER_IRQHandler
000071da g     F .text	0000003e SPI_Init
00006fbc g     F .text	00000006 NVIC_PriorityGroupConfig
0000d100 g     O .text	00000004 __rt_init_rti_board_start
0000070c g     F .text	0000001c rt_device_write
20000458 g     O .bss	00000004 __malloc_free_list
20000420 g     O .bss	00000003 commandArray
0000a85c g     O .text	0000000c __fsym_list_thread_name
0000cf7c g       .text	00000000 __fsymtab_start
00000406 g     F .text	0000000c .hidden __riscv_restore_1
00003058 g     F .text	0000001c rt_hw_pin_init
000078d2 g     F .text	0000073e .hidden __subdf3
00009052 g     F .text	0000028c _vfprintf_r
0000d060 g     O .text	0000000c __fsym_clear
00001582 g     F .text	0000006a rt_schedule
0000140c g     F .text	0000005e rt_object_init
0000547c g     F .text	00000056 Draw_Operator1_Attack
000030b6 g     F .text	0000001e ch32_pin_read
0000d09c g     O .text	0000000c __fsym___cmd_ps
20000444 g     O .bss	00000002 pot2PrevVal
20001968 g     O .bss	0000001b channelRegisters
00006f74 g     F .text	0000000a GPIO_ReadInputDataBit
0000ab9c g     O .text	0000001c __fsym_pinWrite_desc
00005bcc g     F .text	00000038 Change_Operator1_MaintainSustain
20000438 g     O .bss	00000004 Pot3_Interrupt_Handler
00001a02 g     F .text	00000080 rt_timer_start
00002276 g     F .text	00000058 msh_help
0000d0d8 g     O .text	0000000c __fsym___cmd_YM3812_Write_Wrapper
200001b0 g     O .data	0000016c __global_locale
00002d82 g     F .text	000000aa rt_hw_serial_isr
00004098 g     F .text	00000030 setAttack
00006a2a  w      .text	00000000 USBWakeUp_IRQHandler
0000021c g       .text	00000000 rt_hw_context_switch
20000418 g     O .bss	00000004 Note_Off
00009db8 g     F .text	00000010 _close
00006a4a  w      .text	00000000 DMA2_Channel3_IRQHandler
0000323e g     F .text	0000015c ch32_pin_irq_enable
0000a628 g     O .text	0000000c __fsym_list_device_name
0000a6b8 g     O .text	0000001d __fsym_list_msgqueue_desc
0000a808 g     O .text	00000019 __fsym_list_sem_desc



Disassembly of section .init:

00000000 <_sinit>:
   0:	2870606f          	j	6a86 <handle_reset>
   4:	00000013          	nop
   8:	00000013          	nop
   c:	00000013          	nop
  10:	00000013          	nop
  14:	00000013          	nop
  18:	00000013          	nop
  1c:	00000013          	nop
  20:	00000013          	nop
  24:	00000013          	nop
  28:	00000013          	nop
  2c:	00000013          	nop
  30:	00000013          	nop
  34:	00100073          	ebreak

Disassembly of section .vector:

00000038 <_vector_base>:
	...
  40:	543c                	lw	a5,104(s0)
  42:	0000                	unimp
  44:	545c                	lw	a5,44(s0)
  46:	0000                	unimp
  48:	0000                	unimp
  4a:	0000                	unimp
  4c:	69cc                	flw	fa1,20(a1)
	...
  56:	0000                	unimp
  58:	69ce                	flw	fs3,208(sp)
  5a:	0000                	unimp
  5c:	69d0                	flw	fa2,20(a1)
	...
  66:	0000                	unimp
  68:	2fc8                	lbu	a0,28(a5)
  6a:	0000                	unimp
  6c:	0000                	unimp
  6e:	0000                	unimp
  70:	02d0                	addi	a2,sp,324
  72:	0000                	unimp
  74:	0000                	unimp
  76:	0000                	unimp
  78:	69d6                	flw	fs3,84(sp)
  7a:	0000                	unimp
  7c:	69d8                	flw	fa4,20(a1)
  7e:	0000                	unimp
  80:	69da                	flw	fs3,148(sp)
  82:	0000                	unimp
  84:	69dc                	flw	fa5,20(a1)
  86:	0000                	unimp
  88:	69de                	flw	fs3,212(sp)
  8a:	0000                	unimp
  8c:	69e0                	flw	fs0,84(a1)
  8e:	0000                	unimp
  90:	33be                	lhu	a5,34(a5)
  92:	0000                	unimp
  94:	33e6                	lhu	s1,38(a5)
  96:	0000                	unimp
  98:	340e                	lhu	a1,40(s0)
  9a:	0000                	unimp
  9c:	3436                	lhu	a3,42(s0)
  9e:	0000                	unimp
  a0:	345e                	lhu	a5,44(s0)
  a2:	0000                	unimp
  a4:	69ec                	flw	fa1,84(a1)
  a6:	0000                	unimp
  a8:	69ee                	flw	fs3,216(sp)
  aa:	0000                	unimp
  ac:	69f0                	flw	fa2,84(a1)
  ae:	0000                	unimp
  b0:	69f2                	flw	fs3,28(sp)
  b2:	0000                	unimp
  b4:	69f4                	flw	fa3,84(a1)
  b6:	0000                	unimp
  b8:	69f6                	flw	fs3,92(sp)
  ba:	0000                	unimp
  bc:	69f8                	flw	fa4,84(a1)
  be:	0000                	unimp
  c0:	69fa                	flw	fs3,156(sp)
  c2:	0000                	unimp
  c4:	69fc                	flw	fa5,84(a1)
  c6:	0000                	unimp
  c8:	69fe                	flw	fs3,220(sp)
  ca:	0000                	unimp
  cc:	6a00                	flw	fs0,16(a2)
  ce:	0000                	unimp
  d0:	6a02                	flw	fs4,0(sp)
  d2:	0000                	unimp
  d4:	3486                	lhu	s1,40(s1)
  d6:	0000                	unimp
  d8:	6a06                	flw	fs4,64(sp)
  da:	0000                	unimp
  dc:	6a08                	flw	fa0,16(a2)
  de:	0000                	unimp
  e0:	6a0a                	flw	fs4,128(sp)
  e2:	0000                	unimp
  e4:	6a0c                	flw	fa1,16(a2)
  e6:	0000                	unimp
  e8:	6a0e                	flw	fs4,192(sp)
  ea:	0000                	unimp
  ec:	6a10                	flw	fa2,16(a2)
  ee:	0000                	unimp
  f0:	6a12                	flw	fs4,4(sp)
  f2:	0000                	unimp
  f4:	6a14                	flw	fa3,16(a2)
  f6:	0000                	unimp
  f8:	6a16                	flw	fs4,68(sp)
  fa:	0000                	unimp
  fc:	6a18                	flw	fa4,16(a2)
  fe:	0000                	unimp
 100:	6a1a                	flw	fs4,132(sp)
 102:	0000                	unimp
 104:	6a1c                	flw	fa5,16(a2)
 106:	0000                	unimp
 108:	6a1e                	flw	fs4,196(sp)
 10a:	0000                	unimp
 10c:	37b4                	lbu	a3,11(a5)
 10e:	0000                	unimp
 110:	6a22                	flw	fs4,8(sp)
 112:	0000                	unimp
 114:	4ddc                	lw	a5,28(a1)
 116:	0000                	unimp
 118:	34fe                	lhu	a5,46(s1)
 11a:	0000                	unimp
 11c:	6a28                	flw	fa0,80(a2)
 11e:	0000                	unimp
 120:	6a2a                	flw	fs4,136(sp)
 122:	0000                	unimp
 124:	6a2c                	flw	fa1,80(a2)
 126:	0000                	unimp
 128:	6a2e                	flw	fs4,200(sp)
 12a:	0000                	unimp
 12c:	6a30                	flw	fa2,80(a2)
 12e:	0000                	unimp
 130:	6a32                	flw	fs4,12(sp)
 132:	0000                	unimp
 134:	6a34                	flw	fa3,80(a2)
 136:	0000                	unimp
 138:	6a36                	flw	fs4,76(sp)
 13a:	0000                	unimp
 13c:	6a38                	flw	fa4,80(a2)
 13e:	0000                	unimp
 140:	6a3a                	flw	fs4,140(sp)
 142:	0000                	unimp
 144:	6a3c                	flw	fa5,80(a2)
 146:	0000                	unimp
 148:	6a3e                	flw	fs4,204(sp)
 14a:	0000                	unimp
 14c:	6a40                	flw	fs0,20(a2)
 14e:	0000                	unimp
 150:	6a42                	flw	fs4,16(sp)
 152:	0000                	unimp
 154:	6a44                	flw	fs1,20(a2)
 156:	0000                	unimp
 158:	6a46                	flw	fs4,80(sp)
 15a:	0000                	unimp
 15c:	6a48                	flw	fa0,20(a2)
 15e:	0000                	unimp
 160:	6a4a                	flw	fs4,144(sp)
 162:	0000                	unimp
 164:	6a4c                	flw	fa1,20(a2)
 166:	0000                	unimp
 168:	6a4e                	flw	fs4,208(sp)
 16a:	0000                	unimp
 16c:	6a50                	flw	fa2,20(a2)
 16e:	0000                	unimp
 170:	6a52                	flw	fs4,20(sp)
 172:	0000                	unimp
 174:	6a54                	flw	fa3,20(a2)
 176:	0000                	unimp
 178:	6a56                	flw	fs4,84(sp)
 17a:	0000                	unimp
 17c:	6a58                	flw	fa4,20(a2)
 17e:	0000                	unimp
 180:	6a5a                	flw	fs4,148(sp)
 182:	0000                	unimp
 184:	6a5c                	flw	fa5,20(a2)
 186:	0000                	unimp
 188:	6a5e                	flw	fs4,212(sp)
 18a:	0000                	unimp
 18c:	6a60                	flw	fs0,84(a2)
 18e:	0000                	unimp
 190:	6a62                	flw	fs4,24(sp)
 192:	0000                	unimp
 194:	6a64                	flw	fs1,84(a2)
 196:	0000                	unimp
 198:	6a66                	flw	fs4,88(sp)
 19a:	0000                	unimp
 19c:	6a68                	flw	fa0,84(a2)
 19e:	0000                	unimp
 1a0:	6a6a                	flw	fs4,152(sp)
 1a2:	0000                	unimp
 1a4:	6a6c                	flw	fa1,84(a2)
 1a6:	0000                	unimp
 1a8:	6a6e                	flw	fs4,216(sp)
 1aa:	0000                	unimp
 1ac:	6a70                	flw	fa2,84(a2)
 1ae:	0000                	unimp
 1b0:	6a72                	flw	fs4,28(sp)
 1b2:	0000                	unimp
 1b4:	6a74                	flw	fa3,84(a2)
 1b6:	0000                	unimp
 1b8:	6a76                	flw	fs4,92(sp)
 1ba:	0000                	unimp
 1bc:	6a78                	flw	fa4,84(a2)
 1be:	0000                	unimp
 1c0:	6a7a                	flw	fs4,156(sp)
 1c2:	0000                	unimp
 1c4:	6a7c                	flw	fa5,84(a2)
 1c6:	0000                	unimp
 1c8:	6a7e                	flw	fs4,220(sp)
 1ca:	0000                	unimp
 1cc:	6a80                	flw	fs0,16(a3)
 1ce:	0000                	unimp
 1d0:	6a82                	flw	fs5,0(sp)
 1d2:	0000                	unimp
 1d4:	6a84                	flw	fs1,16(a3)
	...

Disassembly of section .text:

00000200 <rt_hw_context_switch_to>:
     200:	20010297          	auipc	t0,0x20010
     204:	e0028293          	addi	t0,t0,-512 # 20010000 <_eusrstack>
     208:	e0028293          	addi	t0,t0,-512
     20c:	34029073          	csrw	mscratch,t0
     210:	00052103          	lw	sp,0(a0)
     214:	4522                	lw	a0,8(sp)
     216:	30051073          	csrw	mstatus,a0
     21a:	a8b1                	j	276 <rt_hw_context_switch_exit>

0000021c <rt_hw_context_switch>:
     21c:	7119                	addi	sp,sp,-128
     21e:	00252023          	sw	sp,0(a0)
     222:	c006                	sw	ra,0(sp)
     224:	c206                	sw	ra,4(sp)
     226:	ca16                	sw	t0,20(sp)
     228:	300022f3          	csrr	t0,mstatus
     22c:	0082f293          	andi	t0,t0,8
     230:	00028463          	beqz	t0,238 <rt_hw_context_switch+0x1c>
     234:	08000293          	li	t0,128
     238:	c416                	sw	t0,8(sp)
     23a:	c812                	sw	tp,16(sp)
     23c:	cc1a                	sw	t1,24(sp)
     23e:	ce1e                	sw	t2,28(sp)
     240:	d022                	sw	s0,32(sp)
     242:	d226                	sw	s1,36(sp)
     244:	d42a                	sw	a0,40(sp)
     246:	d62e                	sw	a1,44(sp)
     248:	d832                	sw	a2,48(sp)
     24a:	da36                	sw	a3,52(sp)
     24c:	dc3a                	sw	a4,56(sp)
     24e:	de3e                	sw	a5,60(sp)
     250:	c0c2                	sw	a6,64(sp)
     252:	c2c6                	sw	a7,68(sp)
     254:	c4ca                	sw	s2,72(sp)
     256:	c6ce                	sw	s3,76(sp)
     258:	c8d2                	sw	s4,80(sp)
     25a:	cad6                	sw	s5,84(sp)
     25c:	ccda                	sw	s6,88(sp)
     25e:	cede                	sw	s7,92(sp)
     260:	d0e2                	sw	s8,96(sp)
     262:	d2e6                	sw	s9,100(sp)
     264:	d4ea                	sw	s10,104(sp)
     266:	d6ee                	sw	s11,108(sp)
     268:	d8f2                	sw	t3,112(sp)
     26a:	daf6                	sw	t4,116(sp)
     26c:	dcfa                	sw	t5,120(sp)
     26e:	defe                	sw	t6,124(sp)
     270:	0005a103          	lw	sp,0(a1)
     274:	a009                	j	276 <rt_hw_context_switch_exit>

00000276 <rt_hw_context_switch_exit>:
     276:	4502                	lw	a0,0(sp)
     278:	34151073          	csrw	mepc,a0
     27c:	4092                	lw	ra,4(sp)
     27e:	00008537          	lui	a0,0x8
     282:	80050513          	addi	a0,a0,-2048 # 7800 <__muldf3+0x3e6>
     286:	30052073          	csrs	mstatus,a0
     28a:	4522                	lw	a0,8(sp)
     28c:	30052073          	csrs	mstatus,a0
     290:	4242                	lw	tp,16(sp)
     292:	42d2                	lw	t0,20(sp)
     294:	4362                	lw	t1,24(sp)
     296:	43f2                	lw	t2,28(sp)
     298:	5402                	lw	s0,32(sp)
     29a:	5492                	lw	s1,36(sp)
     29c:	5522                	lw	a0,40(sp)
     29e:	55b2                	lw	a1,44(sp)
     2a0:	5642                	lw	a2,48(sp)
     2a2:	56d2                	lw	a3,52(sp)
     2a4:	5762                	lw	a4,56(sp)
     2a6:	57f2                	lw	a5,60(sp)
     2a8:	4806                	lw	a6,64(sp)
     2aa:	4896                	lw	a7,68(sp)
     2ac:	4926                	lw	s2,72(sp)
     2ae:	49b6                	lw	s3,76(sp)
     2b0:	4a46                	lw	s4,80(sp)
     2b2:	4ad6                	lw	s5,84(sp)
     2b4:	4b66                	lw	s6,88(sp)
     2b6:	4bf6                	lw	s7,92(sp)
     2b8:	5c06                	lw	s8,96(sp)
     2ba:	5c96                	lw	s9,100(sp)
     2bc:	5d26                	lw	s10,104(sp)
     2be:	5db6                	lw	s11,108(sp)
     2c0:	5e46                	lw	t3,112(sp)
     2c2:	5ed6                	lw	t4,116(sp)
     2c4:	5f66                	lw	t5,120(sp)
     2c6:	5ff6                	lw	t6,124(sp)
     2c8:	6109                	addi	sp,sp,128
     2ca:	30200073          	mret
	...

000002d0 <SW_handler>:
     2d0:	7119                	addi	sp,sp,-128
     2d2:	ca16                	sw	t0,20(sp)
     2d4:	08000293          	li	t0,128
     2d8:	c416                	sw	t0,8(sp)
     2da:	02000293          	li	t0,32
     2de:	8042a073          	csrs	0x804,t0
     2e2:	c206                	sw	ra,4(sp)
     2e4:	c812                	sw	tp,16(sp)
     2e6:	cc1a                	sw	t1,24(sp)
     2e8:	ce1e                	sw	t2,28(sp)
     2ea:	d022                	sw	s0,32(sp)
     2ec:	d226                	sw	s1,36(sp)
     2ee:	d42a                	sw	a0,40(sp)
     2f0:	d62e                	sw	a1,44(sp)
     2f2:	d832                	sw	a2,48(sp)
     2f4:	da36                	sw	a3,52(sp)
     2f6:	dc3a                	sw	a4,56(sp)
     2f8:	de3e                	sw	a5,60(sp)
     2fa:	c0c2                	sw	a6,64(sp)
     2fc:	c2c6                	sw	a7,68(sp)
     2fe:	c4ca                	sw	s2,72(sp)
     300:	c6ce                	sw	s3,76(sp)
     302:	c8d2                	sw	s4,80(sp)
     304:	cad6                	sw	s5,84(sp)
     306:	ccda                	sw	s6,88(sp)
     308:	cede                	sw	s7,92(sp)
     30a:	d0e2                	sw	s8,96(sp)
     30c:	d2e6                	sw	s9,100(sp)
     30e:	d4ea                	sw	s10,104(sp)
     310:	d6ee                	sw	s11,108(sp)
     312:	d8f2                	sw	t3,112(sp)
     314:	daf6                	sw	t4,116(sp)
     316:	dcfa                	sw	t5,120(sp)
     318:	defe                	sw	t6,124(sp)
     31a:	34011173          	csrrw	sp,mscratch,sp
     31e:	618000ef          	jal	ra,936 <rt_interrupt_enter>
     322:	093010ef          	jal	ra,1bb4 <sw_clearpend>
     326:	63c000ef          	jal	ra,962 <rt_interrupt_leave>
     32a:	34011173          	csrrw	sp,mscratch,sp
     32e:	8d818413          	addi	s0,gp,-1832 # 200003f8 <rt_thread_switch_interrupt_flag>
     332:	00042903          	lw	s2,0(s0)
     336:	02090463          	beqz	s2,35e <SW_handler+0x8e>
     33a:	00042023          	sw	zero,0(s0)
     33e:	34102573          	csrr	a0,mepc
     342:	c02a                	sw	a0,0(sp)
     344:	8d018413          	addi	s0,gp,-1840 # 200003f0 <rt_interrupt_from_thread>
     348:	4004                	lw	s1,0(s0)
     34a:	0024a023          	sw	sp,0(s1)
     34e:	8d418413          	addi	s0,gp,-1836 # 200003f4 <rt_interrupt_to_thread>
     352:	4004                	lw	s1,0(s0)
     354:	0004a103          	lw	sp,0(s1)
     358:	4502                	lw	a0,0(sp)
     35a:	34151073          	csrw	mepc,a0
     35e:	4092                	lw	ra,4(sp)
     360:	000082b7          	lui	t0,0x8
     364:	80028293          	addi	t0,t0,-2048 # 7800 <__muldf3+0x3e6>
     368:	3002a073          	csrs	mstatus,t0
     36c:	42a2                	lw	t0,8(sp)
     36e:	3002a073          	csrs	mstatus,t0
     372:	4242                	lw	tp,16(sp)
     374:	42d2                	lw	t0,20(sp)
     376:	4362                	lw	t1,24(sp)
     378:	43f2                	lw	t2,28(sp)
     37a:	5402                	lw	s0,32(sp)
     37c:	5492                	lw	s1,36(sp)
     37e:	5522                	lw	a0,40(sp)
     380:	55b2                	lw	a1,44(sp)
     382:	5642                	lw	a2,48(sp)
     384:	56d2                	lw	a3,52(sp)
     386:	5762                	lw	a4,56(sp)
     388:	57f2                	lw	a5,60(sp)
     38a:	4806                	lw	a6,64(sp)
     38c:	4896                	lw	a7,68(sp)
     38e:	4926                	lw	s2,72(sp)
     390:	49b6                	lw	s3,76(sp)
     392:	4a46                	lw	s4,80(sp)
     394:	4ad6                	lw	s5,84(sp)
     396:	4b66                	lw	s6,88(sp)
     398:	4bf6                	lw	s7,92(sp)
     39a:	5c06                	lw	s8,96(sp)
     39c:	5c96                	lw	s9,100(sp)
     39e:	5d26                	lw	s10,104(sp)
     3a0:	5db6                	lw	s11,108(sp)
     3a2:	5e46                	lw	t3,112(sp)
     3a4:	5ed6                	lw	t4,116(sp)
     3a6:	5f66                	lw	t5,120(sp)
     3a8:	5ff6                	lw	t6,124(sp)
     3aa:	6109                	addi	sp,sp,128
     3ac:	30200073          	mret
	...

000003b2 <__riscv_save_12>:
     3b2:	7139                	addi	sp,sp,-64
     3b4:	4301                	li	t1,0
     3b6:	c66e                	sw	s11,12(sp)
     3b8:	a019                	j	3be <__riscv_save_10+0x4>

000003ba <__riscv_save_10>:
     3ba:	7139                	addi	sp,sp,-64
     3bc:	5341                	li	t1,-16
     3be:	c86a                	sw	s10,16(sp)
     3c0:	ca66                	sw	s9,20(sp)
     3c2:	cc62                	sw	s8,24(sp)
     3c4:	ce5e                	sw	s7,28(sp)
     3c6:	a019                	j	3cc <__riscv_save_4+0x4>

000003c8 <__riscv_save_4>:
     3c8:	7139                	addi	sp,sp,-64
     3ca:	5301                	li	t1,-32
     3cc:	d05a                	sw	s6,32(sp)
     3ce:	d256                	sw	s5,36(sp)
     3d0:	d452                	sw	s4,40(sp)
     3d2:	d64e                	sw	s3,44(sp)
     3d4:	d84a                	sw	s2,48(sp)
     3d6:	da26                	sw	s1,52(sp)
     3d8:	dc22                	sw	s0,56(sp)
     3da:	de06                	sw	ra,60(sp)
     3dc:	40610133          	sub	sp,sp,t1
     3e0:	8282                	jr	t0

000003e2 <__riscv_save_0>:
     3e2:	1141                	addi	sp,sp,-16
     3e4:	c04a                	sw	s2,0(sp)
     3e6:	c226                	sw	s1,4(sp)
     3e8:	c422                	sw	s0,8(sp)
     3ea:	c606                	sw	ra,12(sp)
     3ec:	8282                	jr	t0

000003ee <__riscv_restore_12>:
     3ee:	4db2                	lw	s11,12(sp)
     3f0:	0141                	addi	sp,sp,16

000003f2 <__riscv_restore_10>:
     3f2:	4d02                	lw	s10,0(sp)
     3f4:	4c92                	lw	s9,4(sp)
     3f6:	4c22                	lw	s8,8(sp)
     3f8:	4bb2                	lw	s7,12(sp)
     3fa:	0141                	addi	sp,sp,16

000003fc <__riscv_restore_4>:
     3fc:	4b02                	lw	s6,0(sp)
     3fe:	4a92                	lw	s5,4(sp)
     400:	4a22                	lw	s4,8(sp)
     402:	49b2                	lw	s3,12(sp)
     404:	0141                	addi	sp,sp,16

00000406 <__riscv_restore_0>:
     406:	4902                	lw	s2,0(sp)
     408:	4492                	lw	s1,4(sp)
     40a:	4422                	lw	s0,8(sp)
     40c:	40b2                	lw	ra,12(sp)
     40e:	0141                	addi	sp,sp,16
     410:	8082                	ret

00000412 <memset>:
     412:	433d                	li	t1,15
     414:	872a                	mv	a4,a0
     416:	02c37363          	bgeu	t1,a2,43c <memset+0x2a>
     41a:	00f77793          	andi	a5,a4,15
     41e:	efbd                	bnez	a5,49c <memset+0x8a>
     420:	e5ad                	bnez	a1,48a <memset+0x78>
     422:	ff067693          	andi	a3,a2,-16
     426:	8a3d                	andi	a2,a2,15
     428:	96ba                	add	a3,a3,a4
     42a:	c30c                	sw	a1,0(a4)
     42c:	c34c                	sw	a1,4(a4)
     42e:	c70c                	sw	a1,8(a4)
     430:	c74c                	sw	a1,12(a4)
     432:	0741                	addi	a4,a4,16
     434:	fed76be3          	bltu	a4,a3,42a <memset+0x18>
     438:	e211                	bnez	a2,43c <memset+0x2a>
     43a:	8082                	ret
     43c:	40c306b3          	sub	a3,t1,a2
     440:	068a                	slli	a3,a3,0x2
     442:	00000297          	auipc	t0,0x0
     446:	9696                	add	a3,a3,t0
     448:	00a68067          	jr	10(a3)
     44c:	00b70723          	sb	a1,14(a4)
     450:	00b706a3          	sb	a1,13(a4)
     454:	00b70623          	sb	a1,12(a4)
     458:	00b705a3          	sb	a1,11(a4)
     45c:	00b70523          	sb	a1,10(a4)
     460:	00b704a3          	sb	a1,9(a4)
     464:	00b70423          	sb	a1,8(a4)
     468:	00b703a3          	sb	a1,7(a4)
     46c:	00b70323          	sb	a1,6(a4)
     470:	00b702a3          	sb	a1,5(a4)
     474:	00b70223          	sb	a1,4(a4)
     478:	00b701a3          	sb	a1,3(a4)
     47c:	00b70123          	sb	a1,2(a4)
     480:	00b700a3          	sb	a1,1(a4)
     484:	00b70023          	sb	a1,0(a4)
     488:	8082                	ret
     48a:	0ff5f593          	andi	a1,a1,255
     48e:	00859693          	slli	a3,a1,0x8
     492:	8dd5                	or	a1,a1,a3
     494:	01059693          	slli	a3,a1,0x10
     498:	8dd5                	or	a1,a1,a3
     49a:	b761                	j	422 <memset+0x10>
     49c:	00279693          	slli	a3,a5,0x2
     4a0:	00000297          	auipc	t0,0x0
     4a4:	9696                	add	a3,a3,t0
     4a6:	8286                	mv	t0,ra
     4a8:	fa8680e7          	jalr	-88(a3)
     4ac:	8096                	mv	ra,t0
     4ae:	17c1                	addi	a5,a5,-16
     4b0:	8f1d                	sub	a4,a4,a5
     4b2:	963e                	add	a2,a2,a5
     4b4:	f8c374e3          	bgeu	t1,a2,43c <memset+0x2a>
     4b8:	b7a5                	j	420 <memset+0xe>

000004ba <rt_tick_get>:
     4ba:	8481a503          	lw	a0,-1976(gp) # 20000368 <_edata>
     4be:	8082                	ret

000004c0 <rt_tick_increase>:
     4c0:	f23ff2ef          	jal	t0,3e2 <__riscv_save_0>
     4c4:	84818793          	addi	a5,gp,-1976 # 20000368 <_edata>
     4c8:	4398                	lw	a4,0(a5)
     4ca:	0705                	addi	a4,a4,1
     4cc:	c398                	sw	a4,0(a5)
     4ce:	31c010ef          	jal	ra,17ea <rt_thread_self>
     4d2:	453c                	lw	a5,72(a0)
     4d4:	17fd                	addi	a5,a5,-1
     4d6:	c53c                	sw	a5,72(a0)
     4d8:	e789                	bnez	a5,4e2 <rt_tick_increase+0x22>
     4da:	417c                	lw	a5,68(a0)
     4dc:	c53c                	sw	a5,72(a0)
     4de:	358010ef          	jal	ra,1836 <rt_thread_yield>
     4e2:	608010ef          	jal	ra,1aea <rt_timer_check>
     4e6:	b705                	j	406 <__riscv_restore_0>

000004e8 <rt_tick_from_millisecond>:
     4e8:	02054263          	bltz	a0,50c <rt_tick_from_millisecond+0x24>
     4ec:	3e800793          	li	a5,1000
     4f0:	02f54733          	div	a4,a0,a5
     4f4:	02f56533          	rem	a0,a0,a5
     4f8:	02f50533          	mul	a0,a0,a5
     4fc:	3e750513          	addi	a0,a0,999
     500:	02f54533          	div	a0,a0,a5
     504:	02f70733          	mul	a4,a4,a5
     508:	953a                	add	a0,a0,a4
     50a:	8082                	ret
     50c:	557d                	li	a0,-1
     50e:	8082                	ret

00000510 <rti_start>:
     510:	4501                	li	a0,0
     512:	8082                	ret

00000514 <rti_end>:
     514:	4501                	li	a0,0
     516:	8082                	ret

00000518 <rti_board_start>:
     518:	4501                	li	a0,0
     51a:	8082                	ret

0000051c <rti_board_end>:
     51c:	4501                	li	a0,0
     51e:	8082                	ret

00000520 <rt_components_board_init>:
     520:	ec3ff2ef          	jal	t0,3e2 <__riscv_save_0>
     524:	6435                	lui	s0,0xd
     526:	64b5                	lui	s1,0xd
     528:	10040413          	addi	s0,s0,256 # d100 <__rt_init_rti_board_start>
     52c:	10c48493          	addi	s1,s1,268 # d10c <__rt_init_rti_board_end>
     530:	00946363          	bltu	s0,s1,536 <rt_components_board_init+0x16>
     534:	bdc9                	j	406 <__riscv_restore_0>
     536:	401c                	lw	a5,0(s0)
     538:	0411                	addi	s0,s0,4
     53a:	9782                	jalr	a5
     53c:	bfd5                	j	530 <rt_components_board_init+0x10>

0000053e <rt_components_init>:
     53e:	ea5ff2ef          	jal	t0,3e2 <__riscv_save_0>
     542:	6435                	lui	s0,0xd
     544:	64b5                	lui	s1,0xd
     546:	10c40413          	addi	s0,s0,268 # d10c <__rt_init_rti_board_end>
     54a:	11448493          	addi	s1,s1,276 # d114 <__rt_init_rti_end>
     54e:	00946363          	bltu	s0,s1,554 <rt_components_init+0x16>
     552:	bd55                	j	406 <__riscv_restore_0>
     554:	401c                	lw	a5,0(s0)
     556:	0411                	addi	s0,s0,4
     558:	9782                	jalr	a5
     55a:	bfd5                	j	54e <rt_components_init+0x10>

0000055c <main_thread_entry>:
     55c:	e87ff2ef          	jal	t0,3e2 <__riscv_save_0>
     560:	3ff9                	jal	53e <rt_components_init>
     562:	2c8060ef          	jal	ra,682a <main>
     566:	b545                	j	406 <__riscv_restore_0>

00000568 <rt_application_init>:
     568:	e7bff2ef          	jal	t0,3e2 <__riscv_save_0>
     56c:	000005b7          	lui	a1,0x0
     570:	0000a537          	lui	a0,0xa
     574:	47d1                	li	a5,20
     576:	4715                	li	a4,5
     578:	20000693          	li	a3,512
     57c:	4601                	li	a2,0
     57e:	55c58593          	addi	a1,a1,1372 # 55c <main_thread_entry>
     582:	e7850513          	addi	a0,a0,-392 # 9e78 <_read+0x80>
     586:	26a010ef          	jal	ra,17f0 <rt_thread_create>
     58a:	3e2010ef          	jal	ra,196c <rt_thread_startup>
     58e:	bda5                	j	406 <__riscv_restore_0>

00000590 <rtthread_startup>:
     590:	e53ff2ef          	jal	t0,3e2 <__riscv_save_0>
     594:	62e010ef          	jal	ra,1bc2 <rt_hw_interrupt_disable>
     598:	1bf020ef          	jal	ra,2f56 <rt_hw_board_init>
     59c:	2bb000ef          	jal	ra,1056 <rt_show_version>
     5a0:	5c2010ef          	jal	ra,1b62 <rt_system_timer_init>
     5a4:	785000ef          	jal	ra,1528 <rt_system_scheduler_init>
     5a8:	37c1                	jal	568 <rt_application_init>
     5aa:	5c2010ef          	jal	ra,1b6c <rt_system_timer_thread_init>
     5ae:	2c01                	jal	7be <rt_thread_idle_init>
     5b0:	7a7000ef          	jal	ra,1556 <rt_system_scheduler_start>
     5b4:	4501                	li	a0,0
     5b6:	bd81                	j	406 <__riscv_restore_0>

000005b8 <entry>:
     5b8:	e2bff2ef          	jal	t0,3e2 <__riscv_save_0>
     5bc:	3fd1                	jal	590 <rtthread_startup>
     5be:	4501                	li	a0,0
     5c0:	b599                	j	406 <__riscv_restore_0>

000005c2 <rt_device_find>:
     5c2:	e07ff2ef          	jal	t0,3c8 <__riscv_save_4>
     5c6:	89aa                	mv	s3,a0
     5c8:	222010ef          	jal	ra,17ea <rt_thread_self>
     5cc:	c119                	beqz	a0,5d2 <rt_device_find+0x10>
     5ce:	0a8010ef          	jal	ra,1676 <rt_enter_critical>
     5d2:	4525                	li	a0,9
     5d4:	60f000ef          	jal	ra,13e2 <rt_object_get_information>
     5d8:	4144                	lw	s1,4(a0)
     5da:	00450413          	addi	s0,a0,4
     5de:	00849663          	bne	s1,s0,5ea <rt_device_find+0x28>
     5e2:	208010ef          	jal	ra,17ea <rt_thread_self>
     5e6:	4901                	li	s2,0
     5e8:	a811                	j	5fc <rt_device_find+0x3a>
     5ea:	ff448913          	addi	s2,s1,-12
     5ee:	4621                	li	a2,8
     5f0:	85ce                	mv	a1,s3
     5f2:	854a                	mv	a0,s2
     5f4:	2d1d                	jal	c2a <rt_strncmp>
     5f6:	e901                	bnez	a0,606 <rt_device_find+0x44>
     5f8:	1f2010ef          	jal	ra,17ea <rt_thread_self>
     5fc:	c119                	beqz	a0,602 <rt_device_find+0x40>
     5fe:	08e010ef          	jal	ra,168c <rt_exit_critical>
     602:	854a                	mv	a0,s2
     604:	bbe5                	j	3fc <__riscv_restore_4>
     606:	4084                	lw	s1,0(s1)
     608:	bfd9                	j	5de <rt_device_find+0x1c>

0000060a <rt_device_register>:
     60a:	e509                	bnez	a0,614 <rt_device_register+0xa>
     60c:	557d                	li	a0,-1
     60e:	8082                	ret
     610:	557d                	li	a0,-1
     612:	bbd5                	j	406 <__riscv_restore_0>
     614:	dcfff2ef          	jal	t0,3e2 <__riscv_save_0>
     618:	842a                	mv	s0,a0
     61a:	852e                	mv	a0,a1
     61c:	8932                	mv	s2,a2
     61e:	84ae                	mv	s1,a1
     620:	374d                	jal	5c2 <rt_device_find>
     622:	f57d                	bnez	a0,610 <rt_device_register+0x6>
     624:	8522                	mv	a0,s0
     626:	8626                	mv	a2,s1
     628:	45a5                	li	a1,9
     62a:	5e3000ef          	jal	ra,140c <rt_object_init>
     62e:	4501                	li	a0,0
     630:	01241c23          	sh	s2,24(s0)
     634:	00040e23          	sb	zero,28(s0)
     638:	00041d23          	sh	zero,26(s0)
     63c:	bfd9                	j	612 <rt_device_register+0x8>

0000063e <rt_device_open>:
     63e:	da5ff2ef          	jal	t0,3e2 <__riscv_save_0>
     642:	2d1e                	lhu	a5,24(a0)
     644:	1141                	addi	sp,sp,-16
     646:	842a                	mv	s0,a0
     648:	8bc1                	andi	a5,a5,16
     64a:	e79d                	bnez	a5,678 <rt_device_open+0x3a>
     64c:	551c                	lw	a5,40(a0)
     64e:	c38d                	beqz	a5,670 <rt_device_open+0x32>
     650:	c62e                	sw	a1,12(sp)
     652:	9782                	jalr	a5
     654:	84aa                	mv	s1,a0
     656:	45b2                	lw	a1,12(sp)
     658:	cd01                	beqz	a0,670 <rt_device_open+0x32>
     65a:	862a                	mv	a2,a0
     65c:	0000a537          	lui	a0,0xa
     660:	85a2                	mv	a1,s0
     662:	e8050513          	addi	a0,a0,-384 # 9e80 <_read+0x88>
     666:	189000ef          	jal	ra,fee <rt_kprintf>
     66a:	8526                	mv	a0,s1
     66c:	0141                	addi	sp,sp,16
     66e:	bb61                	j	406 <__riscv_restore_0>
     670:	2c1e                	lhu	a5,24(s0)
     672:	0107e793          	ori	a5,a5,16
     676:	ac1e                	sh	a5,24(s0)
     678:	2c1e                	lhu	a5,24(s0)
     67a:	8ba1                	andi	a5,a5,8
     67c:	c789                	beqz	a5,686 <rt_device_open+0x48>
     67e:	2c3e                	lhu	a5,26(s0)
     680:	54e5                	li	s1,-7
     682:	8ba1                	andi	a5,a5,8
     684:	f3fd                	bnez	a5,66a <rt_device_open+0x2c>
     686:	545c                	lw	a5,44(s0)
     688:	cf89                	beqz	a5,6a2 <rt_device_open+0x64>
     68a:	8522                	mv	a0,s0
     68c:	9782                	jalr	a5
     68e:	84aa                	mv	s1,a0
     690:	e105                	bnez	a0,6b0 <rt_device_open+0x72>
     692:	2c3e                	lhu	a5,26(s0)
     694:	0087e793          	ori	a5,a5,8
     698:	ac3e                	sh	a5,26(s0)
     69a:	2c5c                	lbu	a5,28(s0)
     69c:	0785                	addi	a5,a5,1
     69e:	ac5c                	sb	a5,28(s0)
     6a0:	b7e9                	j	66a <rt_device_open+0x2c>
     6a2:	6785                	lui	a5,0x1
     6a4:	f0f78793          	addi	a5,a5,-241 # f0f <rt_vsnprintf+0x2a9>
     6a8:	8dfd                	and	a1,a1,a5
     6aa:	ac2e                	sh	a1,26(s0)
     6ac:	4481                	li	s1,0
     6ae:	b7d5                	j	692 <rt_device_open+0x54>
     6b0:	57e9                	li	a5,-6
     6b2:	faf51ce3          	bne	a0,a5,66a <rt_device_open+0x2c>
     6b6:	bff1                	j	692 <rt_device_open+0x54>

000006b8 <rt_device_close>:
     6b8:	2d5c                	lbu	a5,28(a0)
     6ba:	cb85                	beqz	a5,6ea <rt_device_close+0x32>
     6bc:	d27ff2ef          	jal	t0,3e2 <__riscv_save_0>
     6c0:	17fd                	addi	a5,a5,-1
     6c2:	0ff7f793          	andi	a5,a5,255
     6c6:	ad5c                	sb	a5,28(a0)
     6c8:	842a                	mv	s0,a0
     6ca:	4701                	li	a4,0
     6cc:	ef89                	bnez	a5,6e6 <rt_device_close+0x2e>
     6ce:	591c                	lw	a5,48(a0)
     6d0:	e789                	bnez	a5,6da <rt_device_close+0x22>
     6d2:	4701                	li	a4,0
     6d4:	00041d23          	sh	zero,26(s0)
     6d8:	a039                	j	6e6 <rt_device_close+0x2e>
     6da:	9782                	jalr	a5
     6dc:	872a                	mv	a4,a0
     6de:	d975                	beqz	a0,6d2 <rt_device_close+0x1a>
     6e0:	57e9                	li	a5,-6
     6e2:	fef509e3          	beq	a0,a5,6d4 <rt_device_close+0x1c>
     6e6:	853a                	mv	a0,a4
     6e8:	bb39                	j	406 <__riscv_restore_0>
     6ea:	577d                	li	a4,-1
     6ec:	853a                	mv	a0,a4
     6ee:	8082                	ret

000006f0 <rt_device_read>:
     6f0:	cf3ff2ef          	jal	t0,3e2 <__riscv_save_0>
     6f4:	2d58                	lbu	a4,28(a0)
     6f6:	e709                	bnez	a4,700 <rt_device_read+0x10>
     6f8:	557d                	li	a0,-1
     6fa:	2921                	jal	b12 <rt_set_errno>
     6fc:	4501                	li	a0,0
     6fe:	a021                	j	706 <rt_device_read+0x16>
     700:	595c                	lw	a5,52(a0)
     702:	c399                	beqz	a5,708 <rt_device_read+0x18>
     704:	9782                	jalr	a5
     706:	b301                	j	406 <__riscv_restore_0>
     708:	5569                	li	a0,-6
     70a:	bfc5                	j	6fa <rt_device_read+0xa>

0000070c <rt_device_write>:
     70c:	cd7ff2ef          	jal	t0,3e2 <__riscv_save_0>
     710:	2d58                	lbu	a4,28(a0)
     712:	e709                	bnez	a4,71c <rt_device_write+0x10>
     714:	557d                	li	a0,-1
     716:	2ef5                	jal	b12 <rt_set_errno>
     718:	4501                	li	a0,0
     71a:	a021                	j	722 <rt_device_write+0x16>
     71c:	5d1c                	lw	a5,56(a0)
     71e:	c399                	beqz	a5,724 <rt_device_write+0x18>
     720:	9782                	jalr	a5
     722:	b1d5                	j	406 <__riscv_restore_0>
     724:	5569                	li	a0,-6
     726:	bfc5                	j	716 <rt_device_write+0xa>

00000728 <rt_device_set_rx_indicate>:
     728:	d10c                	sw	a1,32(a0)
     72a:	4501                	li	a0,0
     72c:	8082                	ret

0000072e <rt_thread_idle_excute>:
     72e:	c9bff2ef          	jal	t0,3c8 <__riscv_save_4>
     732:	8a418993          	addi	s3,gp,-1884 # 200003c4 <rt_thread_defunct>
     736:	4a85                	li	s5,1
     738:	8a41a783          	lw	a5,-1884(gp) # 200003c4 <rt_thread_defunct>
     73c:	05378663          	beq	a5,s3,788 <rt_thread_idle_excute+0x5a>
     740:	482010ef          	jal	ra,1bc2 <rt_hw_interrupt_disable>
     744:	8a41a783          	lw	a5,-1884(gp) # 200003c4 <rt_thread_defunct>
     748:	8a2a                	mv	s4,a0
     74a:	03378d63          	beq	a5,s3,784 <rt_thread_idle_excute+0x56>
     74e:	8a41a403          	lw	s0,-1884(gp) # 200003c4 <rt_thread_defunct>
     752:	405c                	lw	a5,4(s0)
     754:	4018                	lw	a4,0(s0)
     756:	fec40913          	addi	s2,s0,-20
     75a:	c35c                	sw	a5,4(a4)
     75c:	c398                	sw	a4,0(a5)
     75e:	c040                	sw	s0,4(s0)
     760:	c000                	sw	s0,0(s0)
     762:	715000ef          	jal	ra,1676 <rt_enter_critical>
     766:	507c                	lw	a5,100(s0)
     768:	c399                	beqz	a5,76e <rt_thread_idle_excute+0x40>
     76a:	854a                	mv	a0,s2
     76c:	9782                	jalr	a5
     76e:	854a                	mv	a0,s2
     770:	5b1000ef          	jal	ra,1520 <rt_object_is_systemobject>
     774:	01551b63          	bne	a0,s5,78a <rt_thread_idle_excute+0x5c>
     778:	854a                	mv	a0,s2
     77a:	4f1000ef          	jal	ra,146a <rt_object_detach>
     77e:	70f000ef          	jal	ra,168c <rt_exit_critical>
     782:	8552                	mv	a0,s4
     784:	44a010ef          	jal	ra,1bce <rt_hw_interrupt_enable>
     788:	b995                	j	3fc <__riscv_restore_4>
     78a:	703000ef          	jal	ra,168c <rt_exit_critical>
     78e:	8552                	mv	a0,s4
     790:	43e010ef          	jal	ra,1bce <rt_hw_interrupt_enable>
     794:	4848                	lw	a0,20(s0)
     796:	3a3000ef          	jal	ra,1338 <rt_free>
     79a:	854a                	mv	a0,s2
     79c:	553000ef          	jal	ra,14ee <rt_object_delete>
     7a0:	bf61                	j	738 <rt_thread_idle_excute+0xa>

000007a2 <rt_thread_idle_entry>:
     7a2:	c41ff2ef          	jal	t0,3e2 <__riscv_save_0>
     7a6:	9c018413          	addi	s0,gp,-1600 # 200004e0 <idle_hook_list>
     7aa:	01040913          	addi	s2,s0,16
     7ae:	401c                	lw	a5,0(s0)
     7b0:	c391                	beqz	a5,7b4 <rt_thread_idle_entry+0x12>
     7b2:	9782                	jalr	a5
     7b4:	0411                	addi	s0,s0,4
     7b6:	ff241ce3          	bne	s0,s2,7ae <rt_thread_idle_entry+0xc>
     7ba:	3f95                	jal	72e <rt_thread_idle_excute>
     7bc:	b7ed                	j	7a6 <rt_thread_idle_entry+0x4>

000007be <rt_thread_idle_init>:
     7be:	c25ff2ef          	jal	t0,3e2 <__riscv_save_0>
     7c2:	00000637          	lui	a2,0x0
     7c6:	0000a5b7          	lui	a1,0xa
     7ca:	02000893          	li	a7,32
     7ce:	483d                	li	a6,15
     7d0:	20000793          	li	a5,512
     7d4:	9d018713          	addi	a4,gp,-1584 # 200004f0 <rt_thread_stack>
     7d8:	4681                	li	a3,0
     7da:	7a260613          	addi	a2,a2,1954 # 7a2 <rt_thread_idle_entry>
     7de:	eb858593          	addi	a1,a1,-328 # 9eb8 <_read+0xc0>
     7e2:	94018513          	addi	a0,gp,-1728 # 20000460 <idle>
     7e6:	7d3000ef          	jal	ra,17b8 <rt_thread_init>
     7ea:	94018513          	addi	a0,gp,-1728 # 20000460 <idle>
     7ee:	17e010ef          	jal	ra,196c <rt_thread_startup>
     7f2:	b911                	j	406 <__riscv_restore_0>

000007f4 <rt_ipc_list_suspend>:
     7f4:	befff2ef          	jal	t0,3e2 <__riscv_save_0>
     7f8:	1141                	addi	sp,sp,-16
     7fa:	842a                	mv	s0,a0
     7fc:	852e                	mv	a0,a1
     7fe:	c632                	sw	a2,12(sp)
     800:	c42e                	sw	a1,8(sp)
     802:	086010ef          	jal	ra,1888 <rt_thread_suspend>
     806:	4632                	lw	a2,12(sp)
     808:	45a2                	lw	a1,8(sp)
     80a:	c619                	beqz	a2,818 <__stack_size+0x18>
     80c:	4785                	li	a5,1
     80e:	00f60d63          	beq	a2,a5,828 <__stack_size+0x28>
     812:	4501                	li	a0,0
     814:	0141                	addi	sp,sp,16
     816:	bec5                	j	406 <__riscv_restore_0>
     818:	4058                	lw	a4,4(s0)
     81a:	01458793          	addi	a5,a1,20
     81e:	c31c                	sw	a5,0(a4)
     820:	cd98                	sw	a4,24(a1)
     822:	c05c                	sw	a5,4(s0)
     824:	c9c0                	sw	s0,20(a1)
     826:	b7f5                	j	812 <__stack_size+0x12>
     828:	401c                	lw	a5,0(s0)
     82a:	00878863          	beq	a5,s0,83a <__stack_size+0x3a>
     82e:	0355c683          	lbu	a3,53(a1)
     832:	0217c703          	lbu	a4,33(a5)
     836:	00e6fa63          	bgeu	a3,a4,84a <__stack_size+0x4a>
     83a:	43d4                	lw	a3,4(a5)
     83c:	01458713          	addi	a4,a1,20
     840:	c298                	sw	a4,0(a3)
     842:	cd94                	sw	a3,24(a1)
     844:	c3d8                	sw	a4,4(a5)
     846:	c9dc                	sw	a5,20(a1)
     848:	b7e9                	j	812 <__stack_size+0x12>
     84a:	439c                	lw	a5,0(a5)
     84c:	bff9                	j	82a <__stack_size+0x2a>

0000084e <rt_sem_init>:
     84e:	b95ff2ef          	jal	t0,3e2 <__riscv_save_0>
     852:	1141                	addi	sp,sp,-16
     854:	84b2                	mv	s1,a2
     856:	862e                	mv	a2,a1
     858:	4589                	li	a1,2
     85a:	842a                	mv	s0,a0
     85c:	c636                	sw	a3,12(sp)
     85e:	3af000ef          	jal	ra,140c <rt_object_init>
     862:	46b2                	lw	a3,12(sp)
     864:	01440793          	addi	a5,s0,20
     868:	cc1c                	sw	a5,24(s0)
     86a:	c85c                	sw	a5,20(s0)
     86c:	ac46                	sh	s1,28(s0)
     86e:	b414                	sb	a3,9(s0)
     870:	4501                	li	a0,0
     872:	0141                	addi	sp,sp,16
     874:	be49                	j	406 <__riscv_restore_0>

00000876 <rt_sem_take>:
     876:	b53ff2ef          	jal	t0,3c8 <__riscv_save_4>
     87a:	8901a783          	lw	a5,-1904(gp) # 200003b0 <rt_object_trytake_hook>
     87e:	1141                	addi	sp,sp,-16
     880:	c62e                	sw	a1,12(sp)
     882:	842a                	mv	s0,a0
     884:	c391                	beqz	a5,888 <rt_sem_take+0x12>
     886:	9782                	jalr	a5
     888:	33a010ef          	jal	ra,1bc2 <rt_hw_interrupt_disable>
     88c:	2c5e                	lhu	a5,28(s0)
     88e:	89aa                	mv	s3,a0
     890:	cf89                	beqz	a5,8aa <rt_sem_take+0x34>
     892:	17fd                	addi	a5,a5,-1
     894:	ac5e                	sh	a5,28(s0)
     896:	338010ef          	jal	ra,1bce <rt_hw_interrupt_enable>
     89a:	88c1a783          	lw	a5,-1908(gp) # 200003ac <rt_object_take_hook>
     89e:	4501                	li	a0,0
     8a0:	cb91                	beqz	a5,8b4 <rt_sem_take+0x3e>
     8a2:	8522                	mv	a0,s0
     8a4:	9782                	jalr	a5
     8a6:	4501                	li	a0,0
     8a8:	a031                	j	8b4 <rt_sem_take+0x3e>
     8aa:	47b2                	lw	a5,12(sp)
     8ac:	e791                	bnez	a5,8b8 <rt_sem_take+0x42>
     8ae:	320010ef          	jal	ra,1bce <rt_hw_interrupt_enable>
     8b2:	5579                	li	a0,-2
     8b4:	0141                	addi	sp,sp,16
     8b6:	b699                	j	3fc <__riscv_restore_4>
     8b8:	733000ef          	jal	ra,17ea <rt_thread_self>
     8bc:	02052823          	sw	zero,48(a0)
     8c0:	3410                	lbu	a2,9(s0)
     8c2:	85aa                	mv	a1,a0
     8c4:	84aa                	mv	s1,a0
     8c6:	01440513          	addi	a0,s0,20
     8ca:	372d                	jal	7f4 <rt_ipc_list_suspend>
     8cc:	47b2                	lw	a5,12(sp)
     8ce:	00f05c63          	blez	a5,8e6 <rt_sem_take+0x70>
     8d2:	04c48913          	addi	s2,s1,76
     8d6:	0070                	addi	a2,sp,12
     8d8:	4581                	li	a1,0
     8da:	854a                	mv	a0,s2
     8dc:	1d6010ef          	jal	ra,1ab2 <rt_timer_control>
     8e0:	854a                	mv	a0,s2
     8e2:	120010ef          	jal	ra,1a02 <rt_timer_start>
     8e6:	854e                	mv	a0,s3
     8e8:	2e6010ef          	jal	ra,1bce <rt_hw_interrupt_enable>
     8ec:	497000ef          	jal	ra,1582 <rt_schedule>
     8f0:	5888                	lw	a0,48(s1)
     8f2:	d545                	beqz	a0,89a <rt_sem_take+0x24>
     8f4:	b7c1                	j	8b4 <rt_sem_take+0x3e>

000008f6 <rt_sem_release>:
     8f6:	aedff2ef          	jal	t0,3e2 <__riscv_save_0>
     8fa:	8881a783          	lw	a5,-1912(gp) # 200003a8 <rt_object_put_hook>
     8fe:	842a                	mv	s0,a0
     900:	c391                	beqz	a5,904 <rt_sem_release+0xe>
     902:	9782                	jalr	a5
     904:	2be010ef          	jal	ra,1bc2 <rt_hw_interrupt_disable>
     908:	84aa                	mv	s1,a0
     90a:	4848                	lw	a0,20(s0)
     90c:	01440793          	addi	a5,s0,20
     910:	00f50e63          	beq	a0,a5,92c <rt_sem_release+0x36>
     914:	1531                	addi	a0,a0,-20
     916:	00a010ef          	jal	ra,1920 <rt_thread_resume>
     91a:	4405                	li	s0,1
     91c:	8526                	mv	a0,s1
     91e:	2b0010ef          	jal	ra,1bce <rt_hw_interrupt_enable>
     922:	c019                	beqz	s0,928 <rt_sem_release+0x32>
     924:	45f000ef          	jal	ra,1582 <rt_schedule>
     928:	4501                	li	a0,0
     92a:	bcf1                	j	406 <__riscv_restore_0>
     92c:	2c5e                	lhu	a5,28(s0)
     92e:	0785                	addi	a5,a5,1
     930:	ac5e                	sh	a5,28(s0)
     932:	4401                	li	s0,0
     934:	b7e5                	j	91c <rt_sem_release+0x26>

00000936 <rt_interrupt_enter>:
     936:	aadff2ef          	jal	t0,3e2 <__riscv_save_0>
     93a:	1141                	addi	sp,sp,-16
     93c:	286010ef          	jal	ra,1bc2 <rt_hw_interrupt_disable>
     940:	85418713          	addi	a4,gp,-1964 # 20000374 <rt_interrupt_nest>
     944:	231c                	lbu	a5,0(a4)
     946:	0785                	addi	a5,a5,1
     948:	0ff7f793          	andi	a5,a5,255
     94c:	a31c                	sb	a5,0(a4)
     94e:	84c1a783          	lw	a5,-1972(gp) # 2000036c <rt_interrupt_enter_hook>
     952:	c781                	beqz	a5,95a <rt_interrupt_enter+0x24>
     954:	c62a                	sw	a0,12(sp)
     956:	9782                	jalr	a5
     958:	4532                	lw	a0,12(sp)
     95a:	274010ef          	jal	ra,1bce <rt_hw_interrupt_enable>
     95e:	0141                	addi	sp,sp,16
     960:	b45d                	j	406 <__riscv_restore_0>

00000962 <rt_interrupt_leave>:
     962:	a81ff2ef          	jal	t0,3e2 <__riscv_save_0>
     966:	1141                	addi	sp,sp,-16
     968:	25a010ef          	jal	ra,1bc2 <rt_hw_interrupt_disable>
     96c:	85418713          	addi	a4,gp,-1964 # 20000374 <rt_interrupt_nest>
     970:	231c                	lbu	a5,0(a4)
     972:	17fd                	addi	a5,a5,-1
     974:	0ff7f793          	andi	a5,a5,255
     978:	a31c                	sb	a5,0(a4)
     97a:	8501a783          	lw	a5,-1968(gp) # 20000370 <rt_interrupt_leave_hook>
     97e:	c781                	beqz	a5,986 <rt_interrupt_leave+0x24>
     980:	c62a                	sw	a0,12(sp)
     982:	9782                	jalr	a5
     984:	4532                	lw	a0,12(sp)
     986:	248010ef          	jal	ra,1bce <rt_hw_interrupt_enable>
     98a:	0141                	addi	sp,sp,16
     98c:	bcad                	j	406 <__riscv_restore_0>

0000098e <rt_interrupt_get_nest>:
     98e:	8541c503          	lbu	a0,-1964(gp) # 20000374 <rt_interrupt_nest>
     992:	8082                	ret

00000994 <print_number>:
     994:	04087893          	andi	a7,a6,64
     998:	1141                	addi	sp,sp,-16
     99a:	00089e63          	bnez	a7,9b6 <print_number+0x22>
     99e:	68a9                	lui	a7,0xa
     9a0:	06488893          	addi	a7,a7,100 # a064 <small_digits.2582>
     9a4:	01087393          	andi	t2,a6,16
     9a8:	00038b63          	beqz	t2,9be <print_number+0x2a>
     9ac:	ffe87813          	andi	a6,a6,-2
     9b0:	02000e93          	li	t4,32
     9b4:	a819                	j	9ca <print_number+0x36>
     9b6:	68a9                	lui	a7,0xa
     9b8:	fc088893          	addi	a7,a7,-64 # 9fc0 <large_digits.2583>
     9bc:	b7e5                	j	9a4 <print_number+0x10>
     9be:	00187313          	andi	t1,a6,1
     9c2:	03000e93          	li	t4,48
     9c6:	fe0305e3          	beqz	t1,9b0 <print_number+0x1c>
     9ca:	00287313          	andi	t1,a6,2
     9ce:	06030e63          	beqz	t1,a4a <print_number+0xb6>
     9d2:	02065863          	bgez	a2,a02 <print_number+0x6e>
     9d6:	40c00633          	neg	a2,a2
     9da:	02d00293          	li	t0,45
     9de:	8e0a                	mv	t3,sp
     9e0:	4f81                	li	t6,0
     9e2:	4f29                	li	t5,10
     9e4:	07e69563          	bne	a3,t5,a4e <print_number+0xba>
     9e8:	02d67333          	remu	t1,a2,a3
     9ec:	02d65633          	divu	a2,a2,a3
     9f0:	9346                	add	t1,t1,a7
     9f2:	00034303          	lbu	t1,0(t1)
     9f6:	0f85                	addi	t6,t6,1
     9f8:	0e05                	addi	t3,t3,1
     9fa:	fe6e0fa3          	sb	t1,-1(t3)
     9fe:	f27d                	bnez	a2,9e4 <print_number+0x50>
     a00:	a00d                	j	a22 <print_number+0x8e>
     a02:	00487313          	andi	t1,a6,4
     a06:	02b00293          	li	t0,43
     a0a:	00031763          	bnez	t1,a18 <print_number+0x84>
     a0e:	00887293          	andi	t0,a6,8
     a12:	005032b3          	snez	t0,t0
     a16:	0296                	slli	t0,t0,0x5
     a18:	f279                	bnez	a2,9de <print_number+0x4a>
     a1a:	03000693          	li	a3,48
     a1e:	8054                	sb	a3,0(sp)
     a20:	4f85                	li	t6,1
     a22:	86fe                	mv	a3,t6
     a24:	00ffd363          	bge	t6,a5,a2a <print_number+0x96>
     a28:	86be                	mv	a3,a5
     a2a:	01187813          	andi	a6,a6,17
     a2e:	8f15                	sub	a4,a4,a3
     a30:	04081363          	bnez	a6,a76 <print_number+0xe2>
     a34:	00028563          	beqz	t0,a3e <print_number+0xaa>
     a38:	00e05363          	blez	a4,a3e <print_number+0xaa>
     a3c:	177d                	addi	a4,a4,-1
     a3e:	862a                	mv	a2,a0
     a40:	00e508b3          	add	a7,a0,a4
     a44:	02000313          	li	t1,32
     a48:	a821                	j	a60 <print_number+0xcc>
     a4a:	4281                	li	t0,0
     a4c:	b7f1                	j	a18 <print_number+0x84>
     a4e:	00f67313          	andi	t1,a2,15
     a52:	8211                	srli	a2,a2,0x4
     a54:	bf71                	j	9f0 <print_number+0x5c>
     a56:	00b67463          	bgeu	a2,a1,a5e <print_number+0xca>
     a5a:	00660023          	sb	t1,0(a2)
     a5e:	0605                	addi	a2,a2,1
     a60:	40c88833          	sub	a6,a7,a2
     a64:	ff0049e3          	bgtz	a6,a56 <print_number+0xc2>
     a68:	863a                	mv	a2,a4
     a6a:	00075363          	bgez	a4,a70 <print_number+0xdc>
     a6e:	4601                	li	a2,0
     a70:	177d                	addi	a4,a4,-1
     a72:	9532                	add	a0,a0,a2
     a74:	8f11                	sub	a4,a4,a2
     a76:	00028863          	beqz	t0,a86 <print_number+0xf2>
     a7a:	00b57463          	bgeu	a0,a1,a82 <print_number+0xee>
     a7e:	00550023          	sb	t0,0(a0)
     a82:	177d                	addi	a4,a4,-1
     a84:	0505                	addi	a0,a0,1
     a86:	02038763          	beqz	t2,ab4 <print_number+0x120>
     a8a:	96aa                	add	a3,a3,a0
     a8c:	03000813          	li	a6,48
     a90:	a81d                	j	ac6 <print_number+0x132>
     a92:	00b67463          	bgeu	a2,a1,a9a <print_number+0x106>
     a96:	01d60023          	sb	t4,0(a2)
     a9a:	0605                	addi	a2,a2,1
     a9c:	40c88833          	sub	a6,a7,a2
     aa0:	ff0049e3          	bgtz	a6,a92 <print_number+0xfe>
     aa4:	863a                	mv	a2,a4
     aa6:	00075363          	bgez	a4,aac <print_number+0x118>
     aaa:	4601                	li	a2,0
     aac:	177d                	addi	a4,a4,-1
     aae:	9532                	add	a0,a0,a2
     ab0:	8f11                	sub	a4,a4,a2
     ab2:	bfe1                	j	a8a <print_number+0xf6>
     ab4:	862a                	mv	a2,a0
     ab6:	00e508b3          	add	a7,a0,a4
     aba:	b7cd                	j	a9c <print_number+0x108>
     abc:	00b57463          	bgeu	a0,a1,ac4 <print_number+0x130>
     ac0:	01050023          	sb	a6,0(a0)
     ac4:	0505                	addi	a0,a0,1
     ac6:	40a68633          	sub	a2,a3,a0
     aca:	fecfc9e3          	blt	t6,a2,abc <print_number+0x128>
     ace:	56fd                	li	a3,-1
     ad0:	1ffd                	addi	t6,t6,-1
     ad2:	00df8363          	beq	t6,a3,ad8 <print_number+0x144>
     ad6:	e799                	bnez	a5,ae4 <print_number+0x150>
     ad8:	87aa                	mv	a5,a0
     ada:	00e50633          	add	a2,a0,a4
     ade:	02000813          	li	a6,32
     ae2:	a831                	j	afe <print_number+0x16a>
     ae4:	00b57663          	bgeu	a0,a1,af0 <print_number+0x15c>
     ae8:	01f10633          	add	a2,sp,t6
     aec:	2210                	lbu	a2,0(a2)
     aee:	a110                	sb	a2,0(a0)
     af0:	0505                	addi	a0,a0,1
     af2:	bff9                	j	ad0 <print_number+0x13c>
     af4:	00b7f463          	bgeu	a5,a1,afc <print_number+0x168>
     af8:	01078023          	sb	a6,0(a5)
     afc:	0785                	addi	a5,a5,1
     afe:	40f606b3          	sub	a3,a2,a5
     b02:	fed049e3          	bgtz	a3,af4 <print_number+0x160>
     b06:	00075363          	bgez	a4,b0c <print_number+0x178>
     b0a:	4701                	li	a4,0
     b0c:	953a                	add	a0,a0,a4
     b0e:	0141                	addi	sp,sp,16
     b10:	8082                	ret

00000b12 <rt_set_errno>:
     b12:	8d1ff2ef          	jal	t0,3e2 <__riscv_save_0>
     b16:	842a                	mv	s0,a0
     b18:	3d9d                	jal	98e <rt_interrupt_get_nest>
     b1a:	c509                	beqz	a0,b24 <rt_set_errno+0x12>
     b1c:	8481ac23          	sw	s0,-1960(gp) # 20000378 <__rt_errno>
     b20:	8e7ff06f          	j	406 <__riscv_restore_0>
     b24:	4c7000ef          	jal	ra,17ea <rt_thread_self>
     b28:	d975                	beqz	a0,b1c <rt_set_errno+0xa>
     b2a:	d900                	sw	s0,48(a0)
     b2c:	bfd5                	j	b20 <rt_set_errno+0xe>

00000b2e <rt_memset>:
     b2e:	470d                	li	a4,3
     b30:	87aa                	mv	a5,a0
     b32:	00c77663          	bgeu	a4,a2,b3e <rt_memset+0x10>
     b36:	00357793          	andi	a5,a0,3
     b3a:	c791                	beqz	a5,b46 <rt_memset+0x18>
     b3c:	87aa                	mv	a5,a0
     b3e:	963e                	add	a2,a2,a5
     b40:	06c79763          	bne	a5,a2,bae <rt_memset+0x80>
     b44:	8082                	ret
     b46:	0ff5f793          	andi	a5,a1,255
     b4a:	00879713          	slli	a4,a5,0x8
     b4e:	8fd9                	or	a5,a5,a4
     b50:	01079713          	slli	a4,a5,0x10
     b54:	8f5d                	or	a4,a4,a5
     b56:	00c508b3          	add	a7,a0,a2
     b5a:	87aa                	mv	a5,a0
     b5c:	46bd                	li	a3,15
     b5e:	40f88833          	sub	a6,a7,a5
     b62:	0306eb63          	bltu	a3,a6,b98 <rt_memset+0x6a>
     b66:	00465793          	srli	a5,a2,0x4
     b6a:	56c1                	li	a3,-16
     b6c:	02d786b3          	mul	a3,a5,a3
     b70:	0792                	slli	a5,a5,0x4
     b72:	97aa                	add	a5,a5,a0
     b74:	480d                	li	a6,3
     b76:	9636                	add	a2,a2,a3
     b78:	00c78333          	add	t1,a5,a2
     b7c:	86be                	mv	a3,a5
     b7e:	40d308b3          	sub	a7,t1,a3
     b82:	03186263          	bltu	a6,a7,ba6 <rt_memset+0x78>
     b86:	00265713          	srli	a4,a2,0x2
     b8a:	56f1                	li	a3,-4
     b8c:	02d706b3          	mul	a3,a4,a3
     b90:	070a                	slli	a4,a4,0x2
     b92:	97ba                	add	a5,a5,a4
     b94:	9636                	add	a2,a2,a3
     b96:	b765                	j	b3e <rt_memset+0x10>
     b98:	c398                	sw	a4,0(a5)
     b9a:	c3d8                	sw	a4,4(a5)
     b9c:	c798                	sw	a4,8(a5)
     b9e:	07c1                	addi	a5,a5,16
     ba0:	fee7ae23          	sw	a4,-4(a5)
     ba4:	bf6d                	j	b5e <rt_memset+0x30>
     ba6:	0691                	addi	a3,a3,4
     ba8:	fee6ae23          	sw	a4,-4(a3)
     bac:	bfc9                	j	b7e <rt_memset+0x50>
     bae:	0785                	addi	a5,a5,1
     bb0:	feb78fa3          	sb	a1,-1(a5)
     bb4:	b771                	j	b40 <rt_memset+0x12>

00000bb6 <rt_memmove>:
     bb6:	04a5f263          	bgeu	a1,a0,bfa <rt_memmove+0x44>
     bba:	00c586b3          	add	a3,a1,a2
     bbe:	02d57e63          	bgeu	a0,a3,bfa <rt_memmove+0x44>
     bc2:	fff64593          	not	a1,a2
     bc6:	4781                	li	a5,0
     bc8:	17fd                	addi	a5,a5,-1
     bca:	00f59363          	bne	a1,a5,bd0 <rt_memmove+0x1a>
     bce:	8082                	ret
     bd0:	00f68733          	add	a4,a3,a5
     bd4:	00070803          	lb	a6,0(a4)
     bd8:	00c78733          	add	a4,a5,a2
     bdc:	972a                	add	a4,a4,a0
     bde:	01070023          	sb	a6,0(a4)
     be2:	b7dd                	j	bc8 <rt_memmove+0x12>
     be4:	00f58733          	add	a4,a1,a5
     be8:	00070683          	lb	a3,0(a4)
     bec:	00f50733          	add	a4,a0,a5
     bf0:	0785                	addi	a5,a5,1
     bf2:	a314                	sb	a3,0(a4)
     bf4:	fef618e3          	bne	a2,a5,be4 <rt_memmove+0x2e>
     bf8:	8082                	ret
     bfa:	4781                	li	a5,0
     bfc:	bfe5                	j	bf4 <rt_memmove+0x3e>

00000bfe <rt_strncpy>:
     bfe:	c60d                	beqz	a2,c28 <rt_strncpy+0x2a>
     c00:	87aa                	mv	a5,a0
     c02:	0585                	addi	a1,a1,1
     c04:	fff58703          	lb	a4,-1(a1)
     c08:	0785                	addi	a5,a5,1
     c0a:	fff60693          	addi	a3,a2,-1
     c0e:	fee78fa3          	sb	a4,-1(a5)
     c12:	eb09                	bnez	a4,c24 <rt_strncpy+0x26>
     c14:	963e                	add	a2,a2,a5
     c16:	0785                	addi	a5,a5,1
     c18:	00c79363          	bne	a5,a2,c1e <rt_strncpy+0x20>
     c1c:	8082                	ret
     c1e:	fe078fa3          	sb	zero,-1(a5)
     c22:	bfd5                	j	c16 <rt_strncpy+0x18>
     c24:	8636                	mv	a2,a3
     c26:	fef1                	bnez	a3,c02 <rt_strncpy+0x4>
     c28:	8082                	ret

00000c2a <rt_strncmp>:
     c2a:	4701                	li	a4,0
     c2c:	00e61463          	bne	a2,a4,c34 <rt_strncmp+0xa>
     c30:	4781                	li	a5,0
     c32:	a839                	j	c50 <rt_strncmp+0x26>
     c34:	00e507b3          	add	a5,a0,a4
     c38:	00078683          	lb	a3,0(a5)
     c3c:	00e587b3          	add	a5,a1,a4
     c40:	239c                	lbu	a5,0(a5)
     c42:	40f687b3          	sub	a5,a3,a5
     c46:	07e2                	slli	a5,a5,0x18
     c48:	87e1                	srai	a5,a5,0x18
     c4a:	e399                	bnez	a5,c50 <rt_strncmp+0x26>
     c4c:	0705                	addi	a4,a4,1
     c4e:	fef9                	bnez	a3,c2c <rt_strncmp+0x2>
     c50:	853e                	mv	a0,a5
     c52:	8082                	ret

00000c54 <rt_strlen>:
     c54:	87aa                	mv	a5,a0
     c56:	00078703          	lb	a4,0(a5)
     c5a:	e701                	bnez	a4,c62 <rt_strlen+0xe>
     c5c:	40a78533          	sub	a0,a5,a0
     c60:	8082                	ret
     c62:	0785                	addi	a5,a5,1
     c64:	bfcd                	j	c56 <rt_strlen+0x2>

00000c66 <rt_vsnprintf>:
     c66:	f54ff2ef          	jal	t0,3ba <__riscv_save_10>
     c6a:	892e                	mv	s2,a1
     c6c:	01250bb3          	add	s7,a0,s2
     c70:	1141                	addi	sp,sp,-16
     c72:	8c2a                	mv	s8,a0
     c74:	85b6                	mv	a1,a3
     c76:	00abf563          	bgeu	s7,a0,c80 <rt_vsnprintf+0x1a>
     c7a:	fff54913          	not	s2,a0
     c7e:	5bfd                	li	s7,-1
     c80:	69c1                	lui	s3,0x10
     c82:	0000aa37          	lui	s4,0xa
     c86:	8462                	mv	s0,s8
     c88:	02b00a93          	li	s5,43
     c8c:	02000b13          	li	s6,32
     c90:	19fd                	addi	s3,s3,-1
     c92:	05ca0a13          	addi	s4,s4,92 # a05c <large_digits.2583+0x9c>
     c96:	a831                	j	cb2 <rt_vsnprintf+0x4c>
     c98:	02500713          	li	a4,37
     c9c:	02e78963          	beq	a5,a4,cce <rt_vsnprintf+0x68>
     ca0:	01747363          	bgeu	s0,s7,ca6 <rt_vsnprintf+0x40>
     ca4:	a01c                	sb	a5,0(s0)
     ca6:	00140513          	addi	a0,s0,1
     caa:	84b2                	mv	s1,a2
     cac:	00148613          	addi	a2,s1,1
     cb0:	842a                	mv	s0,a0
     cb2:	00060783          	lb	a5,0(a2)
     cb6:	f3ed                	bnez	a5,c98 <rt_vsnprintf+0x32>
     cb8:	00090663          	beqz	s2,cc4 <rt_vsnprintf+0x5e>
     cbc:	2f747b63          	bgeu	s0,s7,fb2 <rt_vsnprintf+0x34c>
     cc0:	00040023          	sb	zero,0(s0)
     cc4:	41840533          	sub	a0,s0,s8
     cc8:	0141                	addi	sp,sp,16
     cca:	f28ff06f          	j	3f2 <__riscv_restore_10>
     cce:	4801                	li	a6,0
     cd0:	02d00713          	li	a4,45
     cd4:	02300693          	li	a3,35
     cd8:	03000513          	li	a0,48
     cdc:	a031                	j	ce8 <rt_vsnprintf+0x82>
     cde:	01579e63          	bne	a5,s5,cfa <rt_vsnprintf+0x94>
     ce2:	00486813          	ori	a6,a6,4
     ce6:	8626                	mv	a2,s1
     ce8:	00160783          	lb	a5,1(a2)
     cec:	00160493          	addi	s1,a2,1
     cf0:	fee797e3          	bne	a5,a4,cde <rt_vsnprintf+0x78>
     cf4:	01086813          	ori	a6,a6,16
     cf8:	b7fd                	j	ce6 <rt_vsnprintf+0x80>
     cfa:	01679563          	bne	a5,s6,d04 <rt_vsnprintf+0x9e>
     cfe:	00886813          	ori	a6,a6,8
     d02:	b7d5                	j	ce6 <rt_vsnprintf+0x80>
     d04:	00d79563          	bne	a5,a3,d0e <rt_vsnprintf+0xa8>
     d08:	02086813          	ori	a6,a6,32
     d0c:	bfe9                	j	ce6 <rt_vsnprintf+0x80>
     d0e:	00a79563          	bne	a5,a0,d18 <rt_vsnprintf+0xb2>
     d12:	00186813          	ori	a6,a6,1
     d16:	bfc1                	j	ce6 <rt_vsnprintf+0x80>
     d18:	fd078713          	addi	a4,a5,-48
     d1c:	46a5                	li	a3,9
     d1e:	04e6e663          	bltu	a3,a4,d6a <rt_vsnprintf+0x104>
     d22:	4701                	li	a4,0
     d24:	46a5                	li	a3,9
     d26:	4529                	li	a0,10
     d28:	a039                	j	d36 <rt_vsnprintf+0xd0>
     d2a:	02a70733          	mul	a4,a4,a0
     d2e:	0485                	addi	s1,s1,1
     d30:	973e                	add	a4,a4,a5
     d32:	fd070713          	addi	a4,a4,-48
     d36:	00048783          	lb	a5,0(s1)
     d3a:	fd078613          	addi	a2,a5,-48
     d3e:	fec6f6e3          	bgeu	a3,a2,d2a <rt_vsnprintf+0xc4>
     d42:	00048603          	lb	a2,0(s1)
     d46:	02e00693          	li	a3,46
     d4a:	57fd                	li	a5,-1
     d4c:	04d61f63          	bne	a2,a3,daa <rt_vsnprintf+0x144>
     d50:	00148783          	lb	a5,1(s1)
     d54:	4625                	li	a2,9
     d56:	00148693          	addi	a3,s1,1
     d5a:	fd078513          	addi	a0,a5,-48
     d5e:	0aa66563          	bltu	a2,a0,e08 <rt_vsnprintf+0x1a2>
     d62:	4781                	li	a5,0
     d64:	4525                	li	a0,9
     d66:	4329                	li	t1,10
     d68:	a03d                	j	d96 <rt_vsnprintf+0x130>
     d6a:	02a00693          	li	a3,42
     d6e:	577d                	li	a4,-1
     d70:	fcd799e3          	bne	a5,a3,d42 <rt_vsnprintf+0xdc>
     d74:	4198                	lw	a4,0(a1)
     d76:	00260493          	addi	s1,a2,2
     d7a:	0591                	addi	a1,a1,4
     d7c:	fc0753e3          	bgez	a4,d42 <rt_vsnprintf+0xdc>
     d80:	40e00733          	neg	a4,a4
     d84:	01086813          	ori	a6,a6,16
     d88:	bf6d                	j	d42 <rt_vsnprintf+0xdc>
     d8a:	026787b3          	mul	a5,a5,t1
     d8e:	0685                	addi	a3,a3,1
     d90:	97b2                	add	a5,a5,a2
     d92:	fd078793          	addi	a5,a5,-48
     d96:	00068603          	lb	a2,0(a3)
     d9a:	fd060893          	addi	a7,a2,-48
     d9e:	ff1576e3          	bgeu	a0,a7,d8a <rt_vsnprintf+0x124>
     da2:	0007d363          	bgez	a5,da8 <rt_vsnprintf+0x142>
     da6:	4781                	li	a5,0
     da8:	84b6                	mv	s1,a3
     daa:	00048683          	lb	a3,0(s1)
     dae:	06800613          	li	a2,104
     db2:	4501                	li	a0,0
     db4:	ffb6f893          	andi	a7,a3,-5
     db8:	00c89563          	bne	a7,a2,dc2 <rt_vsnprintf+0x15c>
     dbc:	0ff6f513          	andi	a0,a3,255
     dc0:	0485                	addi	s1,s1,1
     dc2:	00048603          	lb	a2,0(s1)
     dc6:	06900693          	li	a3,105
     dca:	06d60363          	beq	a2,a3,e30 <rt_vsnprintf+0x1ca>
     dce:	06c6c563          	blt	a3,a2,e38 <rt_vsnprintf+0x1d2>
     dd2:	05800693          	li	a3,88
     dd6:	1cd60363          	beq	a2,a3,f9c <rt_vsnprintf+0x336>
     dda:	04c6c363          	blt	a3,a2,e20 <rt_vsnprintf+0x1ba>
     dde:	02500793          	li	a5,37
     de2:	1af60763          	beq	a2,a5,f90 <rt_vsnprintf+0x32a>
     de6:	01747563          	bgeu	s0,s7,df0 <rt_vsnprintf+0x18a>
     dea:	02500793          	li	a5,37
     dee:	a01c                	sb	a5,0(s0)
     df0:	00048783          	lb	a5,0(s1)
     df4:	00140513          	addi	a0,s0,1
     df8:	1a078663          	beqz	a5,fa4 <rt_vsnprintf+0x33e>
     dfc:	01757363          	bgeu	a0,s7,e02 <rt_vsnprintf+0x19c>
     e00:	b01c                	sb	a5,1(s0)
     e02:	00240513          	addi	a0,s0,2
     e06:	b55d                	j	cac <rt_vsnprintf+0x46>
     e08:	02a00613          	li	a2,42
     e0c:	00c79763          	bne	a5,a2,e1a <rt_vsnprintf+0x1b4>
     e10:	419c                	lw	a5,0(a1)
     e12:	00248693          	addi	a3,s1,2
     e16:	0591                	addi	a1,a1,4
     e18:	b769                	j	da2 <rt_vsnprintf+0x13c>
     e1a:	84b6                	mv	s1,a3
     e1c:	4781                	li	a5,0
     e1e:	b771                	j	daa <rt_vsnprintf+0x144>
     e20:	06300693          	li	a3,99
     e24:	08d60263          	beq	a2,a3,ea8 <rt_vsnprintf+0x242>
     e28:	06400693          	li	a3,100
     e2c:	fad61de3          	bne	a2,a3,de6 <rt_vsnprintf+0x180>
     e30:	00286813          	ori	a6,a6,2
     e34:	46a9                	li	a3,10
     e36:	a099                	j	e7c <rt_vsnprintf+0x216>
     e38:	07300693          	li	a3,115
     e3c:	0cd60363          	beq	a2,a3,f02 <rt_vsnprintf+0x29c>
     e40:	02c6c563          	blt	a3,a2,e6a <rt_vsnprintf+0x204>
     e44:	06f00693          	li	a3,111
     e48:	16d60063          	beq	a2,a3,fa8 <rt_vsnprintf+0x342>
     e4c:	07000693          	li	a3,112
     e50:	f8d61be3          	bne	a2,a3,de6 <rt_vsnprintf+0x180>
     e54:	56fd                	li	a3,-1
     e56:	00d71563          	bne	a4,a3,e60 <rt_vsnprintf+0x1fa>
     e5a:	00186813          	ori	a6,a6,1
     e5e:	4721                	li	a4,8
     e60:	00458c93          	addi	s9,a1,4
     e64:	46c1                	li	a3,16
     e66:	4190                	lw	a2,0(a1)
     e68:	a81d                	j	e9e <rt_vsnprintf+0x238>
     e6a:	07500693          	li	a3,117
     e6e:	fcd603e3          	beq	a2,a3,e34 <rt_vsnprintf+0x1ce>
     e72:	07800893          	li	a7,120
     e76:	46c1                	li	a3,16
     e78:	f71617e3          	bne	a2,a7,de6 <rt_vsnprintf+0x180>
     e7c:	06c00613          	li	a2,108
     e80:	00458c93          	addi	s9,a1,4
     e84:	fec501e3          	beq	a0,a2,e66 <rt_vsnprintf+0x200>
     e88:	06800613          	li	a2,104
     e8c:	fcc51de3          	bne	a0,a2,e66 <rt_vsnprintf+0x200>
     e90:	4190                	lw	a2,0(a1)
     e92:	00287593          	andi	a1,a6,2
     e96:	10059b63          	bnez	a1,fac <rt_vsnprintf+0x346>
     e9a:	01367633          	and	a2,a2,s3
     e9e:	85de                	mv	a1,s7
     ea0:	8522                	mv	a0,s0
     ea2:	3ccd                	jal	994 <print_number>
     ea4:	85e6                	mv	a1,s9
     ea6:	b519                	j	cac <rt_vsnprintf+0x46>
     ea8:	01087813          	andi	a6,a6,16
     eac:	02081563          	bnez	a6,ed6 <rt_vsnprintf+0x270>
     eb0:	87ba                	mv	a5,a4
     eb2:	02000693          	li	a3,32
     eb6:	a029                	j	ec0 <rt_vsnprintf+0x25a>
     eb8:	01747363          	bgeu	s0,s7,ebe <rt_vsnprintf+0x258>
     ebc:	a014                	sb	a3,0(s0)
     ebe:	0405                	addi	s0,s0,1
     ec0:	17fd                	addi	a5,a5,-1
     ec2:	fef04be3          	bgtz	a5,eb8 <rt_vsnprintf+0x252>
     ec6:	fff70793          	addi	a5,a4,-1
     eca:	00e04363          	bgtz	a4,ed0 <rt_vsnprintf+0x26a>
     ece:	4705                	li	a4,1
     ed0:	40e78733          	sub	a4,a5,a4
     ed4:	0705                	addi	a4,a4,1
     ed6:	00458793          	addi	a5,a1,4
     eda:	01747463          	bgeu	s0,s7,ee2 <rt_vsnprintf+0x27c>
     ede:	4194                	lw	a3,0(a1)
     ee0:	a014                	sb	a3,0(s0)
     ee2:	00140513          	addi	a0,s0,1
     ee6:	9722                	add	a4,a4,s0
     ee8:	02000613          	li	a2,32
     eec:	40a706b3          	sub	a3,a4,a0
     ef0:	00d04463          	bgtz	a3,ef8 <rt_vsnprintf+0x292>
     ef4:	85be                	mv	a1,a5
     ef6:	bb5d                	j	cac <rt_vsnprintf+0x46>
     ef8:	01757363          	bgeu	a0,s7,efe <rt_vsnprintf+0x298>
     efc:	a110                	sb	a2,0(a0)
     efe:	0505                	addi	a0,a0,1
     f00:	b7f5                	j	eec <rt_vsnprintf+0x286>
     f02:	0005ac83          	lw	s9,0(a1)
     f06:	00458d13          	addi	s10,a1,4
     f0a:	000c9363          	bnez	s9,f10 <rt_vsnprintf+0x2aa>
     f0e:	8cd2                	mv	s9,s4
     f10:	8566                	mv	a0,s9
     f12:	c63e                	sw	a5,12(sp)
     f14:	c43a                	sw	a4,8(sp)
     f16:	c242                	sw	a6,4(sp)
     f18:	3b35                	jal	c54 <rt_strlen>
     f1a:	47b2                	lw	a5,12(sp)
     f1c:	86aa                	mv	a3,a0
     f1e:	4812                	lw	a6,4(sp)
     f20:	4722                	lw	a4,8(sp)
     f22:	00f05563          	blez	a5,f2c <rt_vsnprintf+0x2c6>
     f26:	00a7d363          	bge	a5,a0,f2c <rt_vsnprintf+0x2c6>
     f2a:	86be                	mv	a3,a5
     f2c:	01087813          	andi	a6,a6,16
     f30:	00081e63          	bnez	a6,f4c <rt_vsnprintf+0x2e6>
     f34:	87ba                	mv	a5,a4
     f36:	02000613          	li	a2,32
     f3a:	a031                	j	f46 <rt_vsnprintf+0x2e0>
     f3c:	01747363          	bgeu	s0,s7,f42 <rt_vsnprintf+0x2dc>
     f40:	a010                	sb	a2,0(s0)
     f42:	0405                	addi	s0,s0,1
     f44:	87ba                	mv	a5,a4
     f46:	177d                	addi	a4,a4,-1
     f48:	fef6cae3          	blt	a3,a5,f3c <rt_vsnprintf+0x2d6>
     f4c:	4781                	li	a5,0
     f4e:	02d7c163          	blt	a5,a3,f70 <rt_vsnprintf+0x30a>
     f52:	87b6                	mv	a5,a3
     f54:	0006d363          	bgez	a3,f5a <rt_vsnprintf+0x2f4>
     f58:	4781                	li	a5,0
     f5a:	00f40533          	add	a0,s0,a5
     f5e:	972a                	add	a4,a4,a0
     f60:	02000613          	li	a2,32
     f64:	40a707b3          	sub	a5,a4,a0
     f68:	00f6cf63          	blt	a3,a5,f86 <rt_vsnprintf+0x320>
     f6c:	85ea                	mv	a1,s10
     f6e:	bb3d                	j	cac <rt_vsnprintf+0x46>
     f70:	00f40633          	add	a2,s0,a5
     f74:	01767763          	bgeu	a2,s7,f82 <rt_vsnprintf+0x31c>
     f78:	00fc85b3          	add	a1,s9,a5
     f7c:	00058583          	lb	a1,0(a1)
     f80:	a20c                	sb	a1,0(a2)
     f82:	0785                	addi	a5,a5,1
     f84:	b7e9                	j	f4e <rt_vsnprintf+0x2e8>
     f86:	01757363          	bgeu	a0,s7,f8c <rt_vsnprintf+0x326>
     f8a:	a110                	sb	a2,0(a0)
     f8c:	0505                	addi	a0,a0,1
     f8e:	bfd9                	j	f64 <rt_vsnprintf+0x2fe>
     f90:	01747363          	bgeu	s0,s7,f96 <rt_vsnprintf+0x330>
     f94:	a010                	sb	a2,0(s0)
     f96:	00140513          	addi	a0,s0,1
     f9a:	bb09                	j	cac <rt_vsnprintf+0x46>
     f9c:	04086813          	ori	a6,a6,64
     fa0:	46c1                	li	a3,16
     fa2:	bde9                	j	e7c <rt_vsnprintf+0x216>
     fa4:	14fd                	addi	s1,s1,-1
     fa6:	b319                	j	cac <rt_vsnprintf+0x46>
     fa8:	46a1                	li	a3,8
     faa:	bdc9                	j	e7c <rt_vsnprintf+0x216>
     fac:	0642                	slli	a2,a2,0x10
     fae:	8641                	srai	a2,a2,0x10
     fb0:	b5fd                	j	e9e <rt_vsnprintf+0x238>
     fb2:	fe0b8fa3          	sb	zero,-1(s7)
     fb6:	b339                	j	cc4 <rt_vsnprintf+0x5e>

00000fb8 <rt_console_get_device>:
     fb8:	85c1a503          	lw	a0,-1956(gp) # 2000037c <_console_device>
     fbc:	8082                	ret

00000fbe <rt_console_set_device>:
     fbe:	c24ff2ef          	jal	t0,3e2 <__riscv_save_0>
     fc2:	85c1a903          	lw	s2,-1956(gp) # 2000037c <_console_device>
     fc6:	dfcff0ef          	jal	ra,5c2 <rt_device_find>
     fca:	cd11                	beqz	a0,fe6 <rt_console_set_device+0x28>
     fcc:	85c18413          	addi	s0,gp,-1956 # 2000037c <_console_device>
     fd0:	84aa                	mv	s1,a0
     fd2:	4008                	lw	a0,0(s0)
     fd4:	c119                	beqz	a0,fda <rt_console_set_device+0x1c>
     fd6:	ee2ff0ef          	jal	ra,6b8 <rt_device_close>
     fda:	04300593          	li	a1,67
     fde:	8526                	mv	a0,s1
     fe0:	e5eff0ef          	jal	ra,63e <rt_device_open>
     fe4:	c004                	sw	s1,0(s0)
     fe6:	854a                	mv	a0,s2
     fe8:	c1eff06f          	j	406 <__riscv_restore_0>

00000fec <rt_hw_console_output>:
     fec:	8082                	ret

00000fee <rt_kprintf>:
     fee:	7139                	addi	sp,sp,-64
     ff0:	ca26                	sw	s1,20(sp)
     ff2:	d22e                	sw	a1,36(sp)
     ff4:	d432                	sw	a2,40(sp)
     ff6:	d636                	sw	a3,44(sp)
     ff8:	862a                	mv	a2,a0
     ffa:	1054                	addi	a3,sp,36
     ffc:	07f00593          	li	a1,127
    1000:	bd018513          	addi	a0,gp,-1072 # 200006f0 <rt_log_buf.2693>
    1004:	da3e                	sw	a5,52(sp)
    1006:	c636                	sw	a3,12(sp)
    1008:	ce06                	sw	ra,28(sp)
    100a:	cc22                	sw	s0,24(sp)
    100c:	d83a                	sw	a4,48(sp)
    100e:	dc42                	sw	a6,56(sp)
    1010:	de46                	sw	a7,60(sp)
    1012:	3991                	jal	c66 <rt_vsnprintf>
    1014:	86aa                	mv	a3,a0
    1016:	85c1a503          	lw	a0,-1956(gp) # 2000037c <_console_device>
    101a:	e909                	bnez	a0,102c <rt_kprintf+0x3e>
    101c:	bd018513          	addi	a0,gp,-1072 # 200006f0 <rt_log_buf.2693>
    1020:	37f1                	jal	fec <rt_hw_console_output>
    1022:	40f2                	lw	ra,28(sp)
    1024:	4462                	lw	s0,24(sp)
    1026:	44d2                	lw	s1,20(sp)
    1028:	6121                	addi	sp,sp,64
    102a:	8082                	ret
    102c:	8626                	mv	a2,s1
    102e:	2d26                	lhu	s1,26(a0)
    1030:	85c18413          	addi	s0,gp,-1956 # 2000037c <_console_device>
    1034:	0404e793          	ori	a5,s1,64
    1038:	ad3e                	sh	a5,26(a0)
    103a:	07f00793          	li	a5,127
    103e:	00d7f463          	bgeu	a5,a3,1046 <rt_kprintf+0x58>
    1042:	07f00693          	li	a3,127
    1046:	bd018613          	addi	a2,gp,-1072 # 200006f0 <rt_log_buf.2693>
    104a:	4581                	li	a1,0
    104c:	ec0ff0ef          	jal	ra,70c <rt_device_write>
    1050:	401c                	lw	a5,0(s0)
    1052:	afa6                	sh	s1,26(a5)
    1054:	b7f9                	j	1022 <rt_kprintf+0x34>

00001056 <rt_show_version>:
    1056:	b8cff2ef          	jal	t0,3e2 <__riscv_save_0>
    105a:	0000a537          	lui	a0,0xa
    105e:	fd450513          	addi	a0,a0,-44 # 9fd4 <large_digits.2583+0x14>
    1062:	3771                	jal	fee <rt_kprintf>
    1064:	0000a537          	lui	a0,0xa
    1068:	fe050513          	addi	a0,a0,-32 # 9fe0 <large_digits.2583+0x20>
    106c:	3749                	jal	fee <rt_kprintf>
    106e:	0000a737          	lui	a4,0xa
    1072:	0000a537          	lui	a0,0xa
    1076:	00470713          	addi	a4,a4,4 # a004 <large_digits.2583+0x44>
    107a:	468d                	li	a3,3
    107c:	4605                	li	a2,1
    107e:	458d                	li	a1,3
    1080:	01050513          	addi	a0,a0,16 # a010 <large_digits.2583+0x50>
    1084:	37ad                	jal	fee <rt_kprintf>
    1086:	0000a537          	lui	a0,0xa
    108a:	03050513          	addi	a0,a0,48 # a030 <large_digits.2583+0x70>
    108e:	3785                	jal	fee <rt_kprintf>
    1090:	b76ff06f          	j	406 <__riscv_restore_0>

00001094 <__rt_ffs>:
    1094:	c531                	beqz	a0,10e0 <__rt_ffs+0x4c>
    1096:	66a9                	lui	a3,0xa
    1098:	0ff57713          	andi	a4,a0,255
    109c:	ec068693          	addi	a3,a3,-320 # 9ec0 <__lowest_bit_bitmap>
    10a0:	c709                	beqz	a4,10aa <__rt_ffs+0x16>
    10a2:	96ba                	add	a3,a3,a4
    10a4:	2288                	lbu	a0,0(a3)
    10a6:	0505                	addi	a0,a0,1
    10a8:	8082                	ret
    10aa:	67c1                	lui	a5,0x10
    10ac:	f0078793          	addi	a5,a5,-256 # ff00 <__rt_init_end+0x2de8>
    10b0:	8fe9                	and	a5,a5,a0
    10b2:	cb81                	beqz	a5,10c2 <__rt_ffs+0x2e>
    10b4:	8521                	srai	a0,a0,0x8
    10b6:	0ff57713          	andi	a4,a0,255
    10ba:	9736                	add	a4,a4,a3
    10bc:	2308                	lbu	a0,0(a4)
    10be:	0525                	addi	a0,a0,9
    10c0:	8082                	ret
    10c2:	00ff07b7          	lui	a5,0xff0
    10c6:	8fe9                	and	a5,a5,a0
    10c8:	cb81                	beqz	a5,10d8 <__rt_ffs+0x44>
    10ca:	8541                	srai	a0,a0,0x10
    10cc:	0ff57793          	andi	a5,a0,255
    10d0:	97b6                	add	a5,a5,a3
    10d2:	2388                	lbu	a0,0(a5)
    10d4:	0545                	addi	a0,a0,17
    10d6:	8082                	ret
    10d8:	8161                	srli	a0,a0,0x18
    10da:	9536                	add	a0,a0,a3
    10dc:	2108                	lbu	a0,0(a0)
    10de:	0565                	addi	a0,a0,25
    10e0:	8082                	ret

000010e2 <plug_holes>:
    10e2:	8641a703          	lw	a4,-1948(gp) # 20000384 <heap_ptr>
    10e6:	415c                	lw	a5,4(a0)
    10e8:	97ba                	add	a5,a5,a4
    10ea:	02f50563          	beq	a0,a5,1114 <plug_holes+0x32>
    10ee:	23b6                	lhu	a3,2(a5)
    10f0:	e295                	bnez	a3,1114 <plug_holes+0x32>
    10f2:	8601a683          	lw	a3,-1952(gp) # 20000380 <heap_end>
    10f6:	00f68f63          	beq	a3,a5,1114 <plug_holes+0x32>
    10fa:	86818693          	addi	a3,gp,-1944 # 20000388 <lfree>
    10fe:	4290                	lw	a2,0(a3)
    1100:	00f61363          	bne	a2,a5,1106 <plug_holes+0x24>
    1104:	c288                	sw	a0,0(a3)
    1106:	43d4                	lw	a3,4(a5)
    1108:	c154                	sw	a3,4(a0)
    110a:	43dc                	lw	a5,4(a5)
    110c:	40e506b3          	sub	a3,a0,a4
    1110:	97ba                	add	a5,a5,a4
    1112:	c794                	sw	a3,8(a5)
    1114:	4510                	lw	a2,8(a0)
    1116:	00c707b3          	add	a5,a4,a2
    111a:	00f50f63          	beq	a0,a5,1138 <plug_holes+0x56>
    111e:	23b6                	lhu	a3,2(a5)
    1120:	ee81                	bnez	a3,1138 <plug_holes+0x56>
    1122:	86818693          	addi	a3,gp,-1944 # 20000388 <lfree>
    1126:	428c                	lw	a1,0(a3)
    1128:	00a59363          	bne	a1,a0,112e <plug_holes+0x4c>
    112c:	c29c                	sw	a5,0(a3)
    112e:	4154                	lw	a3,4(a0)
    1130:	c3d4                	sw	a3,4(a5)
    1132:	415c                	lw	a5,4(a0)
    1134:	973e                	add	a4,a4,a5
    1136:	c710                	sw	a2,8(a4)
    1138:	8082                	ret

0000113a <list_mem>:
    113a:	aa8ff2ef          	jal	t0,3e2 <__riscv_save_0>
    113e:	8701a583          	lw	a1,-1936(gp) # 20000390 <mem_size_aligned>
    1142:	0000a537          	lui	a0,0xa
    1146:	07850513          	addi	a0,a0,120 # a078 <small_digits.2582+0x14>
    114a:	3555                	jal	fee <rt_kprintf>
    114c:	87c1a583          	lw	a1,-1924(gp) # 2000039c <used_mem>
    1150:	0000a537          	lui	a0,0xa
    1154:	08c50513          	addi	a0,a0,140 # a08c <small_digits.2582+0x28>
    1158:	3d59                	jal	fee <rt_kprintf>
    115a:	86c1a583          	lw	a1,-1940(gp) # 2000038c <max_mem>
    115e:	0000a537          	lui	a0,0xa
    1162:	0a050513          	addi	a0,a0,160 # a0a0 <small_digits.2582+0x3c>
    1166:	3561                	jal	fee <rt_kprintf>
    1168:	a9eff06f          	j	406 <__riscv_restore_0>

0000116c <rt_system_heap_init>:
    116c:	a76ff2ef          	jal	t0,3e2 <__riscv_save_0>
    1170:	ffc5f713          	andi	a4,a1,-4
    1174:	46e1                	li	a3,24
    1176:	862e                	mv	a2,a1
    1178:	06e6f163          	bgeu	a3,a4,11da <rt_system_heap_init+0x6e>
    117c:	00350793          	addi	a5,a0,3
    1180:	9bf1                	andi	a5,a5,-4
    1182:	fe870693          	addi	a3,a4,-24
    1186:	04f6ea63          	bltu	a3,a5,11da <rt_system_heap_init+0x6e>
    118a:	8f1d                	sub	a4,a4,a5
    118c:	fe870613          	addi	a2,a4,-24
    1190:	86c1a823          	sw	a2,-1936(gp) # 20000390 <mem_size_aligned>
    1194:	6689                	lui	a3,0x2
    1196:	1751                	addi	a4,a4,-12
    1198:	86418413          	addi	s0,gp,-1948 # 20000384 <heap_ptr>
    119c:	ea068693          	addi	a3,a3,-352 # 1ea0 <list_event+0x44>
    11a0:	c3d8                	sw	a4,4(a5)
    11a2:	c394                	sw	a3,0(a5)
    11a4:	0007a423          	sw	zero,8(a5) # ff0008 <__rt_init_end+0xfe2ef0>
    11a8:	c01c                	sw	a5,0(s0)
    11aa:	97ba                	add	a5,a5,a4
    11ac:	86f1a023          	sw	a5,-1952(gp) # 20000380 <heap_end>
    11b0:	66c9                	lui	a3,0x12
    11b2:	ea068693          	addi	a3,a3,-352 # 11ea0 <__rt_init_end+0x4d88>
    11b6:	0000a5b7          	lui	a1,0xa
    11ba:	c394                	sw	a3,0(a5)
    11bc:	c3d8                	sw	a4,4(a5)
    11be:	c798                	sw	a4,8(a5)
    11c0:	4681                	li	a3,0
    11c2:	4605                	li	a2,1
    11c4:	13858593          	addi	a1,a1,312 # a138 <__fsym_list_mem_name+0x58>
    11c8:	c5018513          	addi	a0,gp,-944 # 20000770 <heap_sem>
    11cc:	e82ff0ef          	jal	ra,84e <rt_sem_init>
    11d0:	4018                	lw	a4,0(s0)
    11d2:	86e1a423          	sw	a4,-1944(gp) # 20000388 <lfree>
    11d6:	a30ff06f          	j	406 <__riscv_restore_0>
    11da:	85aa                	mv	a1,a0
    11dc:	0000a537          	lui	a0,0xa
    11e0:	14050513          	addi	a0,a0,320 # a140 <__fsym_list_mem_name+0x60>
    11e4:	3529                	jal	fee <rt_kprintf>
    11e6:	bfc5                	j	11d6 <rt_system_heap_init+0x6a>

000011e8 <rt_malloc>:
    11e8:	9faff2ef          	jal	t0,3e2 <__riscv_save_0>
    11ec:	c539                	beqz	a0,123a <rt_malloc+0x52>
    11ee:	8701a703          	lw	a4,-1936(gp) # 20000390 <mem_size_aligned>
    11f2:	00350413          	addi	s0,a0,3
    11f6:	9871                	andi	s0,s0,-4
    11f8:	87018913          	addi	s2,gp,-1936 # 20000390 <mem_size_aligned>
    11fc:	4481                	li	s1,0
    11fe:	0e876663          	bltu	a4,s0,12ea <rt_malloc+0x102>
    1202:	47b1                	li	a5,12
    1204:	00f47363          	bgeu	s0,a5,120a <rt_malloc+0x22>
    1208:	4431                	li	s0,12
    120a:	55fd                	li	a1,-1
    120c:	c5018513          	addi	a0,gp,-944 # 20000770 <heap_sem>
    1210:	e66ff0ef          	jal	ra,876 <rt_sem_take>
    1214:	8681a783          	lw	a5,-1944(gp) # 20000388 <lfree>
    1218:	8641a583          	lw	a1,-1948(gp) # 20000384 <heap_ptr>
    121c:	00092883          	lw	a7,0(s2)
    1220:	8526                	mv	a0,s1
    1222:	40b78633          	sub	a2,a5,a1
    1226:	408886b3          	sub	a3,a7,s0
    122a:	86818813          	addi	a6,gp,-1944 # 20000388 <lfree>
    122e:	00d66863          	bltu	a2,a3,123e <rt_malloc+0x56>
    1232:	c5018513          	addi	a0,gp,-944 # 20000770 <heap_sem>
    1236:	ec0ff0ef          	jal	ra,8f6 <rt_sem_release>
    123a:	4481                	li	s1,0
    123c:	a07d                	j	12ea <rt_malloc+0x102>
    123e:	00c584b3          	add	s1,a1,a2
    1242:	20ba                	lhu	a4,2(s1)
    1244:	0044ae03          	lw	t3,4(s1)
    1248:	e761                	bnez	a4,1310 <rt_malloc+0x128>
    124a:	40ce0733          	sub	a4,t3,a2
    124e:	ff470f93          	addi	t6,a4,-12
    1252:	0a8fef63          	bltu	t6,s0,1310 <rt_malloc+0x128>
    1256:	87c18f13          	addi	t5,gp,-1924 # 2000039c <used_mem>
    125a:	86c18e93          	addi	t4,gp,-1940 # 2000038c <max_mem>
    125e:	01840313          	addi	t1,s0,24
    1262:	000f2683          	lw	a3,0(t5)
    1266:	000ea383          	lw	t2,0(t4)
    126a:	87c18913          	addi	s2,gp,-1924 # 2000039c <used_mem>
    126e:	86c18293          	addi	t0,gp,-1940 # 2000038c <max_mem>
    1272:	066fef63          	bltu	t6,t1,12f0 <rt_malloc+0x108>
    1276:	00c40713          	addi	a4,s0,12
    127a:	9732                	add	a4,a4,a2
    127c:	6e89                	lui	t4,0x2
    127e:	00e58333          	add	t1,a1,a4
    1282:	ea0e8e93          	addi	t4,t4,-352 # 1ea0 <list_event+0x44>
    1286:	01c32223          	sw	t3,4(t1)
    128a:	00c32423          	sw	a2,8(t1)
    128e:	01d32023          	sw	t4,0(t1)
    1292:	4605                	li	a2,1
    1294:	c0d8                	sw	a4,4(s1)
    1296:	a0b2                	sh	a2,2(s1)
    1298:	00432603          	lw	a2,4(t1)
    129c:	08b1                	addi	a7,a7,12
    129e:	01160463          	beq	a2,a7,12a6 <rt_malloc+0xbe>
    12a2:	962e                	add	a2,a2,a1
    12a4:	c618                	sw	a4,8(a2)
    12a6:	00c68713          	addi	a4,a3,12
    12aa:	9722                	add	a4,a4,s0
    12ac:	00e92023          	sw	a4,0(s2)
    12b0:	00e3f463          	bgeu	t2,a4,12b8 <rt_malloc+0xd0>
    12b4:	00e2a023          	sw	a4,0(t0) # 4a0 <memset+0x8e>
    12b8:	6709                	lui	a4,0x2
    12ba:	ea070713          	addi	a4,a4,-352 # 1ea0 <list_event+0x44>
    12be:	a09a                	sh	a4,0(s1)
    12c0:	00979a63          	bne	a5,s1,12d4 <rt_malloc+0xec>
    12c4:	8601a683          	lw	a3,-1952(gp) # 20000380 <heap_end>
    12c8:	4701                	li	a4,0
    12ca:	23b2                	lhu	a2,2(a5)
    12cc:	ee05                	bnez	a2,1304 <rt_malloc+0x11c>
    12ce:	c319                	beqz	a4,12d4 <rt_malloc+0xec>
    12d0:	00f82023          	sw	a5,0(a6)
    12d4:	c5018513          	addi	a0,gp,-944 # 20000770 <heap_sem>
    12d8:	e1eff0ef          	jal	ra,8f6 <rt_sem_release>
    12dc:	8781a783          	lw	a5,-1928(gp) # 20000398 <rt_malloc_hook>
    12e0:	04b1                	addi	s1,s1,12
    12e2:	c781                	beqz	a5,12ea <rt_malloc+0x102>
    12e4:	85a2                	mv	a1,s0
    12e6:	8526                	mv	a0,s1
    12e8:	9782                	jalr	a5
    12ea:	8526                	mv	a0,s1
    12ec:	91aff06f          	j	406 <__riscv_restore_0>
    12f0:	4605                	li	a2,1
    12f2:	9736                	add	a4,a4,a3
    12f4:	a0b2                	sh	a2,2(s1)
    12f6:	00ef2023          	sw	a4,0(t5)
    12fa:	fae3ffe3          	bgeu	t2,a4,12b8 <rt_malloc+0xd0>
    12fe:	00eea023          	sw	a4,0(t4)
    1302:	bf5d                	j	12b8 <rt_malloc+0xd0>
    1304:	fcd785e3          	beq	a5,a3,12ce <rt_malloc+0xe6>
    1308:	43dc                	lw	a5,4(a5)
    130a:	4705                	li	a4,1
    130c:	97ae                	add	a5,a5,a1
    130e:	bf75                	j	12ca <rt_malloc+0xe2>
    1310:	8672                	mv	a2,t3
    1312:	bf31                	j	122e <rt_malloc+0x46>

00001314 <rt_calloc>:
    1314:	8ceff2ef          	jal	t0,3e2 <__riscv_save_0>
    1318:	02b50633          	mul	a2,a0,a1
    131c:	1141                	addi	sp,sp,-16
    131e:	8532                	mv	a0,a2
    1320:	c632                	sw	a2,12(sp)
    1322:	35d9                	jal	11e8 <rt_malloc>
    1324:	842a                	mv	s0,a0
    1326:	c509                	beqz	a0,1330 <rt_calloc+0x1c>
    1328:	4632                	lw	a2,12(sp)
    132a:	4581                	li	a1,0
    132c:	803ff0ef          	jal	ra,b2e <rt_memset>
    1330:	8522                	mv	a0,s0
    1332:	0141                	addi	sp,sp,16
    1334:	8d2ff06f          	j	406 <__riscv_restore_0>

00001338 <rt_free>:
    1338:	c545                	beqz	a0,13e0 <rt_free+0xa8>
    133a:	88eff2ef          	jal	t0,3c8 <__riscv_save_4>
    133e:	8741a783          	lw	a5,-1932(gp) # 20000394 <rt_free_hook>
    1342:	842a                	mv	s0,a0
    1344:	c391                	beqz	a5,1348 <rt_free+0x10>
    1346:	9782                	jalr	a5
    1348:	8641a783          	lw	a5,-1948(gp) # 20000384 <heap_ptr>
    134c:	86418913          	addi	s2,gp,-1948 # 20000384 <heap_ptr>
    1350:	08f46663          	bltu	s0,a5,13dc <rt_free+0xa4>
    1354:	8601a783          	lw	a5,-1952(gp) # 20000380 <heap_end>
    1358:	08f47263          	bgeu	s0,a5,13dc <rt_free+0xa4>
    135c:	55fd                	li	a1,-1
    135e:	c5018513          	addi	a0,gp,-944 # 20000770 <heap_sem>
    1362:	d14ff0ef          	jal	ra,876 <rt_sem_take>
    1366:	ff645783          	lhu	a5,-10(s0)
    136a:	ff440993          	addi	s3,s0,-12
    136e:	cb81                	beqz	a5,137e <rt_free+0x46>
    1370:	ff445703          	lhu	a4,-12(s0)
    1374:	6789                	lui	a5,0x2
    1376:	ea078793          	addi	a5,a5,-352 # 1ea0 <list_event+0x44>
    137a:	02f70163          	beq	a4,a5,139c <rt_free+0x64>
    137e:	0000a537          	lui	a0,0xa
    1382:	0ec50513          	addi	a0,a0,236 # a0ec <__fsym_list_mem_name+0xc>
    1386:	31a5                	jal	fee <rt_kprintf>
    1388:	ff445683          	lhu	a3,-12(s0)
    138c:	ff645603          	lhu	a2,-10(s0)
    1390:	0000a537          	lui	a0,0xa
    1394:	85ce                	mv	a1,s3
    1396:	10850513          	addi	a0,a0,264 # a108 <__fsym_list_mem_name+0x28>
    139a:	3991                	jal	fee <rt_kprintf>
    139c:	6789                	lui	a5,0x2
    139e:	ea078793          	addi	a5,a5,-352 # 1ea0 <list_event+0x44>
    13a2:	fef41a23          	sh	a5,-12(s0)
    13a6:	86818793          	addi	a5,gp,-1944 # 20000388 <lfree>
    13aa:	4398                	lw	a4,0(a5)
    13ac:	fe041b23          	sh	zero,-10(s0)
    13b0:	00e9f463          	bgeu	s3,a4,13b8 <rt_free+0x80>
    13b4:	0137a023          	sw	s3,0(a5)
    13b8:	87c18713          	addi	a4,gp,-1924 # 2000039c <used_mem>
    13bc:	431c                	lw	a5,0(a4)
    13be:	ff842683          	lw	a3,-8(s0)
    13c2:	854e                	mv	a0,s3
    13c4:	8f95                	sub	a5,a5,a3
    13c6:	00092683          	lw	a3,0(s2)
    13ca:	40d986b3          	sub	a3,s3,a3
    13ce:	97b6                	add	a5,a5,a3
    13d0:	c31c                	sw	a5,0(a4)
    13d2:	3b01                	jal	10e2 <plug_holes>
    13d4:	c5018513          	addi	a0,gp,-944 # 20000770 <heap_sem>
    13d8:	d1eff0ef          	jal	ra,8f6 <rt_sem_release>
    13dc:	820ff06f          	j	3fc <__riscv_restore_4>
    13e0:	8082                	ret

000013e2 <rt_object_get_information>:
    13e2:	200007b7          	lui	a5,0x20000
    13e6:	00078693          	mv	a3,a5
    13ea:	4701                	li	a4,0
    13ec:	00078793          	mv	a5,a5
    13f0:	4621                	li	a2,8
    13f2:	428c                	lw	a1,0(a3)
    13f4:	00a59663          	bne	a1,a0,1400 <rt_object_get_information+0x1e>
    13f8:	00471513          	slli	a0,a4,0x4
    13fc:	953e                	add	a0,a0,a5
    13fe:	8082                	ret
    1400:	0705                	addi	a4,a4,1
    1402:	06c1                	addi	a3,a3,16
    1404:	fec717e3          	bne	a4,a2,13f2 <rt_object_get_information+0x10>
    1408:	4501                	li	a0,0
    140a:	8082                	ret

0000140c <rt_object_init>:
    140c:	fbdfe2ef          	jal	t0,3c8 <__riscv_save_4>
    1410:	842a                	mv	s0,a0
    1412:	852e                	mv	a0,a1
    1414:	89ae                	mv	s3,a1
    1416:	8a32                	mv	s4,a2
    1418:	37e9                	jal	13e2 <rt_object_get_information>
    141a:	892a                	mv	s2,a0
    141c:	2ca9                	jal	1676 <rt_enter_critical>
    141e:	00492483          	lw	s1,4(s2)
    1422:	00490793          	addi	a5,s2,4
    1426:	04f49063          	bne	s1,a5,1466 <rt_object_init+0x5a>
    142a:	248d                	jal	168c <rt_exit_critical>
    142c:	f809e993          	ori	s3,s3,-128
    1430:	01340423          	sb	s3,8(s0)
    1434:	4621                	li	a2,8
    1436:	85d2                	mv	a1,s4
    1438:	8522                	mv	a0,s0
    143a:	fc4ff0ef          	jal	ra,bfe <rt_strncpy>
    143e:	8801a783          	lw	a5,-1920(gp) # 200003a0 <rt_object_attach_hook>
    1442:	c399                	beqz	a5,1448 <rt_object_init+0x3c>
    1444:	8522                	mv	a0,s0
    1446:	9782                	jalr	a5
    1448:	77a000ef          	jal	ra,1bc2 <rt_hw_interrupt_disable>
    144c:	00492703          	lw	a4,4(s2)
    1450:	00c40793          	addi	a5,s0,12
    1454:	c35c                	sw	a5,4(a4)
    1456:	c458                	sw	a4,12(s0)
    1458:	00f92223          	sw	a5,4(s2)
    145c:	c804                	sw	s1,16(s0)
    145e:	770000ef          	jal	ra,1bce <rt_hw_interrupt_enable>
    1462:	f9bfe06f          	j	3fc <__riscv_restore_4>
    1466:	4084                	lw	s1,0(s1)
    1468:	bf7d                	j	1426 <rt_object_init+0x1a>

0000146a <rt_object_detach>:
    146a:	f79fe2ef          	jal	t0,3e2 <__riscv_save_0>
    146e:	8841a783          	lw	a5,-1916(gp) # 200003a4 <rt_object_detach_hook>
    1472:	842a                	mv	s0,a0
    1474:	c391                	beqz	a5,1478 <rt_object_detach+0xe>
    1476:	9782                	jalr	a5
    1478:	00040423          	sb	zero,8(s0)
    147c:	746000ef          	jal	ra,1bc2 <rt_hw_interrupt_disable>
    1480:	4454                	lw	a3,12(s0)
    1482:	4818                	lw	a4,16(s0)
    1484:	00c40793          	addi	a5,s0,12
    1488:	c2d8                	sw	a4,4(a3)
    148a:	c314                	sw	a3,0(a4)
    148c:	c81c                	sw	a5,16(s0)
    148e:	c45c                	sw	a5,12(s0)
    1490:	73e000ef          	jal	ra,1bce <rt_hw_interrupt_enable>
    1494:	f73fe06f          	j	406 <__riscv_restore_0>

00001498 <rt_object_allocate>:
    1498:	f31fe2ef          	jal	t0,3c8 <__riscv_save_4>
    149c:	892e                	mv	s2,a1
    149e:	89aa                	mv	s3,a0
    14a0:	3789                	jal	13e2 <rt_object_get_information>
    14a2:	84aa                	mv	s1,a0
    14a4:	4548                	lw	a0,12(a0)
    14a6:	3389                	jal	11e8 <rt_malloc>
    14a8:	842a                	mv	s0,a0
    14aa:	cd1d                	beqz	a0,14e8 <rt_object_allocate+0x50>
    14ac:	44d0                	lw	a2,12(s1)
    14ae:	4581                	li	a1,0
    14b0:	e7eff0ef          	jal	ra,b2e <rt_memset>
    14b4:	4621                	li	a2,8
    14b6:	01340423          	sb	s3,8(s0)
    14ba:	000404a3          	sb	zero,9(s0)
    14be:	85ca                	mv	a1,s2
    14c0:	8522                	mv	a0,s0
    14c2:	f3cff0ef          	jal	ra,bfe <rt_strncpy>
    14c6:	8801a783          	lw	a5,-1920(gp) # 200003a0 <rt_object_attach_hook>
    14ca:	c399                	beqz	a5,14d0 <rt_object_allocate+0x38>
    14cc:	8522                	mv	a0,s0
    14ce:	9782                	jalr	a5
    14d0:	6f2000ef          	jal	ra,1bc2 <rt_hw_interrupt_disable>
    14d4:	40d8                	lw	a4,4(s1)
    14d6:	00c40793          	addi	a5,s0,12
    14da:	0491                	addi	s1,s1,4
    14dc:	c35c                	sw	a5,4(a4)
    14de:	c458                	sw	a4,12(s0)
    14e0:	c09c                	sw	a5,0(s1)
    14e2:	c804                	sw	s1,16(s0)
    14e4:	6ea000ef          	jal	ra,1bce <rt_hw_interrupt_enable>
    14e8:	8522                	mv	a0,s0
    14ea:	f13fe06f          	j	3fc <__riscv_restore_4>

000014ee <rt_object_delete>:
    14ee:	ef5fe2ef          	jal	t0,3e2 <__riscv_save_0>
    14f2:	8841a783          	lw	a5,-1916(gp) # 200003a4 <rt_object_detach_hook>
    14f6:	842a                	mv	s0,a0
    14f8:	c391                	beqz	a5,14fc <rt_object_delete+0xe>
    14fa:	9782                	jalr	a5
    14fc:	00040423          	sb	zero,8(s0)
    1500:	6c2000ef          	jal	ra,1bc2 <rt_hw_interrupt_disable>
    1504:	4454                	lw	a3,12(s0)
    1506:	4818                	lw	a4,16(s0)
    1508:	00c40793          	addi	a5,s0,12
    150c:	c2d8                	sw	a4,4(a3)
    150e:	c314                	sw	a3,0(a4)
    1510:	c81c                	sw	a5,16(s0)
    1512:	c45c                	sw	a5,12(s0)
    1514:	6ba000ef          	jal	ra,1bce <rt_hw_interrupt_enable>
    1518:	8522                	mv	a0,s0
    151a:	3d39                	jal	1338 <rt_free>
    151c:	eebfe06f          	j	406 <__riscv_restore_0>

00001520 <rt_object_is_systemobject>:
    1520:	00850503          	lb	a0,8(a0)
    1524:	817d                	srli	a0,a0,0x1f
    1526:	8082                	ret

00001528 <rt_system_scheduler_init>:
    1528:	8a019023          	sh	zero,-1888(gp) # 200003c0 <rt_scheduler_lock_nest>
    152c:	c7018793          	addi	a5,gp,-912 # 20000790 <rt_thread_priority_table>
    1530:	08078713          	addi	a4,a5,128 # 20000080 <pin_irq_hdr_tab>
    1534:	c3dc                	sw	a5,4(a5)
    1536:	c39c                	sw	a5,0(a5)
    1538:	07a1                	addi	a5,a5,8
    153a:	fee79de3          	bne	a5,a4,1534 <rt_system_scheduler_init+0xc>
    153e:	473d                	li	a4,15
    1540:	88e18a23          	sb	a4,-1900(gp) # 200003b4 <rt_current_priority>
    1544:	8801ac23          	sw	zero,-1896(gp) # 200003b8 <rt_current_thread>
    1548:	8a01a623          	sw	zero,-1876(gp) # 200003cc <rt_thread_ready_priority_group>
    154c:	8a418793          	addi	a5,gp,-1884 # 200003c4 <rt_thread_defunct>
    1550:	c3dc                	sw	a5,4(a5)
    1552:	c39c                	sw	a5,0(a5)
    1554:	8082                	ret

00001556 <rt_system_scheduler_start>:
    1556:	e8dfe2ef          	jal	t0,3e2 <__riscv_save_0>
    155a:	8ac1a503          	lw	a0,-1876(gp) # 200003cc <rt_thread_ready_priority_group>
    155e:	b37ff0ef          	jal	ra,1094 <__rt_ffs>
    1562:	157d                	addi	a0,a0,-1
    1564:	00351793          	slli	a5,a0,0x3
    1568:	c7018513          	addi	a0,gp,-912 # 20000790 <rt_thread_priority_table>
    156c:	953e                	add	a0,a0,a5
    156e:	4108                	lw	a0,0(a0)
    1570:	fec50713          	addi	a4,a0,-20
    1574:	0521                	addi	a0,a0,8
    1576:	88e1ac23          	sw	a4,-1896(gp) # 200003b8 <rt_current_thread>
    157a:	c87fe0ef          	jal	ra,200 <rt_hw_context_switch_to>
    157e:	e89fe06f          	j	406 <__riscv_restore_0>

00001582 <rt_schedule>:
    1582:	e61fe2ef          	jal	t0,3e2 <__riscv_save_0>
    1586:	63c000ef          	jal	ra,1bc2 <rt_hw_interrupt_disable>
    158a:	8a019783          	lh	a5,-1888(gp) # 200003c0 <rt_scheduler_lock_nest>
    158e:	892a                	mv	s2,a0
    1590:	e7b1                	bnez	a5,15dc <rt_schedule+0x5a>
    1592:	8ac1a503          	lw	a0,-1876(gp) # 200003cc <rt_thread_ready_priority_group>
    1596:	affff0ef          	jal	ra,1094 <__rt_ffs>
    159a:	157d                	addi	a0,a0,-1
    159c:	00351713          	slli	a4,a0,0x3
    15a0:	c7018793          	addi	a5,gp,-912 # 20000790 <rt_thread_priority_table>
    15a4:	97ba                	add	a5,a5,a4
    15a6:	4384                	lw	s1,0(a5)
    15a8:	89818793          	addi	a5,gp,-1896 # 200003b8 <rt_current_thread>
    15ac:	4380                	lw	s0,0(a5)
    15ae:	fec48593          	addi	a1,s1,-20
    15b2:	02b40563          	beq	s0,a1,15dc <rt_schedule+0x5a>
    15b6:	c38c                	sw	a1,0(a5)
    15b8:	89c1a783          	lw	a5,-1892(gp) # 200003bc <rt_scheduler_hook>
    15bc:	88a18a23          	sb	a0,-1900(gp) # 200003b4 <rt_current_priority>
    15c0:	c399                	beqz	a5,15c6 <rt_schedule+0x44>
    15c2:	8522                	mv	a0,s0
    15c4:	9782                	jalr	a5
    15c6:	8541c783          	lbu	a5,-1964(gp) # 20000374 <rt_interrupt_nest>
    15ca:	01c40513          	addi	a0,s0,28
    15ce:	00848593          	addi	a1,s1,8
    15d2:	0ff7f793          	andi	a5,a5,255
    15d6:	eb81                	bnez	a5,15e6 <rt_schedule+0x64>
    15d8:	c45fe0ef          	jal	ra,21c <rt_hw_context_switch>
    15dc:	854a                	mv	a0,s2
    15de:	5f0000ef          	jal	ra,1bce <rt_hw_interrupt_enable>
    15e2:	e25fe06f          	j	406 <__riscv_restore_0>
    15e6:	5ee000ef          	jal	ra,1bd4 <rt_hw_context_switch_interrupt>
    15ea:	bfcd                	j	15dc <rt_schedule+0x5a>

000015ec <rt_schedule_insert_thread>:
    15ec:	df7fe2ef          	jal	t0,3e2 <__riscv_save_0>
    15f0:	842a                	mv	s0,a0
    15f2:	5d0000ef          	jal	ra,1bc2 <rt_hw_interrupt_disable>
    15f6:	03444783          	lbu	a5,52(s0)
    15fa:	01440693          	addi	a3,s0,20
    15fe:	9bc1                	andi	a5,a5,-16
    1600:	0017e793          	ori	a5,a5,1
    1604:	02f40a23          	sb	a5,52(s0)
    1608:	03544783          	lbu	a5,53(s0)
    160c:	00379713          	slli	a4,a5,0x3
    1610:	c7018793          	addi	a5,gp,-912 # 20000790 <rt_thread_priority_table>
    1614:	97ba                	add	a5,a5,a4
    1616:	43d8                	lw	a4,4(a5)
    1618:	c314                	sw	a3,0(a4)
    161a:	cc18                	sw	a4,24(s0)
    161c:	c3d4                	sw	a3,4(a5)
    161e:	c85c                	sw	a5,20(s0)
    1620:	8ac18793          	addi	a5,gp,-1876 # 200003cc <rt_thread_ready_priority_group>
    1624:	4394                	lw	a3,0(a5)
    1626:	5c18                	lw	a4,56(s0)
    1628:	8f55                	or	a4,a4,a3
    162a:	c398                	sw	a4,0(a5)
    162c:	5a2000ef          	jal	ra,1bce <rt_hw_interrupt_enable>
    1630:	dd7fe06f          	j	406 <__riscv_restore_0>

00001634 <rt_schedule_remove_thread>:
    1634:	daffe2ef          	jal	t0,3e2 <__riscv_save_0>
    1638:	842a                	mv	s0,a0
    163a:	2361                	jal	1bc2 <rt_hw_interrupt_disable>
    163c:	4c18                	lw	a4,24(s0)
    163e:	4854                	lw	a3,20(s0)
    1640:	01440793          	addi	a5,s0,20
    1644:	c2d8                	sw	a4,4(a3)
    1646:	c314                	sw	a3,0(a4)
    1648:	c85c                	sw	a5,20(s0)
    164a:	cc1c                	sw	a5,24(s0)
    164c:	03544783          	lbu	a5,53(s0)
    1650:	00379713          	slli	a4,a5,0x3
    1654:	c7018793          	addi	a5,gp,-912 # 20000790 <rt_thread_priority_table>
    1658:	97ba                	add	a5,a5,a4
    165a:	4398                	lw	a4,0(a5)
    165c:	00f71a63          	bne	a4,a5,1670 <rt_schedule_remove_thread+0x3c>
    1660:	8ac18713          	addi	a4,gp,-1876 # 200003cc <rt_thread_ready_priority_group>
    1664:	5c1c                	lw	a5,56(s0)
    1666:	4314                	lw	a3,0(a4)
    1668:	fff7c793          	not	a5,a5
    166c:	8ff5                	and	a5,a5,a3
    166e:	c31c                	sw	a5,0(a4)
    1670:	2bb9                	jal	1bce <rt_hw_interrupt_enable>
    1672:	d95fe06f          	j	406 <__riscv_restore_0>

00001676 <rt_enter_critical>:
    1676:	d6dfe2ef          	jal	t0,3e2 <__riscv_save_0>
    167a:	23a1                	jal	1bc2 <rt_hw_interrupt_disable>
    167c:	8a018793          	addi	a5,gp,-1888 # 200003c0 <rt_scheduler_lock_nest>
    1680:	239a                	lhu	a4,0(a5)
    1682:	0705                	addi	a4,a4,1
    1684:	a39a                	sh	a4,0(a5)
    1686:	23a1                	jal	1bce <rt_hw_interrupt_enable>
    1688:	d7ffe06f          	j	406 <__riscv_restore_0>

0000168c <rt_exit_critical>:
    168c:	d57fe2ef          	jal	t0,3e2 <__riscv_save_0>
    1690:	2b0d                	jal	1bc2 <rt_hw_interrupt_disable>
    1692:	8a018713          	addi	a4,gp,-1888 # 200003c0 <rt_scheduler_lock_nest>
    1696:	231e                	lhu	a5,0(a4)
    1698:	17fd                	addi	a5,a5,-1
    169a:	07c2                	slli	a5,a5,0x10
    169c:	87c1                	srai	a5,a5,0x10
    169e:	a31e                	sh	a5,0(a4)
    16a0:	00f04b63          	bgtz	a5,16b6 <rt_exit_critical+0x2a>
    16a4:	00071023          	sh	zero,0(a4)
    16a8:	231d                	jal	1bce <rt_hw_interrupt_enable>
    16aa:	8981a783          	lw	a5,-1896(gp) # 200003b8 <rt_current_thread>
    16ae:	c391                	beqz	a5,16b2 <rt_exit_critical+0x26>
    16b0:	3dc9                	jal	1582 <rt_schedule>
    16b2:	d55fe06f          	j	406 <__riscv_restore_0>
    16b6:	2b21                	jal	1bce <rt_hw_interrupt_enable>
    16b8:	bfed                	j	16b2 <rt_exit_critical+0x26>

000016ba <rt_thread_exit>:
    16ba:	d29fe2ef          	jal	t0,3e2 <__riscv_save_0>
    16be:	8981a403          	lw	s0,-1896(gp) # 200003b8 <rt_current_thread>
    16c2:	2301                	jal	1bc2 <rt_hw_interrupt_disable>
    16c4:	84aa                	mv	s1,a0
    16c6:	8522                	mv	a0,s0
    16c8:	37b5                	jal	1634 <rt_schedule_remove_thread>
    16ca:	4791                	li	a5,4
    16cc:	02f40a23          	sb	a5,52(s0)
    16d0:	04c40513          	addi	a0,s0,76
    16d4:	2e01                	jal	19e4 <rt_timer_detach>
    16d6:	8522                	mv	a0,s0
    16d8:	35a1                	jal	1520 <rt_object_is_systemobject>
    16da:	4785                	li	a5,1
    16dc:	00f51b63          	bne	a0,a5,16f2 <rt_thread_exit+0x38>
    16e0:	5c3c                	lw	a5,120(s0)
    16e2:	eb81                	bnez	a5,16f2 <rt_thread_exit+0x38>
    16e4:	8522                	mv	a0,s0
    16e6:	3351                	jal	146a <rt_object_detach>
    16e8:	8526                	mv	a0,s1
    16ea:	21d5                	jal	1bce <rt_hw_interrupt_enable>
    16ec:	3d59                	jal	1582 <rt_schedule>
    16ee:	d19fe06f          	j	406 <__riscv_restore_0>
    16f2:	8a41a683          	lw	a3,-1884(gp) # 200003c4 <rt_thread_defunct>
    16f6:	01440713          	addi	a4,s0,20
    16fa:	8ae1a223          	sw	a4,-1884(gp) # 200003c4 <rt_thread_defunct>
    16fe:	c2d8                	sw	a4,4(a3)
    1700:	8a418793          	addi	a5,gp,-1884 # 200003c4 <rt_thread_defunct>
    1704:	c854                	sw	a3,20(s0)
    1706:	cc1c                	sw	a5,24(s0)
    1708:	b7c5                	j	16e8 <rt_thread_exit+0x2e>

0000170a <_rt_thread_init.isra.0>:
    170a:	cd9fe2ef          	jal	t0,3e2 <__riscv_save_0>
    170e:	842a                	mv	s0,a0
    1710:	0551                	addi	a0,a0,20
    1712:	1141                	addi	sp,sp,-16
    1714:	cc08                	sw	a0,24(s0)
    1716:	c848                	sw	a0,20(s0)
    1718:	d00c                	sw	a1,32(s0)
    171a:	d050                	sw	a2,36(s0)
    171c:	d414                	sw	a3,40(s0)
    171e:	863a                	mv	a2,a4
    1720:	d458                	sw	a4,44(s0)
    1722:	02300593          	li	a1,35
    1726:	8536                	mv	a0,a3
    1728:	c63e                	sw	a5,12(sp)
    172a:	c442                	sw	a6,8(sp)
    172c:	c02ff0ef          	jal	ra,b2e <rt_memset>
    1730:	5458                	lw	a4,44(s0)
    1732:	5410                	lw	a2,40(s0)
    1734:	504c                	lw	a1,36(s0)
    1736:	5008                	lw	a0,32(s0)
    1738:	1771                	addi	a4,a4,-4
    173a:	000016b7          	lui	a3,0x1
    173e:	963a                	add	a2,a2,a4
    1740:	6ba68693          	addi	a3,a3,1722 # 16ba <rt_thread_exit>
    1744:	212d                	jal	1b6e <rt_hw_stack_init>
    1746:	47b2                	lw	a5,12(sp)
    1748:	4822                	lw	a6,8(sp)
    174a:	00001637          	lui	a2,0x1
    174e:	cc48                	sw	a0,28(s0)
    1750:	02f40b23          	sb	a5,54(s0)
    1754:	02f40aa3          	sb	a5,53(s0)
    1758:	02042c23          	sw	zero,56(s0)
    175c:	4781                	li	a5,0
    175e:	05042223          	sw	a6,68(s0)
    1762:	05042423          	sw	a6,72(s0)
    1766:	02042823          	sw	zero,48(s0)
    176a:	02040a23          	sb	zero,52(s0)
    176e:	06042c23          	sw	zero,120(s0)
    1772:	06042e23          	sw	zero,124(s0)
    1776:	4701                	li	a4,0
    1778:	86a2                	mv	a3,s0
    177a:	79860613          	addi	a2,a2,1944 # 1798 <rt_thread_timeout>
    177e:	85a2                	mv	a1,s0
    1780:	04c40513          	addi	a0,s0,76
    1784:	241d                	jal	19aa <rt_timer_init>
    1786:	8b01a783          	lw	a5,-1872(gp) # 200003d0 <rt_thread_inited_hook>
    178a:	c399                	beqz	a5,1790 <_rt_thread_init.isra.0+0x86>
    178c:	8522                	mv	a0,s0
    178e:	9782                	jalr	a5
    1790:	4501                	li	a0,0
    1792:	0141                	addi	sp,sp,16
    1794:	c73fe06f          	j	406 <__riscv_restore_0>

00001798 <rt_thread_timeout>:
    1798:	c4bfe2ef          	jal	t0,3e2 <__riscv_save_0>
    179c:	4950                	lw	a2,20(a0)
    179e:	4d14                	lw	a3,24(a0)
    17a0:	5779                	li	a4,-2
    17a2:	d918                	sw	a4,48(a0)
    17a4:	c254                	sw	a3,4(a2)
    17a6:	01450713          	addi	a4,a0,20
    17aa:	c290                	sw	a2,0(a3)
    17ac:	cd18                	sw	a4,24(a0)
    17ae:	c958                	sw	a4,20(a0)
    17b0:	3d35                	jal	15ec <rt_schedule_insert_thread>
    17b2:	3bc1                	jal	1582 <rt_schedule>
    17b4:	c53fe06f          	j	406 <__riscv_restore_0>

000017b8 <rt_thread_init>:
    17b8:	c2bfe2ef          	jal	t0,3e2 <__riscv_save_0>
    17bc:	1141                	addi	sp,sp,-16
    17be:	84b2                	mv	s1,a2
    17c0:	862e                	mv	a2,a1
    17c2:	4585                	li	a1,1
    17c4:	842a                	mv	s0,a0
    17c6:	8936                	mv	s2,a3
    17c8:	c046                	sw	a7,0(sp)
    17ca:	c63a                	sw	a4,12(sp)
    17cc:	c43e                	sw	a5,8(sp)
    17ce:	c242                	sw	a6,4(sp)
    17d0:	c3dff0ef          	jal	ra,140c <rt_object_init>
    17d4:	4802                	lw	a6,0(sp)
    17d6:	4792                	lw	a5,4(sp)
    17d8:	4722                	lw	a4,8(sp)
    17da:	46b2                	lw	a3,12(sp)
    17dc:	864a                	mv	a2,s2
    17de:	85a6                	mv	a1,s1
    17e0:	8522                	mv	a0,s0
    17e2:	3725                	jal	170a <_rt_thread_init.isra.0>
    17e4:	0141                	addi	sp,sp,16
    17e6:	c21fe06f          	j	406 <__riscv_restore_0>

000017ea <rt_thread_self>:
    17ea:	8981a503          	lw	a0,-1896(gp) # 200003b8 <rt_current_thread>
    17ee:	8082                	ret

000017f0 <rt_thread_create>:
    17f0:	bd9fe2ef          	jal	t0,3c8 <__riscv_save_4>
    17f4:	1141                	addi	sp,sp,-16
    17f6:	892e                	mv	s2,a1
    17f8:	85aa                	mv	a1,a0
    17fa:	4505                	li	a0,1
    17fc:	c632                	sw	a2,12(sp)
    17fe:	84b6                	mv	s1,a3
    1800:	89ba                	mv	s3,a4
    1802:	8a3e                	mv	s4,a5
    1804:	c95ff0ef          	jal	ra,1498 <rt_object_allocate>
    1808:	842a                	mv	s0,a0
    180a:	c911                	beqz	a0,181e <rt_thread_create+0x2e>
    180c:	8526                	mv	a0,s1
    180e:	9dbff0ef          	jal	ra,11e8 <rt_malloc>
    1812:	4632                	lw	a2,12(sp)
    1814:	e909                	bnez	a0,1826 <rt_thread_create+0x36>
    1816:	8522                	mv	a0,s0
    1818:	cd7ff0ef          	jal	ra,14ee <rt_object_delete>
    181c:	4401                	li	s0,0
    181e:	8522                	mv	a0,s0
    1820:	0141                	addi	sp,sp,16
    1822:	bdbfe06f          	j	3fc <__riscv_restore_4>
    1826:	86aa                	mv	a3,a0
    1828:	8852                	mv	a6,s4
    182a:	87ce                	mv	a5,s3
    182c:	8726                	mv	a4,s1
    182e:	85ca                	mv	a1,s2
    1830:	8522                	mv	a0,s0
    1832:	3de1                	jal	170a <_rt_thread_init.isra.0>
    1834:	b7ed                	j	181e <rt_thread_create+0x2e>

00001836 <rt_thread_yield>:
    1836:	badfe2ef          	jal	t0,3e2 <__riscv_save_0>
    183a:	2661                	jal	1bc2 <rt_hw_interrupt_disable>
    183c:	8981a783          	lw	a5,-1896(gp) # 200003b8 <rt_current_thread>
    1840:	4605                	li	a2,1
    1842:	86aa                	mv	a3,a0
    1844:	0347c703          	lbu	a4,52(a5)
    1848:	8b3d                	andi	a4,a4,15
    184a:	02c71c63          	bne	a4,a2,1882 <rt_thread_yield+0x4c>
    184e:	4bd0                	lw	a2,20(a5)
    1850:	4f98                	lw	a4,24(a5)
    1852:	02e60863          	beq	a2,a4,1882 <rt_thread_yield+0x4c>
    1856:	c258                	sw	a4,4(a2)
    1858:	c310                	sw	a2,0(a4)
    185a:	0357c603          	lbu	a2,53(a5)
    185e:	01478693          	addi	a3,a5,20
    1862:	060e                	slli	a2,a2,0x3
    1864:	c7018713          	addi	a4,gp,-912 # 20000790 <rt_thread_priority_table>
    1868:	cf94                	sw	a3,24(a5)
    186a:	9732                	add	a4,a4,a2
    186c:	4350                	lw	a2,4(a4)
    186e:	c214                	sw	a3,0(a2)
    1870:	cf90                	sw	a2,24(a5)
    1872:	c354                	sw	a3,4(a4)
    1874:	cbd8                	sw	a4,20(a5)
    1876:	2ea1                	jal	1bce <rt_hw_interrupt_enable>
    1878:	d0bff0ef          	jal	ra,1582 <rt_schedule>
    187c:	4501                	li	a0,0
    187e:	b89fe06f          	j	406 <__riscv_restore_0>
    1882:	8536                	mv	a0,a3
    1884:	26a9                	jal	1bce <rt_hw_interrupt_enable>
    1886:	bfdd                	j	187c <rt_thread_yield+0x46>

00001888 <rt_thread_suspend>:
    1888:	03454783          	lbu	a5,52(a0)
    188c:	4705                	li	a4,1
    188e:	8bbd                	andi	a5,a5,15
    1890:	02e79f63          	bne	a5,a4,18ce <rt_thread_suspend+0x46>
    1894:	b4ffe2ef          	jal	t0,3e2 <__riscv_save_0>
    1898:	842a                	mv	s0,a0
    189a:	2625                	jal	1bc2 <rt_hw_interrupt_disable>
    189c:	03444783          	lbu	a5,52(s0)
    18a0:	84aa                	mv	s1,a0
    18a2:	8522                	mv	a0,s0
    18a4:	9bc1                	andi	a5,a5,-16
    18a6:	0027e793          	ori	a5,a5,2
    18aa:	02f40a23          	sb	a5,52(s0)
    18ae:	d87ff0ef          	jal	ra,1634 <rt_schedule_remove_thread>
    18b2:	04c40513          	addi	a0,s0,76
    18b6:	22f1                	jal	1a82 <rt_timer_stop>
    18b8:	8526                	mv	a0,s1
    18ba:	2e11                	jal	1bce <rt_hw_interrupt_enable>
    18bc:	8b81a783          	lw	a5,-1864(gp) # 200003d8 <rt_thread_suspend_hook>
    18c0:	4501                	li	a0,0
    18c2:	c781                	beqz	a5,18ca <rt_thread_suspend+0x42>
    18c4:	8522                	mv	a0,s0
    18c6:	9782                	jalr	a5
    18c8:	4501                	li	a0,0
    18ca:	b3dfe06f          	j	406 <__riscv_restore_0>
    18ce:	557d                	li	a0,-1
    18d0:	8082                	ret

000018d2 <rt_thread_sleep>:
    18d2:	b11fe2ef          	jal	t0,3e2 <__riscv_save_0>
    18d6:	1141                	addi	sp,sp,-16
    18d8:	c62a                	sw	a0,12(sp)
    18da:	24e5                	jal	1bc2 <rt_hw_interrupt_disable>
    18dc:	8981a403          	lw	s0,-1896(gp) # 200003b8 <rt_current_thread>
    18e0:	892a                	mv	s2,a0
    18e2:	8522                	mv	a0,s0
    18e4:	3755                	jal	1888 <rt_thread_suspend>
    18e6:	04c40493          	addi	s1,s0,76
    18ea:	0070                	addi	a2,sp,12
    18ec:	4581                	li	a1,0
    18ee:	8526                	mv	a0,s1
    18f0:	22c9                	jal	1ab2 <rt_timer_control>
    18f2:	8526                	mv	a0,s1
    18f4:	2239                	jal	1a02 <rt_timer_start>
    18f6:	854a                	mv	a0,s2
    18f8:	2cd9                	jal	1bce <rt_hw_interrupt_enable>
    18fa:	c89ff0ef          	jal	ra,1582 <rt_schedule>
    18fe:	5818                	lw	a4,48(s0)
    1900:	57f9                	li	a5,-2
    1902:	00f71463          	bne	a4,a5,190a <rt_thread_sleep+0x38>
    1906:	02042823          	sw	zero,48(s0)
    190a:	4501                	li	a0,0
    190c:	0141                	addi	sp,sp,16
    190e:	af9fe06f          	j	406 <__riscv_restore_0>

00001912 <rt_thread_mdelay>:
    1912:	ad1fe2ef          	jal	t0,3e2 <__riscv_save_0>
    1916:	bd3fe0ef          	jal	ra,4e8 <rt_tick_from_millisecond>
    191a:	3f65                	jal	18d2 <rt_thread_sleep>
    191c:	aebfe06f          	j	406 <__riscv_restore_0>

00001920 <rt_thread_resume>:
    1920:	03454783          	lbu	a5,52(a0)
    1924:	4709                	li	a4,2
    1926:	8bbd                	andi	a5,a5,15
    1928:	04e79063          	bne	a5,a4,1968 <rt_thread_resume+0x48>
    192c:	ab7fe2ef          	jal	t0,3e2 <__riscv_save_0>
    1930:	842a                	mv	s0,a0
    1932:	2c41                	jal	1bc2 <rt_hw_interrupt_disable>
    1934:	4854                	lw	a3,20(s0)
    1936:	4c18                	lw	a4,24(s0)
    1938:	01440793          	addi	a5,s0,20
    193c:	84aa                	mv	s1,a0
    193e:	c2d8                	sw	a4,4(a3)
    1940:	c314                	sw	a3,0(a4)
    1942:	cc1c                	sw	a5,24(s0)
    1944:	c85c                	sw	a5,20(s0)
    1946:	04c40513          	addi	a0,s0,76
    194a:	2a25                	jal	1a82 <rt_timer_stop>
    194c:	8526                	mv	a0,s1
    194e:	2441                	jal	1bce <rt_hw_interrupt_enable>
    1950:	8522                	mv	a0,s0
    1952:	c9bff0ef          	jal	ra,15ec <rt_schedule_insert_thread>
    1956:	8b41a783          	lw	a5,-1868(gp) # 200003d4 <rt_thread_resume_hook>
    195a:	4501                	li	a0,0
    195c:	c781                	beqz	a5,1964 <rt_thread_resume+0x44>
    195e:	8522                	mv	a0,s0
    1960:	9782                	jalr	a5
    1962:	4501                	li	a0,0
    1964:	aa3fe06f          	j	406 <__riscv_restore_0>
    1968:	557d                	li	a0,-1
    196a:	8082                	ret

0000196c <rt_thread_startup>:
    196c:	a77fe2ef          	jal	t0,3e2 <__riscv_save_0>
    1970:	03654683          	lbu	a3,54(a0)
    1974:	4705                	li	a4,1
    1976:	00d71733          	sll	a4,a4,a3
    197a:	dd18                	sw	a4,56(a0)
    197c:	4709                	li	a4,2
    197e:	02d50aa3          	sb	a3,53(a0)
    1982:	02e50a23          	sb	a4,52(a0)
    1986:	3f69                	jal	1920 <rt_thread_resume>
    1988:	8981a783          	lw	a5,-1896(gp) # 200003b8 <rt_current_thread>
    198c:	c399                	beqz	a5,1992 <rt_thread_startup+0x26>
    198e:	bf5ff0ef          	jal	ra,1582 <rt_schedule>
    1992:	4501                	li	a0,0
    1994:	a73fe06f          	j	406 <__riscv_restore_0>

00001998 <_rt_timer_remove.part.1>:
    1998:	4954                	lw	a3,20(a0)
    199a:	4d18                	lw	a4,24(a0)
    199c:	01450793          	addi	a5,a0,20
    19a0:	c2d8                	sw	a4,4(a3)
    19a2:	c314                	sw	a3,0(a4)
    19a4:	cd1c                	sw	a5,24(a0)
    19a6:	c95c                	sw	a5,20(a0)
    19a8:	8082                	ret

000019aa <rt_timer_init>:
    19aa:	a39fe2ef          	jal	t0,3e2 <__riscv_save_0>
    19ae:	1141                	addi	sp,sp,-16
    19b0:	84b2                	mv	s1,a2
    19b2:	862e                	mv	a2,a1
    19b4:	45a9                	li	a1,10
    19b6:	842a                	mv	s0,a0
    19b8:	c636                	sw	a3,12(sp)
    19ba:	c43a                	sw	a4,8(sp)
    19bc:	c23e                	sw	a5,4(sp)
    19be:	a4fff0ef          	jal	ra,140c <rt_object_init>
    19c2:	4792                	lw	a5,4(sp)
    19c4:	46b2                	lw	a3,12(sp)
    19c6:	4722                	lw	a4,8(sp)
    19c8:	9bf9                	andi	a5,a5,-2
    19ca:	b41c                	sb	a5,9(s0)
    19cc:	01440793          	addi	a5,s0,20
    19d0:	cc44                	sw	s1,28(s0)
    19d2:	d014                	sw	a3,32(s0)
    19d4:	02042423          	sw	zero,40(s0)
    19d8:	d058                	sw	a4,36(s0)
    19da:	cc1c                	sw	a5,24(s0)
    19dc:	c85c                	sw	a5,20(s0)
    19de:	0141                	addi	sp,sp,16
    19e0:	a27fe06f          	j	406 <__riscv_restore_0>

000019e4 <rt_timer_detach>:
    19e4:	9fffe2ef          	jal	t0,3e2 <__riscv_save_0>
    19e8:	842a                	mv	s0,a0
    19ea:	2ae1                	jal	1bc2 <rt_hw_interrupt_disable>
    19ec:	84aa                	mv	s1,a0
    19ee:	8522                	mv	a0,s0
    19f0:	3765                	jal	1998 <_rt_timer_remove.part.1>
    19f2:	8526                	mv	a0,s1
    19f4:	2ae9                	jal	1bce <rt_hw_interrupt_enable>
    19f6:	8522                	mv	a0,s0
    19f8:	a73ff0ef          	jal	ra,146a <rt_object_detach>
    19fc:	4501                	li	a0,0
    19fe:	a09fe06f          	j	406 <__riscv_restore_0>

00001a02 <rt_timer_start>:
    1a02:	9e1fe2ef          	jal	t0,3e2 <__riscv_save_0>
    1a06:	842a                	mv	s0,a0
    1a08:	2a6d                	jal	1bc2 <rt_hw_interrupt_disable>
    1a0a:	84aa                	mv	s1,a0
    1a0c:	8522                	mv	a0,s0
    1a0e:	3769                	jal	1998 <_rt_timer_remove.part.1>
    1a10:	341c                	lbu	a5,9(s0)
    1a12:	8526                	mv	a0,s1
    1a14:	9bf9                	andi	a5,a5,-2
    1a16:	b41c                	sb	a5,9(s0)
    1a18:	2a5d                	jal	1bce <rt_hw_interrupt_enable>
    1a1a:	88c1a783          	lw	a5,-1908(gp) # 200003ac <rt_object_take_hook>
    1a1e:	c399                	beqz	a5,1a24 <rt_timer_start+0x22>
    1a20:	8522                	mv	a0,s0
    1a22:	9782                	jalr	a5
    1a24:	a97fe0ef          	jal	ra,4ba <rt_tick_get>
    1a28:	505c                	lw	a5,36(s0)
    1a2a:	953e                	add	a0,a0,a5
    1a2c:	d408                	sw	a0,40(s0)
    1a2e:	2a51                	jal	1bc2 <rt_hw_interrupt_disable>
    1a30:	8c818713          	addi	a4,gp,-1848 # 200003e8 <rt_timer_list>
    1a34:	00472803          	lw	a6,4(a4)
    1a38:	80000637          	lui	a2,0x80000
    1a3c:	8c818793          	addi	a5,gp,-1848 # 200003e8 <rt_timer_list>
    1a40:	ffe64613          	xori	a2,a2,-2
    1a44:	4398                	lw	a4,0(a5)
    1a46:	02f81563          	bne	a6,a5,1a70 <rt_timer_start+0x6e>
    1a4a:	8bc18693          	addi	a3,gp,-1860 # 200003dc <random_nr.2483>
    1a4e:	4290                	lw	a2,0(a3)
    1a50:	0605                	addi	a2,a2,1
    1a52:	c290                	sw	a2,0(a3)
    1a54:	01440693          	addi	a3,s0,20
    1a58:	c354                	sw	a3,4(a4)
    1a5a:	c858                	sw	a4,20(s0)
    1a5c:	c394                	sw	a3,0(a5)
    1a5e:	cc1c                	sw	a5,24(s0)
    1a60:	341c                	lbu	a5,9(s0)
    1a62:	0017e793          	ori	a5,a5,1
    1a66:	b41c                	sb	a5,9(s0)
    1a68:	229d                	jal	1bce <rt_hw_interrupt_enable>
    1a6a:	4501                	li	a0,0
    1a6c:	99bfe06f          	j	406 <__riscv_restore_0>
    1a70:	4b54                	lw	a3,20(a4)
    1a72:	540c                	lw	a1,40(s0)
    1a74:	00b68563          	beq	a3,a1,1a7e <rt_timer_start+0x7c>
    1a78:	8e8d                	sub	a3,a3,a1
    1a7a:	fcd678e3          	bgeu	a2,a3,1a4a <rt_timer_start+0x48>
    1a7e:	87ba                	mv	a5,a4
    1a80:	b7d1                	j	1a44 <rt_timer_start+0x42>

00001a82 <rt_timer_stop>:
    1a82:	351c                	lbu	a5,9(a0)
    1a84:	8b85                	andi	a5,a5,1
    1a86:	c785                	beqz	a5,1aae <rt_timer_stop+0x2c>
    1a88:	95bfe2ef          	jal	t0,3e2 <__riscv_save_0>
    1a8c:	8881a783          	lw	a5,-1912(gp) # 200003a8 <rt_object_put_hook>
    1a90:	842a                	mv	s0,a0
    1a92:	c391                	beqz	a5,1a96 <rt_timer_stop+0x14>
    1a94:	9782                	jalr	a5
    1a96:	2235                	jal	1bc2 <rt_hw_interrupt_disable>
    1a98:	84aa                	mv	s1,a0
    1a9a:	8522                	mv	a0,s0
    1a9c:	3df5                	jal	1998 <_rt_timer_remove.part.1>
    1a9e:	8526                	mv	a0,s1
    1aa0:	223d                	jal	1bce <rt_hw_interrupt_enable>
    1aa2:	341c                	lbu	a5,9(s0)
    1aa4:	4501                	li	a0,0
    1aa6:	9bf9                	andi	a5,a5,-2
    1aa8:	b41c                	sb	a5,9(s0)
    1aaa:	95dfe06f          	j	406 <__riscv_restore_0>
    1aae:	557d                	li	a0,-1
    1ab0:	8082                	ret

00001ab2 <rt_timer_control>:
    1ab2:	4785                	li	a5,1
    1ab4:	02f58163          	beq	a1,a5,1ad6 <rt_timer_control+0x24>
    1ab8:	00b7c563          	blt	a5,a1,1ac2 <rt_timer_control+0x10>
    1abc:	c185                	beqz	a1,1adc <rt_timer_control+0x2a>
    1abe:	4501                	li	a0,0
    1ac0:	8082                	ret
    1ac2:	4789                	li	a5,2
    1ac4:	00f58f63          	beq	a1,a5,1ae2 <rt_timer_control+0x30>
    1ac8:	478d                	li	a5,3
    1aca:	fef59ae3          	bne	a1,a5,1abe <rt_timer_control+0xc>
    1ace:	351c                	lbu	a5,9(a0)
    1ad0:	0027e793          	ori	a5,a5,2
    1ad4:	a809                	j	1ae6 <rt_timer_control+0x34>
    1ad6:	515c                	lw	a5,36(a0)
    1ad8:	c21c                	sw	a5,0(a2)
    1ada:	b7d5                	j	1abe <rt_timer_control+0xc>
    1adc:	421c                	lw	a5,0(a2)
    1ade:	d15c                	sw	a5,36(a0)
    1ae0:	bff9                	j	1abe <rt_timer_control+0xc>
    1ae2:	351c                	lbu	a5,9(a0)
    1ae4:	9bf5                	andi	a5,a5,-3
    1ae6:	b51c                	sb	a5,9(a0)
    1ae8:	bfd9                	j	1abe <rt_timer_control+0xc>

00001aea <rt_timer_check>:
    1aea:	8d1fe2ef          	jal	t0,3ba <__riscv_save_10>
    1aee:	9cdfe0ef          	jal	ra,4ba <rt_tick_get>
    1af2:	8c2a                	mv	s8,a0
    1af4:	20f9                	jal	1bc2 <rt_hw_interrupt_disable>
    1af6:	800009b7          	lui	s3,0x80000
    1afa:	8a2a                	mv	s4,a0
    1afc:	8c818493          	addi	s1,gp,-1848 # 200003e8 <rt_timer_list>
    1b00:	ffe9c993          	xori	s3,s3,-2
    1b04:	4b8d                	li	s7,3
    1b06:	4080                	lw	s0,0(s1)
    1b08:	00941663          	bne	s0,s1,1b14 <rt_timer_check+0x2a>
    1b0c:	8552                	mv	a0,s4
    1b0e:	20c1                	jal	1bce <rt_hw_interrupt_enable>
    1b10:	8e3fe06f          	j	3f2 <__riscv_restore_10>
    1b14:	4848                	lw	a0,20(s0)
    1b16:	fec40913          	addi	s2,s0,-20
    1b1a:	40ac0533          	sub	a0,s8,a0
    1b1e:	fea9e7e3          	bltu	s3,a0,1b0c <rt_timer_check+0x22>
    1b22:	8c01a783          	lw	a5,-1856(gp) # 200003e0 <rt_timer_enter_hook>
    1b26:	c399                	beqz	a5,1b2c <rt_timer_check+0x42>
    1b28:	854a                	mv	a0,s2
    1b2a:	9782                	jalr	a5
    1b2c:	854a                	mv	a0,s2
    1b2e:	e6bff0ef          	jal	ra,1998 <_rt_timer_remove.part.1>
    1b32:	441c                	lw	a5,8(s0)
    1b34:	4448                	lw	a0,12(s0)
    1b36:	9782                	jalr	a5
    1b38:	983fe0ef          	jal	ra,4ba <rt_tick_get>
    1b3c:	8c41a783          	lw	a5,-1852(gp) # 200003e4 <rt_timer_exit_hook>
    1b40:	8c2a                	mv	s8,a0
    1b42:	c399                	beqz	a5,1b48 <rt_timer_check+0x5e>
    1b44:	854a                	mv	a0,s2
    1b46:	9782                	jalr	a5
    1b48:	ff544783          	lbu	a5,-11(s0)
    1b4c:	0fe7f713          	andi	a4,a5,254
    1b50:	fee40aa3          	sb	a4,-11(s0)
    1b54:	8b8d                	andi	a5,a5,3
    1b56:	fb7798e3          	bne	a5,s7,1b06 <rt_timer_check+0x1c>
    1b5a:	854a                	mv	a0,s2
    1b5c:	ea7ff0ef          	jal	ra,1a02 <rt_timer_start>
    1b60:	b75d                	j	1b06 <rt_timer_check+0x1c>

00001b62 <rt_system_timer_init>:
    1b62:	8c818793          	addi	a5,gp,-1848 # 200003e8 <rt_timer_list>
    1b66:	c3dc                	sw	a5,4(a5)
    1b68:	c39c                	sw	a5,0(a5)
    1b6a:	8082                	ret

00001b6c <rt_system_timer_thread_init>:
    1b6c:	8082                	ret

00001b6e <rt_hw_stack_init>:
    1b6e:	0611                	addi	a2,a2,4
    1b70:	9a71                	andi	a2,a2,-4
    1b72:	882a                	mv	a6,a0
    1b74:	deadc737          	lui	a4,0xdeadc
    1b78:	f8060513          	addi	a0,a2,-128 # 7fffff80 <_eusrstack+0x5ffeff80>
    1b7c:	87aa                	mv	a5,a0
    1b7e:	eef70713          	addi	a4,a4,-273 # deadbeef <_eusrstack+0xbeacbeef>
    1b82:	00f61e63          	bne	a2,a5,1b9e <rt_hw_stack_init+0x30>
    1b86:	67a1                	lui	a5,0x8
    1b88:	88078793          	addi	a5,a5,-1920 # 7880 <__muldf3+0x466>
    1b8c:	f8d62223          	sw	a3,-124(a2)
    1b90:	fab62423          	sw	a1,-88(a2)
    1b94:	f9062023          	sw	a6,-128(a2)
    1b98:	f8f62423          	sw	a5,-120(a2)
    1b9c:	8082                	ret
    1b9e:	c398                	sw	a4,0(a5)
    1ba0:	0791                	addi	a5,a5,4
    1ba2:	b7c5                	j	1b82 <rt_hw_stack_init+0x14>

00001ba4 <sw_setpend>:
    1ba4:	e000f737          	lui	a4,0xe000f
    1ba8:	431c                	lw	a5,0(a4)
    1baa:	800006b7          	lui	a3,0x80000
    1bae:	8fd5                	or	a5,a5,a3
    1bb0:	c31c                	sw	a5,0(a4)
    1bb2:	8082                	ret

00001bb4 <sw_clearpend>:
    1bb4:	e000f737          	lui	a4,0xe000f
    1bb8:	431c                	lw	a5,0(a4)
    1bba:	0786                	slli	a5,a5,0x1
    1bbc:	8385                	srli	a5,a5,0x1
    1bbe:	c31c                	sw	a5,0(a4)
    1bc0:	8082                	ret

00001bc2 <rt_hw_interrupt_disable>:
    1bc2:	6521                	lui	a0,0x8
    1bc4:	80050513          	addi	a0,a0,-2048 # 7800 <__muldf3+0x3e6>
    1bc8:	30051573          	csrrw	a0,mstatus,a0
    1bcc:	8082                	ret

00001bce <rt_hw_interrupt_enable>:
    1bce:	30051073          	csrw	mstatus,a0
    1bd2:	8082                	ret

00001bd4 <rt_hw_context_switch_interrupt>:
    1bd4:	80ffe2ef          	jal	t0,3e2 <__riscv_save_0>
    1bd8:	8d818713          	addi	a4,gp,-1832 # 200003f8 <rt_thread_switch_interrupt_flag>
    1bdc:	4318                	lw	a4,0(a4)
    1bde:	8d818793          	addi	a5,gp,-1832 # 200003f8 <rt_thread_switch_interrupt_flag>
    1be2:	e319                	bnez	a4,1be8 <rt_hw_context_switch_interrupt+0x14>
    1be4:	8ca1a823          	sw	a0,-1840(gp) # 200003f0 <rt_interrupt_from_thread>
    1be8:	8cb1aa23          	sw	a1,-1836(gp) # 200003f4 <rt_interrupt_to_thread>
    1bec:	4705                	li	a4,1
    1bee:	c398                	sw	a4,0(a5)
    1bf0:	3f55                	jal	1ba4 <sw_setpend>
    1bf2:	815fe06f          	j	406 <__riscv_restore_0>

00001bf6 <rt_list_len>:
    1bf6:	872a                	mv	a4,a0
    1bf8:	4781                	li	a5,0
    1bfa:	4318                	lw	a4,0(a4)
    1bfc:	00a71463          	bne	a4,a0,1c04 <rt_list_len+0xe>
    1c00:	853e                	mv	a0,a5
    1c02:	8082                	ret
    1c04:	0785                	addi	a5,a5,1
    1c06:	bfd5                	j	1bfa <rt_list_len+0x4>

00001c08 <reboot>:
    1c08:	beef07b7          	lui	a5,0xbeef0
    1c0c:	e000e737          	lui	a4,0xe000e
    1c10:	08078793          	addi	a5,a5,128 # beef0080 <_eusrstack+0x9eee0080>
    1c14:	c73c                	sw	a5,72(a4)
    1c16:	4501                	li	a0,0
    1c18:	8082                	ret

00001c1a <clear>:
    1c1a:	fc8fe2ef          	jal	t0,3e2 <__riscv_save_0>
    1c1e:	0000a537          	lui	a0,0xa
    1c22:	17c50513          	addi	a0,a0,380 # a17c <__fsym_list_mem_name+0x9c>
    1c26:	bc8ff0ef          	jal	ra,fee <rt_kprintf>
    1c2a:	4501                	li	a0,0
    1c2c:	fdafe06f          	j	406 <__riscv_restore_0>

00001c30 <object_split>:
    1c30:	fb2fe2ef          	jal	t0,3e2 <__riscv_save_0>
    1c34:	842a                	mv	s0,a0
    1c36:	54fd                	li	s1,-1
    1c38:	0000b937          	lui	s2,0xb
    1c3c:	147d                	addi	s0,s0,-1
    1c3e:	00941463          	bne	s0,s1,1c46 <object_split+0x16>
    1c42:	fc4fe06f          	j	406 <__riscv_restore_0>
    1c46:	8e490513          	addi	a0,s2,-1820 # a8e4 <__fsym_reboot_name+0x8>
    1c4a:	ba4ff0ef          	jal	ra,fee <rt_kprintf>
    1c4e:	b7fd                	j	1c3c <object_split+0xc>

00001c50 <show_wait_queue>:
    1c50:	f78fe2ef          	jal	t0,3c8 <__riscv_save_4>
    1c54:	4100                	lw	s0,0(a0)
    1c56:	84aa                	mv	s1,a0
    1c58:	0000b937          	lui	s2,0xb
    1c5c:	0000b9b7          	lui	s3,0xb
    1c60:	00941463          	bne	s0,s1,1c68 <show_wait_queue+0x18>
    1c64:	f98fe06f          	j	3fc <__riscv_restore_4>
    1c68:	fec40593          	addi	a1,s0,-20
    1c6c:	8e890513          	addi	a0,s2,-1816 # a8e8 <__fsym_reboot_name+0xc>
    1c70:	b7eff0ef          	jal	ra,fee <rt_kprintf>
    1c74:	401c                	lw	a5,0(s0)
    1c76:	00978663          	beq	a5,s1,1c82 <show_wait_queue+0x32>
    1c7a:	8ec98513          	addi	a0,s3,-1812 # a8ec <__fsym_reboot_name+0x10>
    1c7e:	b70ff0ef          	jal	ra,fee <rt_kprintf>
    1c82:	4000                	lw	s0,0(s0)
    1c84:	bff1                	j	1c60 <show_wait_queue+0x10>

00001c86 <object_name_maxlen>:
    1c86:	f5cfe2ef          	jal	t0,3e2 <__riscv_save_0>
    1c8a:	892e                	mv	s2,a1
    1c8c:	fc9fe0ef          	jal	ra,c54 <rt_strlen>
    1c90:	842a                	mv	s0,a0
    1c92:	9e5ff0ef          	jal	ra,1676 <rt_enter_critical>
    1c96:	00092483          	lw	s1,0(s2)
    1c9a:	01249c63          	bne	s1,s2,1cb2 <object_name_maxlen+0x2c>
    1c9e:	9efff0ef          	jal	ra,168c <rt_exit_critical>
    1ca2:	47a1                	li	a5,8
    1ca4:	0087c363          	blt	a5,s0,1caa <object_name_maxlen+0x24>
    1ca8:	e011                	bnez	s0,1cac <object_name_maxlen+0x26>
    1caa:	4421                	li	s0,8
    1cac:	8522                	mv	a0,s0
    1cae:	f58fe06f          	j	406 <__riscv_restore_0>
    1cb2:	ff448513          	addi	a0,s1,-12
    1cb6:	f9ffe0ef          	jal	ra,c54 <rt_strlen>
    1cba:	00a45363          	bge	s0,a0,1cc0 <object_name_maxlen+0x3a>
    1cbe:	842a                	mv	s0,a0
    1cc0:	4084                	lw	s1,0(s1)
    1cc2:	bfe1                	j	1c9a <object_name_maxlen+0x14>

00001cc4 <list_thread>:
    1cc4:	ef6fe2ef          	jal	t0,3ba <__riscv_save_10>
    1cc8:	4505                	li	a0,1
    1cca:	f18ff0ef          	jal	ra,13e2 <rt_object_get_information>
    1cce:	0000a9b7          	lui	s3,0xa
    1cd2:	00450913          	addi	s2,a0,4
    1cd6:	842a                	mv	s0,a0
    1cd8:	85ca                	mv	a1,s2
    1cda:	43098513          	addi	a0,s3,1072 # a430 <__fsym_list_mem_name+0x350>
    1cde:	3765                	jal	1c86 <object_name_maxlen>
    1ce0:	85aa                	mv	a1,a0
    1ce2:	84aa                	mv	s1,a0
    1ce4:	0000a537          	lui	a0,0xa
    1ce8:	43098613          	addi	a2,s3,1072
    1cec:	43850513          	addi	a0,a0,1080 # a438 <__fsym_list_mem_name+0x358>
    1cf0:	afeff0ef          	jal	ra,fee <rt_kprintf>
    1cf4:	8526                	mv	a0,s1
    1cf6:	f3bff0ef          	jal	ra,1c30 <object_split>
    1cfa:	0000a537          	lui	a0,0xa
    1cfe:	47c50513          	addi	a0,a0,1148 # a47c <__fsym_list_mem_name+0x39c>
    1d02:	aecff0ef          	jal	ra,fee <rt_kprintf>
    1d06:	4040                	lw	s0,4(s0)
    1d08:	0000a9b7          	lui	s3,0xa
    1d0c:	4a05                	li	s4,1
    1d0e:	4a89                	li	s5,2
    1d10:	0000ab37          	lui	s6,0xa
    1d14:	0000abb7          	lui	s7,0xa
    1d18:	0000ac37          	lui	s8,0xa
    1d1c:	0000acb7          	lui	s9,0xa
    1d20:	0000ad37          	lui	s10,0xa
    1d24:	00891563          	bne	s2,s0,1d2e <list_thread+0x6a>
    1d28:	4501                	li	a0,0
    1d2a:	ec8fe06f          	j	3f2 <__riscv_restore_10>
    1d2e:	02944703          	lbu	a4,41(s0)
    1d32:	4bc98513          	addi	a0,s3,1212 # a4bc <__fsym_list_mem_name+0x3dc>
    1d36:	ff440693          	addi	a3,s0,-12
    1d3a:	4621                	li	a2,8
    1d3c:	85a6                	mv	a1,s1
    1d3e:	ab0ff0ef          	jal	ra,fee <rt_kprintf>
    1d42:	02844783          	lbu	a5,40(s0)
    1d46:	4c8c8513          	addi	a0,s9,1224 # a4c8 <__fsym_list_mem_name+0x3e8>
    1d4a:	8bbd                	andi	a5,a5,15
    1d4c:	01478e63          	beq	a5,s4,1d68 <list_thread+0xa4>
    1d50:	4d4c0513          	addi	a0,s8,1236 # a4d4 <__fsym_list_mem_name+0x3f4>
    1d54:	01578a63          	beq	a5,s5,1d68 <list_thread+0xa4>
    1d58:	4e0b8513          	addi	a0,s7,1248 # a4e0 <__fsym_list_mem_name+0x400>
    1d5c:	c791                	beqz	a5,1d68 <list_thread+0xa4>
    1d5e:	4711                	li	a4,4
    1d60:	00e79663          	bne	a5,a4,1d6c <list_thread+0xa8>
    1d64:	4ecb0513          	addi	a0,s6,1260 # a4ec <__fsym_list_mem_name+0x40c>
    1d68:	a86ff0ef          	jal	ra,fee <rt_kprintf>
    1d6c:	4c4c                	lw	a1,28(s0)
    1d6e:	02300793          	li	a5,35
    1d72:	86ae                	mv	a3,a1
    1d74:	2298                	lbu	a4,0(a3)
    1d76:	02f70663          	beq	a4,a5,1da2 <list_thread+0xde>
    1d7a:	5010                	lw	a2,32(s0)
    1d7c:	06400793          	li	a5,100
    1d80:	4808                	lw	a0,16(s0)
    1d82:	95b2                	add	a1,a1,a2
    1d84:	40d586b3          	sub	a3,a1,a3
    1d88:	02f686b3          	mul	a3,a3,a5
    1d8c:	5c58                	lw	a4,60(s0)
    1d8e:	505c                	lw	a5,36(s0)
    1d90:	8d89                	sub	a1,a1,a0
    1d92:	4f8d0513          	addi	a0,s10,1272 # a4f8 <__fsym_list_mem_name+0x418>
    1d96:	02c6d6b3          	divu	a3,a3,a2
    1d9a:	a54ff0ef          	jal	ra,fee <rt_kprintf>
    1d9e:	4000                	lw	s0,0(s0)
    1da0:	b751                	j	1d24 <list_thread+0x60>
    1da2:	0685                	addi	a3,a3,1
    1da4:	bfc1                	j	1d74 <list_thread+0xb0>

00001da6 <list_sem>:
    1da6:	e22fe2ef          	jal	t0,3c8 <__riscv_save_4>
    1daa:	1141                	addi	sp,sp,-16
    1dac:	4509                	li	a0,2
    1dae:	e34ff0ef          	jal	ra,13e2 <rt_object_get_information>
    1db2:	00450993          	addi	s3,a0,4
    1db6:	0000a937          	lui	s2,0xa
    1dba:	842a                	mv	s0,a0
    1dbc:	85ce                	mv	a1,s3
    1dbe:	3d090513          	addi	a0,s2,976 # a3d0 <__fsym_list_mem_name+0x2f0>
    1dc2:	ec5ff0ef          	jal	ra,1c86 <object_name_maxlen>
    1dc6:	85aa                	mv	a1,a0
    1dc8:	84aa                	mv	s1,a0
    1dca:	0000a537          	lui	a0,0xa
    1dce:	3d090613          	addi	a2,s2,976
    1dd2:	3dc50513          	addi	a0,a0,988 # a3dc <__fsym_list_mem_name+0x2fc>
    1dd6:	a18ff0ef          	jal	ra,fee <rt_kprintf>
    1dda:	8526                	mv	a0,s1
    1ddc:	e55ff0ef          	jal	ra,1c30 <object_split>
    1de0:	0000a537          	lui	a0,0xa
    1de4:	3f850513          	addi	a0,a0,1016 # a3f8 <__fsym_list_mem_name+0x318>
    1de8:	a06ff0ef          	jal	ra,fee <rt_kprintf>
    1dec:	4040                	lw	s0,4(s0)
    1dee:	0000aa37          	lui	s4,0xa
    1df2:	0000aab7          	lui	s5,0xa
    1df6:	0000db37          	lui	s6,0xd
    1dfa:	00899663          	bne	s3,s0,1e06 <list_sem+0x60>
    1dfe:	4501                	li	a0,0
    1e00:	0141                	addi	sp,sp,16
    1e02:	dfafe06f          	j	3fc <__riscv_restore_4>
    1e06:	281a                	lhu	a4,16(s0)
    1e08:	441c                	lw	a5,8(s0)
    1e0a:	ff440693          	addi	a3,s0,-12
    1e0e:	00840913          	addi	s2,s0,8
    1e12:	c636                	sw	a3,12(sp)
    1e14:	c43a                	sw	a4,8(sp)
    1e16:	854a                	mv	a0,s2
    1e18:	02f90663          	beq	s2,a5,1e44 <list_sem+0x9e>
    1e1c:	ddbff0ef          	jal	ra,1bf6 <rt_list_len>
    1e20:	4722                	lw	a4,8(sp)
    1e22:	46b2                	lw	a3,12(sp)
    1e24:	87aa                	mv	a5,a0
    1e26:	4621                	li	a2,8
    1e28:	85a6                	mv	a1,s1
    1e2a:	410a8513          	addi	a0,s5,1040 # a410 <__fsym_list_mem_name+0x330>
    1e2e:	9c0ff0ef          	jal	ra,fee <rt_kprintf>
    1e32:	854a                	mv	a0,s2
    1e34:	e1dff0ef          	jal	ra,1c50 <show_wait_queue>
    1e38:	8a4b0513          	addi	a0,s6,-1884 # c8a4 <Font7x10+0x800>
    1e3c:	9b2ff0ef          	jal	ra,fee <rt_kprintf>
    1e40:	4000                	lw	s0,0(s0)
    1e42:	bf65                	j	1dfa <list_sem+0x54>
    1e44:	db3ff0ef          	jal	ra,1bf6 <rt_list_len>
    1e48:	4722                	lw	a4,8(sp)
    1e4a:	46b2                	lw	a3,12(sp)
    1e4c:	87aa                	mv	a5,a0
    1e4e:	4621                	li	a2,8
    1e50:	85a6                	mv	a1,s1
    1e52:	420a0513          	addi	a0,s4,1056 # a420 <__fsym_list_mem_name+0x340>
    1e56:	998ff0ef          	jal	ra,fee <rt_kprintf>
    1e5a:	b7dd                	j	1e40 <list_sem+0x9a>

00001e5c <list_event>:
    1e5c:	d6cfe2ef          	jal	t0,3c8 <__riscv_save_4>
    1e60:	1141                	addi	sp,sp,-16
    1e62:	4511                	li	a0,4
    1e64:	d7eff0ef          	jal	ra,13e2 <rt_object_get_information>
    1e68:	00450993          	addi	s3,a0,4
    1e6c:	0000a937          	lui	s2,0xa
    1e70:	842a                	mv	s0,a0
    1e72:	85ce                	mv	a1,s3
    1e74:	21490513          	addi	a0,s2,532 # a214 <__fsym_list_mem_name+0x134>
    1e78:	e0fff0ef          	jal	ra,1c86 <object_name_maxlen>
    1e7c:	85aa                	mv	a1,a0
    1e7e:	84aa                	mv	s1,a0
    1e80:	0000a537          	lui	a0,0xa
    1e84:	21490613          	addi	a2,s2,532
    1e88:	21c50513          	addi	a0,a0,540 # a21c <__fsym_list_mem_name+0x13c>
    1e8c:	962ff0ef          	jal	ra,fee <rt_kprintf>
    1e90:	8526                	mv	a0,s1
    1e92:	d9fff0ef          	jal	ra,1c30 <object_split>
    1e96:	0000a537          	lui	a0,0xa
    1e9a:	24050513          	addi	a0,a0,576 # a240 <__fsym_list_mem_name+0x160>
    1e9e:	950ff0ef          	jal	ra,fee <rt_kprintf>
    1ea2:	4040                	lw	s0,4(s0)
    1ea4:	0000aa37          	lui	s4,0xa
    1ea8:	0000aab7          	lui	s5,0xa
    1eac:	0000db37          	lui	s6,0xd
    1eb0:	00899663          	bne	s3,s0,1ebc <list_event+0x60>
    1eb4:	4501                	li	a0,0
    1eb6:	0141                	addi	sp,sp,16
    1eb8:	d44fe06f          	j	3fc <__riscv_restore_4>
    1ebc:	441c                	lw	a5,8(s0)
    1ebe:	00840913          	addi	s2,s0,8
    1ec2:	ff440693          	addi	a3,s0,-12
    1ec6:	4818                	lw	a4,16(s0)
    1ec8:	02f90963          	beq	s2,a5,1efa <list_event+0x9e>
    1ecc:	854a                	mv	a0,s2
    1ece:	c636                	sw	a3,12(sp)
    1ed0:	c43a                	sw	a4,8(sp)
    1ed2:	d25ff0ef          	jal	ra,1bf6 <rt_list_len>
    1ed6:	4722                	lw	a4,8(sp)
    1ed8:	46b2                	lw	a3,12(sp)
    1eda:	87aa                	mv	a5,a0
    1edc:	4621                	li	a2,8
    1ede:	85a6                	mv	a1,s1
    1ee0:	260a8513          	addi	a0,s5,608 # a260 <__fsym_list_mem_name+0x180>
    1ee4:	90aff0ef          	jal	ra,fee <rt_kprintf>
    1ee8:	854a                	mv	a0,s2
    1eea:	d67ff0ef          	jal	ra,1c50 <show_wait_queue>
    1eee:	8a4b0513          	addi	a0,s6,-1884 # c8a4 <Font7x10+0x800>
    1ef2:	8fcff0ef          	jal	ra,fee <rt_kprintf>
    1ef6:	4000                	lw	s0,0(s0)
    1ef8:	bf65                	j	1eb0 <list_event+0x54>
    1efa:	4621                	li	a2,8
    1efc:	85a6                	mv	a1,s1
    1efe:	278a0513          	addi	a0,s4,632 # a278 <__fsym_list_mem_name+0x198>
    1f02:	8ecff0ef          	jal	ra,fee <rt_kprintf>
    1f06:	bfc5                	j	1ef6 <list_event+0x9a>

00001f08 <list_mutex>:
    1f08:	cc0fe2ef          	jal	t0,3c8 <__riscv_save_4>
    1f0c:	1141                	addi	sp,sp,-16
    1f0e:	450d                	li	a0,3
    1f10:	cd2ff0ef          	jal	ra,13e2 <rt_object_get_information>
    1f14:	0000a9b7          	lui	s3,0xa
    1f18:	00450913          	addi	s2,a0,4
    1f1c:	842a                	mv	s0,a0
    1f1e:	85ca                	mv	a1,s2
    1f20:	36c98513          	addi	a0,s3,876 # a36c <__fsym_list_mem_name+0x28c>
    1f24:	d63ff0ef          	jal	ra,1c86 <object_name_maxlen>
    1f28:	85aa                	mv	a1,a0
    1f2a:	84aa                	mv	s1,a0
    1f2c:	0000a537          	lui	a0,0xa
    1f30:	36c98613          	addi	a2,s3,876
    1f34:	37450513          	addi	a0,a0,884 # a374 <__fsym_list_mem_name+0x294>
    1f38:	8b6ff0ef          	jal	ra,fee <rt_kprintf>
    1f3c:	8526                	mv	a0,s1
    1f3e:	cf3ff0ef          	jal	ra,1c30 <object_split>
    1f42:	0000a537          	lui	a0,0xa
    1f46:	39850513          	addi	a0,a0,920 # a398 <__fsym_list_mem_name+0x2b8>
    1f4a:	8a4ff0ef          	jal	ra,fee <rt_kprintf>
    1f4e:	4040                	lw	s0,4(s0)
    1f50:	0000a9b7          	lui	s3,0xa
    1f54:	00891663          	bne	s2,s0,1f60 <list_mutex+0x58>
    1f58:	4501                	li	a0,0
    1f5a:	0141                	addi	sp,sp,16
    1f5c:	ca0fe06f          	j	3fc <__riscv_restore_4>
    1f60:	ff440693          	addi	a3,s0,-12
    1f64:	00840513          	addi	a0,s0,8
    1f68:	c636                	sw	a3,12(sp)
    1f6a:	c8dff0ef          	jal	ra,1bf6 <rt_list_len>
    1f6e:	01344803          	lbu	a6,19(s0)
    1f72:	485c                	lw	a5,20(s0)
    1f74:	46b2                	lw	a3,12(sp)
    1f76:	88aa                	mv	a7,a0
    1f78:	4721                	li	a4,8
    1f7a:	4621                	li	a2,8
    1f7c:	85a6                	mv	a1,s1
    1f7e:	3b898513          	addi	a0,s3,952 # a3b8 <__fsym_list_mem_name+0x2d8>
    1f82:	86cff0ef          	jal	ra,fee <rt_kprintf>
    1f86:	4000                	lw	s0,0(s0)
    1f88:	b7f1                	j	1f54 <list_mutex+0x4c>

00001f8a <list_mailbox>:
    1f8a:	c3efe2ef          	jal	t0,3c8 <__riscv_save_4>
    1f8e:	1141                	addi	sp,sp,-16
    1f90:	4515                	li	a0,5
    1f92:	c50ff0ef          	jal	ra,13e2 <rt_object_get_information>
    1f96:	00450993          	addi	s3,a0,4
    1f9a:	0000a937          	lui	s2,0xa
    1f9e:	842a                	mv	s0,a0
    1fa0:	85ce                	mv	a1,s3
    1fa2:	28c90513          	addi	a0,s2,652 # a28c <__fsym_list_mem_name+0x1ac>
    1fa6:	ce1ff0ef          	jal	ra,1c86 <object_name_maxlen>
    1faa:	85aa                	mv	a1,a0
    1fac:	84aa                	mv	s1,a0
    1fae:	0000a537          	lui	a0,0xa
    1fb2:	28c90613          	addi	a2,s2,652
    1fb6:	29450513          	addi	a0,a0,660 # a294 <__fsym_list_mem_name+0x1b4>
    1fba:	834ff0ef          	jal	ra,fee <rt_kprintf>
    1fbe:	8526                	mv	a0,s1
    1fc0:	c71ff0ef          	jal	ra,1c30 <object_split>
    1fc4:	0000a537          	lui	a0,0xa
    1fc8:	2b850513          	addi	a0,a0,696 # a2b8 <__fsym_list_mem_name+0x1d8>
    1fcc:	822ff0ef          	jal	ra,fee <rt_kprintf>
    1fd0:	4040                	lw	s0,4(s0)
    1fd2:	0000aa37          	lui	s4,0xa
    1fd6:	0000aab7          	lui	s5,0xa
    1fda:	0000db37          	lui	s6,0xd
    1fde:	00899663          	bne	s3,s0,1fea <list_mailbox+0x60>
    1fe2:	4501                	li	a0,0
    1fe4:	0141                	addi	sp,sp,16
    1fe6:	c16fe06f          	j	3fc <__riscv_restore_4>
    1fea:	287a                	lhu	a4,22(s0)
    1fec:	285e                	lhu	a5,20(s0)
    1fee:	4410                	lw	a2,8(s0)
    1ff0:	ff440693          	addi	a3,s0,-12
    1ff4:	00840913          	addi	s2,s0,8
    1ff8:	c636                	sw	a3,12(sp)
    1ffa:	c43a                	sw	a4,8(sp)
    1ffc:	c23e                	sw	a5,4(sp)
    1ffe:	854a                	mv	a0,s2
    2000:	02c90763          	beq	s2,a2,202e <list_mailbox+0xa4>
    2004:	bf3ff0ef          	jal	ra,1bf6 <rt_list_len>
    2008:	4792                	lw	a5,4(sp)
    200a:	4722                	lw	a4,8(sp)
    200c:	46b2                	lw	a3,12(sp)
    200e:	882a                	mv	a6,a0
    2010:	4621                	li	a2,8
    2012:	85a6                	mv	a1,s1
    2014:	2d4a8513          	addi	a0,s5,724 # a2d4 <__fsym_list_mem_name+0x1f4>
    2018:	fd7fe0ef          	jal	ra,fee <rt_kprintf>
    201c:	854a                	mv	a0,s2
    201e:	c33ff0ef          	jal	ra,1c50 <show_wait_queue>
    2022:	8a4b0513          	addi	a0,s6,-1884 # c8a4 <Font7x10+0x800>
    2026:	fc9fe0ef          	jal	ra,fee <rt_kprintf>
    202a:	4000                	lw	s0,0(s0)
    202c:	bf4d                	j	1fde <list_mailbox+0x54>
    202e:	bc9ff0ef          	jal	ra,1bf6 <rt_list_len>
    2032:	4792                	lw	a5,4(sp)
    2034:	4722                	lw	a4,8(sp)
    2036:	46b2                	lw	a3,12(sp)
    2038:	882a                	mv	a6,a0
    203a:	4621                	li	a2,8
    203c:	85a6                	mv	a1,s1
    203e:	2eca0513          	addi	a0,s4,748 # a2ec <__fsym_list_mem_name+0x20c>
    2042:	fadfe0ef          	jal	ra,fee <rt_kprintf>
    2046:	b7d5                	j	202a <list_mailbox+0xa0>

00002048 <list_msgqueue>:
    2048:	b80fe2ef          	jal	t0,3c8 <__riscv_save_4>
    204c:	1141                	addi	sp,sp,-16
    204e:	4519                	li	a0,6
    2050:	b92ff0ef          	jal	ra,13e2 <rt_object_get_information>
    2054:	00450993          	addi	s3,a0,4
    2058:	0000a937          	lui	s2,0xa
    205c:	842a                	mv	s0,a0
    205e:	85ce                	mv	a1,s3
    2060:	30490513          	addi	a0,s2,772 # a304 <__fsym_list_mem_name+0x224>
    2064:	c23ff0ef          	jal	ra,1c86 <object_name_maxlen>
    2068:	85aa                	mv	a1,a0
    206a:	84aa                	mv	s1,a0
    206c:	0000a537          	lui	a0,0xa
    2070:	30490613          	addi	a2,s2,772
    2074:	31050513          	addi	a0,a0,784 # a310 <__fsym_list_mem_name+0x230>
    2078:	f77fe0ef          	jal	ra,fee <rt_kprintf>
    207c:	8526                	mv	a0,s1
    207e:	bb3ff0ef          	jal	ra,1c30 <object_split>
    2082:	0000a537          	lui	a0,0xa
    2086:	32c50513          	addi	a0,a0,812 # a32c <__fsym_list_mem_name+0x24c>
    208a:	f65fe0ef          	jal	ra,fee <rt_kprintf>
    208e:	4040                	lw	s0,4(s0)
    2090:	0000aa37          	lui	s4,0xa
    2094:	0000aab7          	lui	s5,0xa
    2098:	0000db37          	lui	s6,0xd
    209c:	00899663          	bne	s3,s0,20a8 <list_msgqueue+0x60>
    20a0:	4501                	li	a0,0
    20a2:	0141                	addi	sp,sp,16
    20a4:	b58fe06f          	j	3fc <__riscv_restore_4>
    20a8:	2c1a                	lhu	a4,24(s0)
    20aa:	441c                	lw	a5,8(s0)
    20ac:	ff440693          	addi	a3,s0,-12
    20b0:	00840913          	addi	s2,s0,8
    20b4:	c636                	sw	a3,12(sp)
    20b6:	c43a                	sw	a4,8(sp)
    20b8:	854a                	mv	a0,s2
    20ba:	02f90663          	beq	s2,a5,20e6 <list_msgqueue+0x9e>
    20be:	b39ff0ef          	jal	ra,1bf6 <rt_list_len>
    20c2:	4722                	lw	a4,8(sp)
    20c4:	46b2                	lw	a3,12(sp)
    20c6:	87aa                	mv	a5,a0
    20c8:	4621                	li	a2,8
    20ca:	85a6                	mv	a1,s1
    20cc:	344a8513          	addi	a0,s5,836 # a344 <__fsym_list_mem_name+0x264>
    20d0:	f1ffe0ef          	jal	ra,fee <rt_kprintf>
    20d4:	854a                	mv	a0,s2
    20d6:	b7bff0ef          	jal	ra,1c50 <show_wait_queue>
    20da:	8a4b0513          	addi	a0,s6,-1884 # c8a4 <Font7x10+0x800>
    20de:	f11fe0ef          	jal	ra,fee <rt_kprintf>
    20e2:	4000                	lw	s0,0(s0)
    20e4:	bf65                	j	209c <list_msgqueue+0x54>
    20e6:	b11ff0ef          	jal	ra,1bf6 <rt_list_len>
    20ea:	4722                	lw	a4,8(sp)
    20ec:	46b2                	lw	a3,12(sp)
    20ee:	87aa                	mv	a5,a0
    20f0:	4621                	li	a2,8
    20f2:	85a6                	mv	a1,s1
    20f4:	358a0513          	addi	a0,s4,856 # a358 <__fsym_list_mem_name+0x278>
    20f8:	ef7fe0ef          	jal	ra,fee <rt_kprintf>
    20fc:	b7dd                	j	20e2 <list_msgqueue+0x9a>

000020fe <list_device>:
    20fe:	acafe2ef          	jal	t0,3c8 <__riscv_save_4>
    2102:	715d                	addi	sp,sp,-80
    2104:	4525                	li	a0,9
    2106:	adcff0ef          	jal	ra,13e2 <rt_object_get_information>
    210a:	65a9                	lui	a1,0xa
    210c:	05000613          	li	a2,80
    2110:	842a                	mv	s0,a0
    2112:	00450913          	addi	s2,a0,4
    2116:	e0858593          	addi	a1,a1,-504 # 9e08 <_read+0x10>
    211a:	850a                	mv	a0,sp
    211c:	05d060ef          	jal	ra,8978 <memcpy>
    2120:	0000a9b7          	lui	s3,0xa
    2124:	85ca                	mv	a1,s2
    2126:	1ac98513          	addi	a0,s3,428 # a1ac <__fsym_list_mem_name+0xcc>
    212a:	b5dff0ef          	jal	ra,1c86 <object_name_maxlen>
    212e:	85aa                	mv	a1,a0
    2130:	84aa                	mv	s1,a0
    2132:	0000a537          	lui	a0,0xa
    2136:	1ac98613          	addi	a2,s3,428
    213a:	1b450513          	addi	a0,a0,436 # a1b4 <__fsym_list_mem_name+0xd4>
    213e:	eb1fe0ef          	jal	ra,fee <rt_kprintf>
    2142:	8526                	mv	a0,s1
    2144:	aedff0ef          	jal	ra,1c30 <object_split>
    2148:	0000a537          	lui	a0,0xa
    214c:	1dc50513          	addi	a0,a0,476 # a1dc <__fsym_list_mem_name+0xfc>
    2150:	e9ffe0ef          	jal	ra,fee <rt_kprintf>
    2154:	4040                	lw	s0,4(s0)
    2156:	49d1                	li	s3,20
    2158:	0000aa37          	lui	s4,0xa
    215c:	00891663          	bne	s2,s0,2168 <list_device+0x6a>
    2160:	4501                	li	a0,0
    2162:	6161                	addi	sp,sp,80
    2164:	a98fe06f          	j	3fc <__riscv_restore_4>
    2168:	441c                	lw	a5,8(s0)
    216a:	ff440693          	addi	a3,s0,-12
    216e:	02f9e063          	bltu	s3,a5,218e <list_device+0x90>
    2172:	0898                	addi	a4,sp,80
    2174:	078a                	slli	a5,a5,0x2
    2176:	97ba                	add	a5,a5,a4
    2178:	fb07a703          	lw	a4,-80(a5)
    217c:	281c                	lbu	a5,16(s0)
    217e:	4621                	li	a2,8
    2180:	85a6                	mv	a1,s1
    2182:	200a0513          	addi	a0,s4,512 # a200 <__fsym_list_mem_name+0x120>
    2186:	e69fe0ef          	jal	ra,fee <rt_kprintf>
    218a:	4000                	lw	s0,0(s0)
    218c:	bfc1                	j	215c <list_device+0x5e>
    218e:	4746                	lw	a4,80(sp)
    2190:	b7f5                	j	217c <list_device+0x7e>

00002192 <list_timer>:
    2192:	a36fe2ef          	jal	t0,3c8 <__riscv_save_4>
    2196:	4529                	li	a0,10
    2198:	a4aff0ef          	jal	ra,13e2 <rt_object_get_information>
    219c:	0000a9b7          	lui	s3,0xa
    21a0:	00450913          	addi	s2,a0,4
    21a4:	842a                	mv	s0,a0
    21a6:	85ca                	mv	a1,s2
    21a8:	52098513          	addi	a0,s3,1312 # a520 <__fsym_list_mem_name+0x440>
    21ac:	adbff0ef          	jal	ra,1c86 <object_name_maxlen>
    21b0:	85aa                	mv	a1,a0
    21b2:	84aa                	mv	s1,a0
    21b4:	0000a537          	lui	a0,0xa
    21b8:	52098613          	addi	a2,s3,1312
    21bc:	52850513          	addi	a0,a0,1320 # a528 <__fsym_list_mem_name+0x448>
    21c0:	e2ffe0ef          	jal	ra,fee <rt_kprintf>
    21c4:	8526                	mv	a0,s1
    21c6:	a6bff0ef          	jal	ra,1c30 <object_split>
    21ca:	0000a537          	lui	a0,0xa
    21ce:	55050513          	addi	a0,a0,1360 # a550 <__fsym_list_mem_name+0x470>
    21d2:	e1dfe0ef          	jal	ra,fee <rt_kprintf>
    21d6:	4040                	lw	s0,4(s0)
    21d8:	0000a9b7          	lui	s3,0xa
    21dc:	0000aa37          	lui	s4,0xa
    21e0:	0000aab7          	lui	s5,0xa
    21e4:	00891e63          	bne	s2,s0,2200 <list_timer+0x6e>
    21e8:	ad2fe0ef          	jal	ra,4ba <rt_tick_get>
    21ec:	85aa                	mv	a1,a0
    21ee:	0000a537          	lui	a0,0xa
    21f2:	5a850513          	addi	a0,a0,1448 # a5a8 <__fsym_list_mem_name+0x4c8>
    21f6:	df9fe0ef          	jal	ra,fee <rt_kprintf>
    21fa:	4501                	li	a0,0
    21fc:	a00fe06f          	j	3fc <__riscv_restore_4>
    2200:	4c5c                	lw	a5,28(s0)
    2202:	4c18                	lw	a4,24(s0)
    2204:	57498513          	addi	a0,s3,1396 # a574 <__fsym_list_mem_name+0x494>
    2208:	ff440693          	addi	a3,s0,-12
    220c:	4621                	li	a2,8
    220e:	85a6                	mv	a1,s1
    2210:	ddffe0ef          	jal	ra,fee <rt_kprintf>
    2214:	ffd44783          	lbu	a5,-3(s0)
    2218:	58ca8513          	addi	a0,s5,1420 # a58c <__fsym_list_mem_name+0x4ac>
    221c:	8b85                	andi	a5,a5,1
    221e:	e399                	bnez	a5,2224 <list_timer+0x92>
    2220:	598a0513          	addi	a0,s4,1432 # a598 <__fsym_list_mem_name+0x4b8>
    2224:	dcbfe0ef          	jal	ra,fee <rt_kprintf>
    2228:	4000                	lw	s0,0(s0)
    222a:	bf6d                	j	21e4 <list_timer+0x52>

0000222c <list>:
    222c:	99cfe2ef          	jal	t0,3c8 <__riscv_save_4>
    2230:	0000a537          	lui	a0,0xa
    2234:	18450513          	addi	a0,a0,388 # a184 <__fsym_list_mem_name+0xa4>
    2238:	db7fe0ef          	jal	ra,fee <rt_kprintf>
    223c:	8e01a403          	lw	s0,-1824(gp) # 20000400 <_syscall_table_begin>
    2240:	0000a9b7          	lui	s3,0xa
    2244:	0000aa37          	lui	s4,0xa
    2248:	8e41a783          	lw	a5,-1820(gp) # 20000404 <_syscall_table_end>
    224c:	00f46563          	bltu	s0,a5,2256 <list+0x2a>
    2250:	4501                	li	a0,0
    2252:	9aafe06f          	j	3fc <__riscv_restore_4>
    2256:	4004                	lw	s1,0(s0)
    2258:	4609                	li	a2,2
    225a:	19898593          	addi	a1,s3,408 # a198 <__fsym_list_mem_name+0xb8>
    225e:	8526                	mv	a0,s1
    2260:	049060ef          	jal	ra,8aa8 <strncmp>
    2264:	c519                	beqz	a0,2272 <list+0x46>
    2266:	4050                	lw	a2,4(s0)
    2268:	85a6                	mv	a1,s1
    226a:	19ca0513          	addi	a0,s4,412 # a19c <__fsym_list_mem_name+0xbc>
    226e:	d81fe0ef          	jal	ra,fee <rt_kprintf>
    2272:	0431                	addi	s0,s0,12
    2274:	bfd1                	j	2248 <list+0x1c>

00002276 <msh_help>:
    2276:	952fe2ef          	jal	t0,3c8 <__riscv_save_4>
    227a:	0000b537          	lui	a0,0xb
    227e:	a4850513          	addi	a0,a0,-1464 # aa48 <__fsym_reboot_name+0x16c>
    2282:	d6dfe0ef          	jal	ra,fee <rt_kprintf>
    2286:	8e01a403          	lw	s0,-1824(gp) # 20000400 <_syscall_table_begin>
    228a:	0000b9b7          	lui	s3,0xb
    228e:	0000ba37          	lui	s4,0xb
    2292:	8e41a783          	lw	a5,-1820(gp) # 20000404 <_syscall_table_end>
    2296:	00f46b63          	bltu	s0,a5,22ac <msh_help+0x36>
    229a:	0000d537          	lui	a0,0xd
    229e:	8a450513          	addi	a0,a0,-1884 # c8a4 <Font7x10+0x800>
    22a2:	d4dfe0ef          	jal	ra,fee <rt_kprintf>
    22a6:	4501                	li	a0,0
    22a8:	954fe06f          	j	3fc <__riscv_restore_4>
    22ac:	4004                	lw	s1,0(s0)
    22ae:	4619                	li	a2,6
    22b0:	a6498593          	addi	a1,s3,-1436 # aa64 <__fsym_reboot_name+0x188>
    22b4:	8526                	mv	a0,s1
    22b6:	7f2060ef          	jal	ra,8aa8 <strncmp>
    22ba:	e901                	bnez	a0,22ca <msh_help+0x54>
    22bc:	4050                	lw	a2,4(s0)
    22be:	00648593          	addi	a1,s1,6
    22c2:	a6ca0513          	addi	a0,s4,-1428 # aa6c <__fsym_reboot_name+0x190>
    22c6:	d29fe0ef          	jal	ra,fee <rt_kprintf>
    22ca:	0431                	addi	s0,s0,12
    22cc:	b7d9                	j	2292 <msh_help+0x1c>

000022ce <msh_is_used>:
    22ce:	4505                	li	a0,1
    22d0:	8082                	ret

000022d2 <msh_exec>:
    22d2:	8f6fe2ef          	jal	t0,3c8 <__riscv_save_4>
    22d6:	7179                	addi	sp,sp,-48
    22d8:	842a                	mv	s0,a0
    22da:	95aa                	add	a1,a1,a0
    22dc:	02000693          	li	a3,32
    22e0:	4725                	li	a4,9
    22e2:	00040783          	lb	a5,0(s0)
    22e6:	408584b3          	sub	s1,a1,s0
    22ea:	0ad78563          	beq	a5,a3,2394 <msh_exec+0xc2>
    22ee:	0ae78363          	beq	a5,a4,2394 <msh_exec+0xc2>
    22f2:	4501                	li	a0,0
    22f4:	10048b63          	beqz	s1,240a <msh_exec+0x138>
    22f8:	4901                	li	s2,0
    22fa:	02000713          	li	a4,32
    22fe:	46a5                	li	a3,9
    2300:	012407b3          	add	a5,s0,s2
    2304:	00078783          	lb	a5,0(a5)
    2308:	08e78a63          	beq	a5,a4,239c <msh_exec+0xca>
    230c:	08d78863          	beq	a5,a3,239c <msh_exec+0xca>
    2310:	08991463          	bne	s2,s1,2398 <msh_exec+0xc6>
    2314:	8e01a983          	lw	s3,-1824(gp) # 20000400 <_syscall_table_begin>
    2318:	8e41aa83          	lw	s5,-1820(gp) # 20000404 <_syscall_table_end>
    231c:	0000bb37          	lui	s6,0xb
    2320:	0959f063          	bgeu	s3,s5,23a0 <msh_exec+0xce>
    2324:	0009aa03          	lw	s4,0(s3)
    2328:	4619                	li	a2,6
    232a:	a64b0593          	addi	a1,s6,-1436 # aa64 <__fsym_reboot_name+0x188>
    232e:	8552                	mv	a0,s4
    2330:	778060ef          	jal	ra,8aa8 <strncmp>
    2334:	e559                	bnez	a0,23c2 <msh_exec+0xf0>
    2336:	864a                	mv	a2,s2
    2338:	85a2                	mv	a1,s0
    233a:	006a0513          	addi	a0,s4,6
    233e:	76a060ef          	jal	ra,8aa8 <strncmp>
    2342:	e141                	bnez	a0,23c2 <msh_exec+0xf0>
    2344:	9a4a                	add	s4,s4,s2
    2346:	006a0783          	lb	a5,6(s4)
    234a:	efa5                	bnez	a5,23c2 <msh_exec+0xf0>
    234c:	0089a983          	lw	s3,8(s3)
    2350:	04098863          	beqz	s3,23a0 <msh_exec+0xce>
    2354:	02800613          	li	a2,40
    2358:	4581                	li	a1,0
    235a:	0028                	addi	a0,sp,8
    235c:	8b6fe0ef          	jal	ra,412 <memset>
    2360:	00810913          	addi	s2,sp,8
    2364:	86ca                	mv	a3,s2
    2366:	87a2                	mv	a5,s0
    2368:	4501                	li	a0,0
    236a:	4701                	li	a4,0
    236c:	02000813          	li	a6,32
    2370:	48a5                	li	a7,9
    2372:	4329                	li	t1,10
    2374:	02200613          	li	a2,34
    2378:	05c00e13          	li	t3,92
    237c:	00078583          	lb	a1,0(a5)
    2380:	01058463          	beq	a1,a6,2388 <msh_exec+0xb6>
    2384:	05159663          	bne	a1,a7,23d0 <msh_exec+0xfe>
    2388:	02971f63          	bne	a4,s1,23c6 <msh_exec+0xf4>
    238c:	47a9                	li	a5,10
    238e:	04f50363          	beq	a0,a5,23d4 <msh_exec+0x102>
    2392:	a869                	j	242c <msh_exec+0x15a>
    2394:	0405                	addi	s0,s0,1
    2396:	b7b1                	j	22e2 <msh_exec+0x10>
    2398:	0905                	addi	s2,s2,1
    239a:	b79d                	j	2300 <msh_exec+0x2e>
    239c:	f6091ce3          	bnez	s2,2314 <msh_exec+0x42>
    23a0:	87a2                	mv	a5,s0
    23a2:	00078703          	lb	a4,0(a5)
    23a6:	fdf77713          	andi	a4,a4,-33
    23aa:	e779                	bnez	a4,2478 <msh_exec+0x1a6>
    23ac:	0000b537          	lui	a0,0xb
    23b0:	a3050513          	addi	a0,a0,-1488 # aa30 <__fsym_reboot_name+0x154>
    23b4:	00078023          	sb	zero,0(a5)
    23b8:	85a2                	mv	a1,s0
    23ba:	c35fe0ef          	jal	ra,fee <rt_kprintf>
    23be:	557d                	li	a0,-1
    23c0:	a0a9                	j	240a <msh_exec+0x138>
    23c2:	09b1                	addi	s3,s3,12
    23c4:	bfb1                	j	2320 <msh_exec+0x4e>
    23c6:	00078023          	sb	zero,0(a5)
    23ca:	0705                	addi	a4,a4,1
    23cc:	0785                	addi	a5,a5,1
    23ce:	b77d                	j	237c <msh_exec+0xaa>
    23d0:	04651063          	bne	a0,t1,2410 <msh_exec+0x13e>
    23d4:	0000b537          	lui	a0,0xb
    23d8:	a0c50513          	addi	a0,a0,-1524 # aa0c <__fsym_reboot_name+0x130>
    23dc:	c13fe0ef          	jal	ra,fee <rt_kprintf>
    23e0:	1800                	addi	s0,sp,48
    23e2:	0000b4b7          	lui	s1,0xb
    23e6:	00092583          	lw	a1,0(s2)
    23ea:	a2c48513          	addi	a0,s1,-1492 # aa2c <__fsym_reboot_name+0x150>
    23ee:	0911                	addi	s2,s2,4
    23f0:	bfffe0ef          	jal	ra,fee <rt_kprintf>
    23f4:	fe8919e3          	bne	s2,s0,23e6 <msh_exec+0x114>
    23f8:	0000d537          	lui	a0,0xd
    23fc:	8a450513          	addi	a0,a0,-1884 # c8a4 <Font7x10+0x800>
    2400:	beffe0ef          	jal	ra,fee <rt_kprintf>
    2404:	4529                	li	a0,10
    2406:	002c                	addi	a1,sp,8
    2408:	9982                	jalr	s3
    240a:	6145                	addi	sp,sp,48
    240c:	ff1fd06f          	j	3fc <__riscv_restore_4>
    2410:	00977e63          	bgeu	a4,s1,242c <msh_exec+0x15a>
    2414:	0505                	addi	a0,a0,1
    2416:	04c59263          	bne	a1,a2,245a <msh_exec+0x188>
    241a:	0785                	addi	a5,a5,1
    241c:	0705                	addi	a4,a4,1
    241e:	c29c                	sw	a5,0(a3)
    2420:	00078583          	lb	a1,0(a5)
    2424:	02c58163          	beq	a1,a2,2446 <msh_exec+0x174>
    2428:	00976463          	bltu	a4,s1,2430 <msh_exec+0x15e>
    242c:	fd69                	bnez	a0,2406 <msh_exec+0x134>
    242e:	bf8d                	j	23a0 <msh_exec+0xce>
    2430:	00178e83          	lb	t4,1(a5)
    2434:	01c59663          	bne	a1,t3,2440 <msh_exec+0x16e>
    2438:	00ce9463          	bne	t4,a2,2440 <msh_exec+0x16e>
    243c:	0785                	addi	a5,a5,1
    243e:	0705                	addi	a4,a4,1
    2440:	0785                	addi	a5,a5,1
    2442:	0705                	addi	a4,a4,1
    2444:	bff1                	j	2420 <msh_exec+0x14e>
    2446:	fe9773e3          	bgeu	a4,s1,242c <msh_exec+0x15a>
    244a:	00078023          	sb	zero,0(a5)
    244e:	0705                	addi	a4,a4,1
    2450:	0785                	addi	a5,a5,1
    2452:	0691                	addi	a3,a3,4
    2454:	f29764e3          	bltu	a4,s1,237c <msh_exec+0xaa>
    2458:	bfd1                	j	242c <msh_exec+0x15a>
    245a:	c29c                	sw	a5,0(a3)
    245c:	00078583          	lb	a1,0(a5)
    2460:	01058963          	beq	a1,a6,2472 <msh_exec+0x1a0>
    2464:	01158763          	beq	a1,a7,2472 <msh_exec+0x1a0>
    2468:	fc9702e3          	beq	a4,s1,242c <msh_exec+0x15a>
    246c:	0785                	addi	a5,a5,1
    246e:	0705                	addi	a4,a4,1
    2470:	b7f5                	j	245c <msh_exec+0x18a>
    2472:	fe9760e3          	bltu	a4,s1,2452 <msh_exec+0x180>
    2476:	bf5d                	j	242c <msh_exec+0x15a>
    2478:	0785                	addi	a5,a5,1
    247a:	b725                	j	23a2 <msh_exec+0xd0>

0000247c <msh_auto_complete>:
    247c:	f3ffd2ef          	jal	t0,3ba <__riscv_save_10>
    2480:	00050783          	lb	a5,0(a0)
    2484:	e799                	bnez	a5,2492 <msh_auto_complete+0x16>
    2486:	4581                	li	a1,0
    2488:	4501                	li	a0,0
    248a:	dedff0ef          	jal	ra,2276 <msh_help>
    248e:	f65fd06f          	j	3f2 <__riscv_restore_10>
    2492:	8e01aa03          	lw	s4,-1824(gp) # 20000400 <_syscall_table_begin>
    2496:	89aa                	mv	s3,a0
    2498:	4481                	li	s1,0
    249a:	4901                	li	s2,0
    249c:	0000bb37          	lui	s6,0xb
    24a0:	0000bbb7          	lui	s7,0xb
    24a4:	8e41a783          	lw	a5,-1820(gp) # 20000404 <_syscall_table_end>
    24a8:	00fa6963          	bltu	s4,a5,24ba <msh_auto_complete+0x3e>
    24ac:	d0ed                	beqz	s1,248e <msh_auto_complete+0x12>
    24ae:	864a                	mv	a2,s2
    24b0:	85a6                	mv	a1,s1
    24b2:	854e                	mv	a0,s3
    24b4:	f4afe0ef          	jal	ra,bfe <rt_strncpy>
    24b8:	bfd9                	j	248e <msh_auto_complete+0x12>
    24ba:	000a2403          	lw	s0,0(s4)
    24be:	4619                	li	a2,6
    24c0:	a64b0593          	addi	a1,s6,-1436 # aa64 <__fsym_reboot_name+0x188>
    24c4:	8522                	mv	a0,s0
    24c6:	5e2060ef          	jal	ra,8aa8 <strncmp>
    24ca:	e121                	bnez	a0,250a <msh_auto_complete+0x8e>
    24cc:	854e                	mv	a0,s3
    24ce:	5c8060ef          	jal	ra,8a96 <strlen>
    24d2:	0419                	addi	s0,s0,6
    24d4:	862a                	mv	a2,a0
    24d6:	85a2                	mv	a1,s0
    24d8:	854e                	mv	a0,s3
    24da:	5ce060ef          	jal	ra,8aa8 <strncmp>
    24de:	e515                	bnez	a0,250a <msh_auto_complete+0x8e>
    24e0:	00091763          	bnez	s2,24ee <msh_auto_complete+0x72>
    24e4:	8522                	mv	a0,s0
    24e6:	5b0060ef          	jal	ra,8a96 <strlen>
    24ea:	892a                	mv	s2,a0
    24ec:	84a2                	mv	s1,s0
    24ee:	87a6                	mv	a5,s1
    24f0:	8722                	mv	a4,s0
    24f2:	00078603          	lb	a2,0(a5)
    24f6:	ee01                	bnez	a2,250e <msh_auto_complete+0x92>
    24f8:	8f85                	sub	a5,a5,s1
    24fa:	0127d363          	bge	a5,s2,2500 <msh_auto_complete+0x84>
    24fe:	893e                	mv	s2,a5
    2500:	85a2                	mv	a1,s0
    2502:	a74b8513          	addi	a0,s7,-1420 # aa74 <__fsym_reboot_name+0x198>
    2506:	ae9fe0ef          	jal	ra,fee <rt_kprintf>
    250a:	0a31                	addi	s4,s4,12
    250c:	bf61                	j	24a4 <msh_auto_complete+0x28>
    250e:	00070683          	lb	a3,0(a4) # e000e000 <_eusrstack+0xbfffe000>
    2512:	d2fd                	beqz	a3,24f8 <msh_auto_complete+0x7c>
    2514:	fed612e3          	bne	a2,a3,24f8 <msh_auto_complete+0x7c>
    2518:	0785                	addi	a5,a5,1
    251a:	0705                	addi	a4,a4,1
    251c:	bfd9                	j	24f2 <msh_auto_complete+0x76>

0000251e <cmd_ps>:
    251e:	ec5fd2ef          	jal	t0,3e2 <__riscv_save_0>
    2522:	fa2ff0ef          	jal	ra,1cc4 <list_thread>
    2526:	4501                	li	a0,0
    2528:	edffd06f          	j	406 <__riscv_restore_0>

0000252c <cmd_free>:
    252c:	eb7fd2ef          	jal	t0,3e2 <__riscv_save_0>
    2530:	c0bfe0ef          	jal	ra,113a <list_mem>
    2534:	4501                	li	a0,0
    2536:	ed1fd06f          	j	406 <__riscv_restore_0>

0000253a <finsh_rx_ind>:
    253a:	ea9fd2ef          	jal	t0,3e2 <__riscv_save_0>
    253e:	8dc1a503          	lw	a0,-1828(gp) # 200003fc <shell>
    2542:	bb4fe0ef          	jal	ra,8f6 <rt_sem_release>
    2546:	4501                	li	a0,0
    2548:	ebffd06f          	j	406 <__riscv_restore_0>

0000254c <finsh_system_init>:
    254c:	e97fd2ef          	jal	t0,3e2 <__riscv_save_0>
    2550:	0000d7b7          	lui	a5,0xd
    2554:	f7c78793          	addi	a5,a5,-132 # cf7c <__fsym_list_mem>
    2558:	8ef1a023          	sw	a5,-1824(gp) # 20000400 <_syscall_table_begin>
    255c:	0000d7b7          	lui	a5,0xd
    2560:	0fc78793          	addi	a5,a5,252 # d0fc <__rt_init_rti_start>
    2564:	8ef1a223          	sw	a5,-1820(gp) # 20000404 <_syscall_table_end>
    2568:	0000d7b7          	lui	a5,0xd
    256c:	0fc78793          	addi	a5,a5,252 # d0fc <__rt_init_rti_start>
    2570:	8ef1a423          	sw	a5,-1816(gp) # 20000408 <_sysvar_table_begin>
    2574:	0000d7b7          	lui	a5,0xd
    2578:	0fc78793          	addi	a5,a5,252 # d0fc <__rt_init_rti_start>
    257c:	21000593          	li	a1,528
    2580:	4505                	li	a0,1
    2582:	8ef1a623          	sw	a5,-1812(gp) # 2000040c <_sysvar_table_end>
    2586:	8dc18413          	addi	s0,gp,-1828 # 200003fc <shell>
    258a:	d8bfe0ef          	jal	ra,1314 <rt_calloc>
    258e:	c008                	sw	a0,0(s0)
    2590:	e919                	bnez	a0,25a6 <finsh_system_init+0x5a>
    2592:	0000b537          	lui	a0,0xb
    2596:	b2850513          	addi	a0,a0,-1240 # ab28 <__fsym___cmd_ps_name+0x40>
    259a:	a55fe0ef          	jal	ra,fee <rt_kprintf>
    259e:	547d                	li	s0,-1
    25a0:	8522                	mv	a0,s0
    25a2:	e65fd06f          	j	406 <__riscv_restore_0>
    25a6:	000025b7          	lui	a1,0x2
    25aa:	0000b537          	lui	a0,0xb
    25ae:	47a9                	li	a5,10
    25b0:	472d                	li	a4,11
    25b2:	40000693          	li	a3,1024
    25b6:	4601                	li	a2,0
    25b8:	6cc58593          	addi	a1,a1,1740 # 26cc <finsh_thread_entry>
    25bc:	b4050513          	addi	a0,a0,-1216 # ab40 <__fsym___cmd_ps_name+0x58>
    25c0:	a30ff0ef          	jal	ra,17f0 <rt_thread_create>
    25c4:	84aa                	mv	s1,a0
    25c6:	4008                	lw	a0,0(s0)
    25c8:	0000b5b7          	lui	a1,0xb
    25cc:	4681                	li	a3,0
    25ce:	4601                	li	a2,0
    25d0:	b4858593          	addi	a1,a1,-1208 # ab48 <__fsym___cmd_ps_name+0x60>
    25d4:	a7afe0ef          	jal	ra,84e <rt_sem_init>
    25d8:	4401                	li	s0,0
    25da:	d0f9                	beqz	s1,25a0 <finsh_system_init+0x54>
    25dc:	8526                	mv	a0,s1
    25de:	b8eff0ef          	jal	ra,196c <rt_thread_startup>
    25e2:	bf7d                	j	25a0 <finsh_system_init+0x54>

000025e4 <finsh_get_prompt>:
    25e4:	dfffd2ef          	jal	t0,3e2 <__riscv_save_0>
    25e8:	ce7ff0ef          	jal	ra,22ce <msh_is_used>
    25ec:	c50d                	beqz	a0,2616 <finsh_get_prompt+0x32>
    25ee:	0000b5b7          	lui	a1,0xb
    25f2:	af458593          	addi	a1,a1,-1292 # aaf4 <__fsym___cmd_ps_name+0xc>
    25f6:	cf018513          	addi	a0,gp,-784 # 20000810 <finsh_prompt.4315>
    25fa:	48c060ef          	jal	ra,8a86 <strcpy>
    25fe:	0000b5b7          	lui	a1,0xb
    2602:	b0458593          	addi	a1,a1,-1276 # ab04 <__fsym___cmd_ps_name+0x1c>
    2606:	cf018513          	addi	a0,gp,-784 # 20000810 <finsh_prompt.4315>
    260a:	45e060ef          	jal	ra,8a68 <strcat>
    260e:	cf018513          	addi	a0,gp,-784 # 20000810 <finsh_prompt.4315>
    2612:	df5fd06f          	j	406 <__riscv_restore_0>
    2616:	0000b5b7          	lui	a1,0xb
    261a:	afc58593          	addi	a1,a1,-1284 # aafc <__fsym___cmd_ps_name+0x14>
    261e:	bfe1                	j	25f6 <finsh_get_prompt+0x12>

00002620 <shell_handle_history>:
    2620:	dc3fd2ef          	jal	t0,3e2 <__riscv_save_0>
    2624:	842a                	mv	s0,a0
    2626:	0000b537          	lui	a0,0xb
    262a:	b6450513          	addi	a0,a0,-1180 # ab64 <__fsym___cmd_ps_name+0x7c>
    262e:	9c1fe0ef          	jal	ra,fee <rt_kprintf>
    2632:	fb3ff0ef          	jal	ra,25e4 <finsh_get_prompt>
    2636:	85aa                	mv	a1,a0
    2638:	0000b537          	lui	a0,0xb
    263c:	1ba40613          	addi	a2,s0,442
    2640:	b6c50513          	addi	a0,a0,-1172 # ab6c <__fsym___cmd_ps_name+0x84>
    2644:	9abfe0ef          	jal	ra,fee <rt_kprintf>
    2648:	4501                	li	a0,0
    264a:	dbdfd06f          	j	406 <__riscv_restore_0>

0000264e <finsh_set_device>:
    264e:	d95fd2ef          	jal	t0,3e2 <__riscv_save_0>
    2652:	1141                	addi	sp,sp,-16
    2654:	c62a                	sw	a0,12(sp)
    2656:	f6dfd0ef          	jal	ra,5c2 <rt_device_find>
    265a:	45b2                	lw	a1,12(sp)
    265c:	e911                	bnez	a0,2670 <finsh_set_device+0x22>
    265e:	0000b537          	lui	a0,0xb
    2662:	b0850513          	addi	a0,a0,-1272 # ab08 <__fsym___cmd_ps_name+0x20>
    2666:	989fe0ef          	jal	ra,fee <rt_kprintf>
    266a:	0141                	addi	sp,sp,16
    266c:	d9bfd06f          	j	406 <__riscv_restore_0>
    2670:	8dc1a783          	lw	a5,-1828(gp) # 200003fc <shell>
    2674:	84aa                	mv	s1,a0
    2676:	8dc18413          	addi	s0,gp,-1828 # 200003fc <shell>
    267a:	20c7a783          	lw	a5,524(a5)
    267e:	fea786e3          	beq	a5,a0,266a <finsh_set_device+0x1c>
    2682:	14300593          	li	a1,323
    2686:	fb9fd0ef          	jal	ra,63e <rt_device_open>
    268a:	f165                	bnez	a0,266a <finsh_set_device+0x1c>
    268c:	401c                	lw	a5,0(s0)
    268e:	20c7a503          	lw	a0,524(a5)
    2692:	c909                	beqz	a0,26a4 <finsh_set_device+0x56>
    2694:	824fe0ef          	jal	ra,6b8 <rt_device_close>
    2698:	401c                	lw	a5,0(s0)
    269a:	4581                	li	a1,0
    269c:	20c7a503          	lw	a0,524(a5)
    26a0:	888fe0ef          	jal	ra,728 <rt_device_set_rx_indicate>
    26a4:	4000                	lw	s0,0(s0)
    26a6:	05000613          	li	a2,80
    26aa:	4581                	li	a1,0
    26ac:	1ba40513          	addi	a0,s0,442
    26b0:	d63fd0ef          	jal	ra,412 <memset>
    26b4:	000025b7          	lui	a1,0x2
    26b8:	20041523          	sh	zero,522(s0)
    26bc:	20942623          	sw	s1,524(s0)
    26c0:	53a58593          	addi	a1,a1,1338 # 253a <finsh_rx_ind>
    26c4:	8526                	mv	a0,s1
    26c6:	862fe0ef          	jal	ra,728 <rt_device_set_rx_indicate>
    26ca:	b745                	j	266a <finsh_set_device+0x1c>

000026cc <finsh_thread_entry>:
    26cc:	ce7fd2ef          	jal	t0,3b2 <__riscv_save_12>
    26d0:	8dc1a783          	lw	a5,-1828(gp) # 200003fc <shell>
    26d4:	1141                	addi	sp,sp,-16
    26d6:	8dc18493          	addi	s1,gp,-1828 # 200003fc <shell>
    26da:	0247c703          	lbu	a4,36(a5)
    26de:	00176713          	ori	a4,a4,1
    26e2:	02e78223          	sb	a4,36(a5)
    26e6:	20c7a783          	lw	a5,524(a5)
    26ea:	e791                	bnez	a5,26f6 <finsh_thread_entry+0x2a>
    26ec:	8cdfe0ef          	jal	ra,fb8 <rt_console_get_device>
    26f0:	c119                	beqz	a0,26f6 <finsh_thread_entry+0x2a>
    26f2:	f5dff0ef          	jal	ra,264e <finsh_set_device>
    26f6:	eefff0ef          	jal	ra,25e4 <finsh_get_prompt>
    26fa:	8f5fe0ef          	jal	ra,fee <rt_kprintf>
    26fe:	0000bb37          	lui	s6,0xb
    2702:	0000bbb7          	lui	s7,0xb
    2706:	0000b9b7          	lui	s3,0xb
    270a:	0000da37          	lui	s4,0xd
    270e:	0000bab7          	lui	s5,0xb
    2712:	0000bc37          	lui	s8,0xb
    2716:	0000bcb7          	lui	s9,0xb
    271a:	409c                	lw	a5,0(s1)
    271c:	4685                	li	a3,1
    271e:	00f10613          	addi	a2,sp,15
    2722:	20c7a503          	lw	a0,524(a5)
    2726:	55fd                	li	a1,-1
    2728:	fc9fd0ef          	jal	ra,6f0 <rt_device_read>
    272c:	4785                	li	a5,1
    272e:	00f51a63          	bne	a0,a5,2742 <finsh_thread_entry+0x76>
    2732:	00f10903          	lb	s2,15(sp)
    2736:	47ed                	li	a5,27
    2738:	4080                	lw	s0,0(s1)
    273a:	00f91963          	bne	s2,a5,274c <finsh_thread_entry+0x80>
    273e:	d008                	sw	a0,32(s0)
    2740:	bfe9                	j	271a <finsh_thread_entry+0x4e>
    2742:	4088                	lw	a0,0(s1)
    2744:	55fd                	li	a1,-1
    2746:	930fe0ef          	jal	ra,876 <rt_sem_take>
    274a:	bfc1                	j	271a <finsh_thread_entry+0x4e>
    274c:	501c                	lw	a5,32(s0)
    274e:	02a79263          	bne	a5,a0,2772 <finsh_thread_entry+0xa6>
    2752:	05b00793          	li	a5,91
    2756:	00f91563          	bne	s2,a5,2760 <finsh_thread_entry+0x94>
    275a:	4789                	li	a5,2
    275c:	d01c                	sw	a5,32(s0)
    275e:	bf75                	j	271a <finsh_thread_entry+0x4e>
    2760:	02042023          	sw	zero,32(s0)
    2764:	fa090be3          	beqz	s2,271a <finsh_thread_entry+0x4e>
    2768:	47a5                	li	a5,9
    276a:	12f91463          	bne	s2,a5,2892 <finsh_thread_entry+0x1c6>
    276e:	4901                	li	s2,0
    2770:	a8d1                	j	2844 <finsh_thread_entry+0x178>
    2772:	4709                	li	a4,2
    2774:	fee798e3          	bne	a5,a4,2764 <finsh_thread_entry+0x98>
    2778:	02042023          	sw	zero,32(s0)
    277c:	04100793          	li	a5,65
    2780:	04f91263          	bne	s2,a5,27c4 <finsh_thread_entry+0xf8>
    2784:	306e                	lhu	a1,38(s0)
    2786:	d9d1                	beqz	a1,271a <finsh_thread_entry+0x4e>
    2788:	15fd                	addi	a1,a1,-1
    278a:	05c2                	slli	a1,a1,0x10
    278c:	81c1                	srli	a1,a1,0x10
    278e:	b06e                	sh	a1,38(s0)
    2790:	1ba40793          	addi	a5,s0,442
    2794:	05000713          	li	a4,80
    2798:	02e585b3          	mul	a1,a1,a4
    279c:	05000613          	li	a2,80
    27a0:	853e                	mv	a0,a5
    27a2:	02a58593          	addi	a1,a1,42
    27a6:	95a2                	add	a1,a1,s0
    27a8:	1d0060ef          	jal	ra,8978 <memcpy>
    27ac:	2ea060ef          	jal	ra,8a96 <strlen>
    27b0:	0ff57513          	andi	a0,a0,255
    27b4:	20a40523          	sb	a0,522(s0)
    27b8:	20a405a3          	sb	a0,523(s0)
    27bc:	8522                	mv	a0,s0
    27be:	e63ff0ef          	jal	ra,2620 <shell_handle_history>
    27c2:	bfa1                	j	271a <finsh_thread_entry+0x4e>
    27c4:	04200793          	li	a5,66
    27c8:	02f91163          	bne	s2,a5,27ea <finsh_thread_entry+0x11e>
    27cc:	3416                	lhu	a3,40(s0)
    27ce:	307e                	lhu	a5,38(s0)
    27d0:	fff68713          	addi	a4,a3,-1 # 7fffffff <_eusrstack+0x5ffeffff>
    27d4:	00e7d863          	bge	a5,a4,27e4 <finsh_thread_entry+0x118>
    27d8:	0785                	addi	a5,a5,1
    27da:	b07e                	sh	a5,38(s0)
    27dc:	1ba40793          	addi	a5,s0,442
    27e0:	306e                	lhu	a1,38(s0)
    27e2:	bf4d                	j	2794 <finsh_thread_entry+0xc8>
    27e4:	da9d                	beqz	a3,271a <finsh_thread_entry+0x4e>
    27e6:	b07a                	sh	a4,38(s0)
    27e8:	bfd5                	j	27dc <finsh_thread_entry+0x110>
    27ea:	04400793          	li	a5,68
    27ee:	02f91063          	bne	s2,a5,280e <finsh_thread_entry+0x142>
    27f2:	20b44783          	lbu	a5,523(s0)
    27f6:	d395                	beqz	a5,271a <finsh_thread_entry+0x4e>
    27f8:	b5098513          	addi	a0,s3,-1200 # ab50 <__fsym___cmd_ps_name+0x68>
    27fc:	ff2fe0ef          	jal	ra,fee <rt_kprintf>
    2800:	4098                	lw	a4,0(s1)
    2802:	20b74783          	lbu	a5,523(a4)
    2806:	17fd                	addi	a5,a5,-1
    2808:	20f705a3          	sb	a5,523(a4)
    280c:	b739                	j	271a <finsh_thread_entry+0x4e>
    280e:	04300793          	li	a5,67
    2812:	f4f919e3          	bne	s2,a5,2764 <finsh_thread_entry+0x98>
    2816:	20b44783          	lbu	a5,523(s0)
    281a:	20a44703          	lbu	a4,522(s0)
    281e:	eee7fee3          	bgeu	a5,a4,271a <finsh_thread_entry+0x4e>
    2822:	943e                	add	s0,s0,a5
    2824:	1ba40583          	lb	a1,442(s0)
    2828:	b54a8513          	addi	a0,s5,-1196 # ab54 <__fsym___cmd_ps_name+0x6c>
    282c:	fc2fe0ef          	jal	ra,fee <rt_kprintf>
    2830:	4098                	lw	a4,0(s1)
    2832:	20b74783          	lbu	a5,523(a4)
    2836:	0785                	addi	a5,a5,1
    2838:	bfc1                	j	2808 <finsh_thread_entry+0x13c>
    283a:	b5098513          	addi	a0,s3,-1200
    283e:	fb0fe0ef          	jal	ra,fee <rt_kprintf>
    2842:	0905                	addi	s2,s2,1
    2844:	4080                	lw	s0,0(s1)
    2846:	20b44783          	lbu	a5,523(s0)
    284a:	fef948e3          	blt	s2,a5,283a <finsh_thread_entry+0x16e>
    284e:	8a4a0513          	addi	a0,s4,-1884 # c8a4 <Font7x10+0x800>
    2852:	f9cfe0ef          	jal	ra,fee <rt_kprintf>
    2856:	a79ff0ef          	jal	ra,22ce <msh_is_used>
    285a:	4785                	li	a5,1
    285c:	1ba40413          	addi	s0,s0,442
    2860:	00f51563          	bne	a0,a5,286a <finsh_thread_entry+0x19e>
    2864:	8522                	mv	a0,s0
    2866:	c17ff0ef          	jal	ra,247c <msh_auto_complete>
    286a:	d7bff0ef          	jal	ra,25e4 <finsh_get_prompt>
    286e:	8622                	mv	a2,s0
    2870:	85aa                	mv	a1,a0
    2872:	b6cc8513          	addi	a0,s9,-1172 # ab6c <__fsym___cmd_ps_name+0x84>
    2876:	f78fe0ef          	jal	ra,fee <rt_kprintf>
    287a:	4080                	lw	s0,0(s1)
    287c:	1ba40513          	addi	a0,s0,442
    2880:	216060ef          	jal	ra,8a96 <strlen>
    2884:	0ff57513          	andi	a0,a0,255
    2888:	20a40523          	sb	a0,522(s0)
    288c:	20a405a3          	sb	a0,523(s0)
    2890:	b569                	j	271a <finsh_thread_entry+0x4e>
    2892:	07f00793          	li	a5,127
    2896:	00f90563          	beq	s2,a5,28a0 <finsh_thread_entry+0x1d4>
    289a:	47a1                	li	a5,8
    289c:	08f91563          	bne	s2,a5,2926 <finsh_thread_entry+0x25a>
    28a0:	20b44783          	lbu	a5,523(s0)
    28a4:	e6078be3          	beqz	a5,271a <finsh_thread_entry+0x4e>
    28a8:	20a44603          	lbu	a2,522(s0)
    28ac:	17fd                	addi	a5,a5,-1
    28ae:	0ff7f793          	andi	a5,a5,255
    28b2:	167d                	addi	a2,a2,-1
    28b4:	0ff67613          	andi	a2,a2,255
    28b8:	20c40523          	sb	a2,522(s0)
    28bc:	20f405a3          	sb	a5,523(s0)
    28c0:	04c7f863          	bgeu	a5,a2,2910 <finsh_thread_entry+0x244>
    28c4:	1bb78593          	addi	a1,a5,443
    28c8:	1ba78513          	addi	a0,a5,442
    28cc:	8e1d                	sub	a2,a2,a5
    28ce:	95a2                	add	a1,a1,s0
    28d0:	9522                	add	a0,a0,s0
    28d2:	ae4fe0ef          	jal	ra,bb6 <rt_memmove>
    28d6:	409c                	lw	a5,0(s1)
    28d8:	b58b8513          	addi	a0,s7,-1192 # ab58 <__fsym___cmd_ps_name+0x70>
    28dc:	20a7c703          	lbu	a4,522(a5)
    28e0:	973e                	add	a4,a4,a5
    28e2:	1a070d23          	sb	zero,442(a4)
    28e6:	20b7c583          	lbu	a1,523(a5)
    28ea:	1ba58593          	addi	a1,a1,442
    28ee:	95be                	add	a1,a1,a5
    28f0:	efefe0ef          	jal	ra,fee <rt_kprintf>
    28f4:	409c                	lw	a5,0(s1)
    28f6:	20b7c403          	lbu	s0,523(a5)
    28fa:	409c                	lw	a5,0(s1)
    28fc:	20a7c783          	lbu	a5,522(a5)
    2900:	e087cde3          	blt	a5,s0,271a <finsh_thread_entry+0x4e>
    2904:	b5098513          	addi	a0,s3,-1200
    2908:	ee6fe0ef          	jal	ra,fee <rt_kprintf>
    290c:	0405                	addi	s0,s0,1
    290e:	b7f5                	j	28fa <finsh_thread_entry+0x22e>
    2910:	b60b0513          	addi	a0,s6,-1184 # ab60 <__fsym___cmd_ps_name+0x78>
    2914:	edafe0ef          	jal	ra,fee <rt_kprintf>
    2918:	409c                	lw	a5,0(s1)
    291a:	20a7c703          	lbu	a4,522(a5)
    291e:	97ba                	add	a5,a5,a4
    2920:	1a078d23          	sb	zero,442(a5)
    2924:	bbdd                	j	271a <finsh_thread_entry+0x4e>
    2926:	4735                	li	a4,13
    2928:	20a44783          	lbu	a5,522(s0)
    292c:	00e90563          	beq	s2,a4,2936 <finsh_thread_entry+0x26a>
    2930:	4729                	li	a4,10
    2932:	0ee91e63          	bne	s2,a4,2a2e <finsh_thread_entry+0x362>
    2936:	cbb9                	beqz	a5,298c <finsh_thread_entry+0x2c0>
    2938:	02845903          	lhu	s2,40(s0)
    293c:	4791                	li	a5,4
    293e:	1ba40d13          	addi	s10,s0,442
    2942:	0927fb63          	bgeu	a5,s2,29d8 <finsh_thread_entry+0x30c>
    2946:	16a40d93          	addi	s11,s0,362
    294a:	05000613          	li	a2,80
    294e:	85ea                	mv	a1,s10
    2950:	856e                	mv	a0,s11
    2952:	002060ef          	jal	ra,8954 <memcmp>
    2956:	c91d                	beqz	a0,298c <finsh_thread_entry+0x2c0>
    2958:	02a40913          	addi	s2,s0,42
    295c:	854a                	mv	a0,s2
    295e:	05090913          	addi	s2,s2,80
    2962:	05000613          	li	a2,80
    2966:	85ca                	mv	a1,s2
    2968:	010060ef          	jal	ra,8978 <memcpy>
    296c:	ff2d98e3          	bne	s11,s2,295c <finsh_thread_entry+0x290>
    2970:	05000613          	li	a2,80
    2974:	4581                	li	a1,0
    2976:	856e                	mv	a0,s11
    2978:	a9bfd0ef          	jal	ra,412 <memset>
    297c:	20a44603          	lbu	a2,522(s0)
    2980:	85ea                	mv	a1,s10
    2982:	856e                	mv	a0,s11
    2984:	7f5050ef          	jal	ra,8978 <memcpy>
    2988:	4795                	li	a5,5
    298a:	b41e                	sh	a5,40(s0)
    298c:	341e                	lhu	a5,40(s0)
    298e:	b07e                	sh	a5,38(s0)
    2990:	93fff0ef          	jal	ra,22ce <msh_is_used>
    2994:	4785                	li	a5,1
    2996:	02f51263          	bne	a0,a5,29ba <finsh_thread_entry+0x2ee>
    299a:	409c                	lw	a5,0(s1)
    299c:	0247c783          	lbu	a5,36(a5)
    29a0:	8b85                	andi	a5,a5,1
    29a2:	c789                	beqz	a5,29ac <finsh_thread_entry+0x2e0>
    29a4:	8a4a0513          	addi	a0,s4,-1884
    29a8:	e46fe0ef          	jal	ra,fee <rt_kprintf>
    29ac:	4088                	lw	a0,0(s1)
    29ae:	20a54583          	lbu	a1,522(a0)
    29b2:	1ba50513          	addi	a0,a0,442
    29b6:	91dff0ef          	jal	ra,22d2 <msh_exec>
    29ba:	c2bff0ef          	jal	ra,25e4 <finsh_get_prompt>
    29be:	e30fe0ef          	jal	ra,fee <rt_kprintf>
    29c2:	4080                	lw	s0,0(s1)
    29c4:	05000613          	li	a2,80
    29c8:	4581                	li	a1,0
    29ca:	1ba40513          	addi	a0,s0,442
    29ce:	a45fd0ef          	jal	ra,412 <memset>
    29d2:	20041523          	sh	zero,522(s0)
    29d6:	b391                	j	271a <finsh_thread_entry+0x4e>
    29d8:	02090163          	beqz	s2,29fa <finsh_thread_entry+0x32e>
    29dc:	fff90513          	addi	a0,s2,-1
    29e0:	05000793          	li	a5,80
    29e4:	02f50533          	mul	a0,a0,a5
    29e8:	05000613          	li	a2,80
    29ec:	85ea                	mv	a1,s10
    29ee:	02a50513          	addi	a0,a0,42
    29f2:	9522                	add	a0,a0,s0
    29f4:	761050ef          	jal	ra,8954 <memcmp>
    29f8:	d951                	beqz	a0,298c <finsh_thread_entry+0x2c0>
    29fa:	05000d93          	li	s11,80
    29fe:	03b90533          	mul	a0,s2,s11
    2a02:	05000613          	li	a2,80
    2a06:	4581                	li	a1,0
    2a08:	02a50513          	addi	a0,a0,42
    2a0c:	9522                	add	a0,a0,s0
    2a0e:	a05fd0ef          	jal	ra,412 <memset>
    2a12:	340a                	lhu	a0,40(s0)
    2a14:	20a44603          	lbu	a2,522(s0)
    2a18:	85ea                	mv	a1,s10
    2a1a:	03b50533          	mul	a0,a0,s11
    2a1e:	02a50513          	addi	a0,a0,42
    2a22:	9522                	add	a0,a0,s0
    2a24:	755050ef          	jal	ra,8978 <memcpy>
    2a28:	341e                	lhu	a5,40(s0)
    2a2a:	0785                	addi	a5,a5,1
    2a2c:	bfb9                	j	298a <finsh_thread_entry+0x2be>
    2a2e:	04f00713          	li	a4,79
    2a32:	00f77463          	bgeu	a4,a5,2a3a <finsh_thread_entry+0x36e>
    2a36:	20040523          	sb	zero,522(s0)
    2a3a:	20b44603          	lbu	a2,523(s0)
    2a3e:	20a44783          	lbu	a5,522(s0)
    2a42:	08f67063          	bgeu	a2,a5,2ac2 <finsh_thread_entry+0x3f6>
    2a46:	1ba60593          	addi	a1,a2,442
    2a4a:	1bb60513          	addi	a0,a2,443
    2a4e:	95a2                	add	a1,a1,s0
    2a50:	40c78633          	sub	a2,a5,a2
    2a54:	9522                	add	a0,a0,s0
    2a56:	960fe0ef          	jal	ra,bb6 <rt_memmove>
    2a5a:	408c                	lw	a1,0(s1)
    2a5c:	20b5c783          	lbu	a5,523(a1)
    2a60:	00f58733          	add	a4,a1,a5
    2a64:	1b270d23          	sb	s2,442(a4)
    2a68:	0245c703          	lbu	a4,36(a1)
    2a6c:	8b05                	andi	a4,a4,1
    2a6e:	cb01                	beqz	a4,2a7e <finsh_thread_entry+0x3b2>
    2a70:	1ba78793          	addi	a5,a5,442
    2a74:	95be                	add	a1,a1,a5
    2a76:	8e8c0513          	addi	a0,s8,-1816 # a8e8 <__fsym_reboot_name+0xc>
    2a7a:	d74fe0ef          	jal	ra,fee <rt_kprintf>
    2a7e:	409c                	lw	a5,0(s1)
    2a80:	20b7c403          	lbu	s0,523(a5)
    2a84:	409c                	lw	a5,0(s1)
    2a86:	20a7c783          	lbu	a5,522(a5)
    2a8a:	02f44663          	blt	s0,a5,2ab6 <finsh_thread_entry+0x3ea>
    2a8e:	4098                	lw	a4,0(s1)
    2a90:	20a74783          	lbu	a5,522(a4)
    2a94:	20b74683          	lbu	a3,523(a4)
    2a98:	0785                	addi	a5,a5,1
    2a9a:	0685                	addi	a3,a3,1
    2a9c:	0ff7f793          	andi	a5,a5,255
    2aa0:	20d705a3          	sb	a3,523(a4)
    2aa4:	20f70523          	sb	a5,522(a4)
    2aa8:	04f00693          	li	a3,79
    2aac:	c6f6f7e3          	bgeu	a3,a5,271a <finsh_thread_entry+0x4e>
    2ab0:	20071523          	sh	zero,522(a4)
    2ab4:	b19d                	j	271a <finsh_thread_entry+0x4e>
    2ab6:	b5098513          	addi	a0,s3,-1200
    2aba:	d34fe0ef          	jal	ra,fee <rt_kprintf>
    2abe:	0405                	addi	s0,s0,1
    2ac0:	b7d1                	j	2a84 <finsh_thread_entry+0x3b8>
    2ac2:	97a2                	add	a5,a5,s0
    2ac4:	1b278d23          	sb	s2,442(a5)
    2ac8:	02444783          	lbu	a5,36(s0)
    2acc:	8b85                	andi	a5,a5,1
    2ace:	d3e1                	beqz	a5,2a8e <finsh_thread_entry+0x3c2>
    2ad0:	85ca                	mv	a1,s2
    2ad2:	b54a8513          	addi	a0,s5,-1196
    2ad6:	d18fe0ef          	jal	ra,fee <rt_kprintf>
    2ada:	bf55                	j	2a8e <finsh_thread_entry+0x3c2>

00002adc <rt_serial_init>:
    2adc:	417c                	lw	a5,68(a0)
    2ade:	04052823          	sw	zero,80(a0)
    2ae2:	04052a23          	sw	zero,84(a0)
    2ae6:	439c                	lw	a5,0(a5)
    2ae8:	cb81                	beqz	a5,2af8 <rt_serial_init+0x1c>
    2aea:	8f9fd2ef          	jal	t0,3e2 <__riscv_save_0>
    2aee:	04850593          	addi	a1,a0,72
    2af2:	9782                	jalr	a5
    2af4:	913fd06f          	j	406 <__riscv_restore_0>
    2af8:	4501                	li	a0,0
    2afa:	8082                	ret

00002afc <rt_serial_write>:
    2afc:	8cdfd2ef          	jal	t0,3c8 <__riscv_save_4>
    2b00:	8936                	mv	s2,a3
    2b02:	ca9d                	beqz	a3,2b38 <rt_serial_write+0x3c>
    2b04:	84aa                	mv	s1,a0
    2b06:	8432                	mv	s0,a2
    2b08:	00d609b3          	add	s3,a2,a3
    2b0c:	4a29                	li	s4,10
    2b0e:	201c                	lbu	a5,0(s0)
    2b10:	01479b63          	bne	a5,s4,2b26 <rt_serial_write+0x2a>
    2b14:	2cbe                	lhu	a5,26(s1)
    2b16:	0407f793          	andi	a5,a5,64
    2b1a:	c791                	beqz	a5,2b26 <rt_serial_write+0x2a>
    2b1c:	40fc                	lw	a5,68(s1)
    2b1e:	45b5                	li	a1,13
    2b20:	8526                	mv	a0,s1
    2b22:	479c                	lw	a5,8(a5)
    2b24:	9782                	jalr	a5
    2b26:	40fc                	lw	a5,68(s1)
    2b28:	00040583          	lb	a1,0(s0)
    2b2c:	8526                	mv	a0,s1
    2b2e:	479c                	lw	a5,8(a5)
    2b30:	0405                	addi	s0,s0,1
    2b32:	9782                	jalr	a5
    2b34:	fd341de3          	bne	s0,s3,2b0e <rt_serial_write+0x12>
    2b38:	854a                	mv	a0,s2
    2b3a:	8c3fd06f          	j	3fc <__riscv_restore_4>

00002b3e <rt_serial_open>:
    2b3e:	8a5fd2ef          	jal	t0,3e2 <__riscv_save_0>
    2b42:	1005f793          	andi	a5,a1,256
    2b46:	842a                	mv	s0,a0
    2b48:	c791                	beqz	a5,2b54 <rt_serial_open+0x16>
    2b4a:	2d1a                	lhu	a4,24(a0)
    2b4c:	5561                	li	a0,-8
    2b4e:	10077713          	andi	a4,a4,256
    2b52:	cf35                	beqz	a4,2bce <rt_serial_open+0x90>
    2b54:	4005f713          	andi	a4,a1,1024
    2b58:	c711                	beqz	a4,2b64 <rt_serial_open+0x26>
    2b5a:	2c1a                	lhu	a4,24(s0)
    2b5c:	5561                	li	a0,-8
    2b5e:	40077713          	andi	a4,a4,1024
    2b62:	c735                	beqz	a4,2bce <rt_serial_open+0x90>
    2b64:	0405f713          	andi	a4,a1,64
    2b68:	04000493          	li	s1,64
    2b6c:	e701                	bnez	a4,2b74 <rt_serial_open+0x36>
    2b6e:	2c26                	lhu	s1,26(s0)
    2b70:	0404f493          	andi	s1,s1,64
    2b74:	4838                	lw	a4,80(s0)
    2b76:	0ff5f593          	andi	a1,a1,255
    2b7a:	ac2e                	sh	a1,26(s0)
    2b7c:	eb39                	bnez	a4,2bd2 <rt_serial_open+0x94>
    2b7e:	c7a1                	beqz	a5,2bc6 <rt_serial_open+0x88>
    2b80:	4468                	lw	a0,76(s0)
    2b82:	8129                	srli	a0,a0,0xa
    2b84:	0542                	slli	a0,a0,0x10
    2b86:	8141                	srli	a0,a0,0x10
    2b88:	0531                	addi	a0,a0,12
    2b8a:	e5efe0ef          	jal	ra,11e8 <rt_malloc>
    2b8e:	4470                	lw	a2,76(s0)
    2b90:	892a                	mv	s2,a0
    2b92:	0531                	addi	a0,a0,12
    2b94:	8229                	srli	a2,a2,0xa
    2b96:	0642                	slli	a2,a2,0x10
    2b98:	8241                	srli	a2,a2,0x10
    2b9a:	4581                	li	a1,0
    2b9c:	00a92023          	sw	a0,0(s2)
    2ba0:	f8ffd0ef          	jal	ra,b2e <rt_memset>
    2ba4:	00092223          	sw	zero,4(s2)
    2ba8:	2c3e                	lhu	a5,26(s0)
    2baa:	00092423          	sw	zero,8(s2)
    2bae:	05242823          	sw	s2,80(s0)
    2bb2:	1007e793          	ori	a5,a5,256
    2bb6:	ac3e                	sh	a5,26(s0)
    2bb8:	407c                	lw	a5,68(s0)
    2bba:	10000613          	li	a2,256
    2bbe:	45c1                	li	a1,16
    2bc0:	43dc                	lw	a5,4(a5)
    2bc2:	8522                	mv	a0,s0
    2bc4:	9782                	jalr	a5
    2bc6:	2c3e                	lhu	a5,26(s0)
    2bc8:	4501                	li	a0,0
    2bca:	8cdd                	or	s1,s1,a5
    2bcc:	ac26                	sh	s1,26(s0)
    2bce:	839fd06f          	j	406 <__riscv_restore_0>
    2bd2:	dbf5                	beqz	a5,2bc6 <rt_serial_open+0x88>
    2bd4:	1005e593          	ori	a1,a1,256
    2bd8:	ac2e                	sh	a1,26(s0)
    2bda:	b7f5                	j	2bc6 <rt_serial_open+0x88>

00002bdc <rt_serial_control>:
    2bdc:	4809                	li	a6,2
    2bde:	87aa                	mv	a5,a0
    2be0:	03058163          	beq	a1,a6,2c02 <rt_serial_control+0x26>
    2be4:	ffefd2ef          	jal	t0,3e2 <__riscv_save_0>
    2be8:	480d                	li	a6,3
    2bea:	03058263          	beq	a1,a6,2c0e <rt_serial_control+0x32>
    2bee:	4705                	li	a4,1
    2bf0:	04e59963          	bne	a1,a4,2c42 <rt_serial_control+0x66>
    2bf4:	2d1a                	lhu	a4,24(a0)
    2bf6:	fdf77713          	andi	a4,a4,-33
    2bfa:	ad1a                	sh	a4,24(a0)
    2bfc:	4501                	li	a0,0
    2bfe:	809fd06f          	j	406 <__riscv_restore_0>
    2c02:	2d1a                	lhu	a4,24(a0)
    2c04:	02076713          	ori	a4,a4,32
    2c08:	ad1a                	sh	a4,24(a0)
    2c0a:	4501                	li	a0,0
    2c0c:	8082                	ret
    2c0e:	8732                	mv	a4,a2
    2c10:	d675                	beqz	a2,2bfc <rt_serial_control+0x20>
    2c12:	4250                	lw	a2,4(a2)
    2c14:	4574                	lw	a3,76(a0)
    2c16:	2d4c                	lbu	a1,28(a0)
    2c18:	8229                	srli	a2,a2,0xa
    2c1a:	82a9                	srli	a3,a3,0xa
    2c1c:	0642                	slli	a2,a2,0x10
    2c1e:	06c2                	slli	a3,a3,0x10
    2c20:	8241                	srli	a2,a2,0x10
    2c22:	82c1                	srli	a3,a3,0x10
    2c24:	00d60463          	beq	a2,a3,2c2c <rt_serial_control+0x50>
    2c28:	451d                	li	a0,7
    2c2a:	f9f1                	bnez	a1,2bfe <rt_serial_control+0x22>
    2c2c:	4314                	lw	a3,0(a4)
    2c2e:	c7b4                	sw	a3,72(a5)
    2c30:	4354                	lw	a3,4(a4)
    2c32:	c7f4                	sw	a3,76(a5)
    2c34:	d5e1                	beqz	a1,2bfc <rt_serial_control+0x20>
    2c36:	43f4                	lw	a3,68(a5)
    2c38:	85ba                	mv	a1,a4
    2c3a:	853e                	mv	a0,a5
    2c3c:	4294                	lw	a3,0(a3)
    2c3e:	9682                	jalr	a3
    2c40:	bf75                	j	2bfc <rt_serial_control+0x20>
    2c42:	417c                	lw	a5,68(a0)
    2c44:	43dc                	lw	a5,4(a5)
    2c46:	9782                	jalr	a5
    2c48:	bf5d                	j	2bfe <rt_serial_control+0x22>

00002c4a <rt_serial_read>:
    2c4a:	f7efd2ef          	jal	t0,3c8 <__riscv_save_4>
    2c4e:	8436                	mv	s0,a3
    2c50:	cab1                	beqz	a3,2ca4 <rt_serial_read+0x5a>
    2c52:	2d3e                	lhu	a5,26(a0)
    2c54:	89aa                	mv	s3,a0
    2c56:	8932                	mv	s2,a2
    2c58:	1007f793          	andi	a5,a5,256
    2c5c:	84b6                	mv	s1,a3
    2c5e:	e39d                	bnez	a5,2c84 <rt_serial_read+0x3a>
    2c60:	5a7d                	li	s4,-1
    2c62:	4aa9                	li	s5,10
    2c64:	0449a783          	lw	a5,68(s3)
    2c68:	854e                	mv	a0,s3
    2c6a:	47dc                	lw	a5,12(a5)
    2c6c:	9782                	jalr	a5
    2c6e:	01450963          	beq	a0,s4,2c80 <rt_serial_read+0x36>
    2c72:	00a90023          	sb	a0,0(s2)
    2c76:	14fd                	addi	s1,s1,-1
    2c78:	0905                	addi	s2,s2,1
    2c7a:	01550363          	beq	a0,s5,2c80 <rt_serial_read+0x36>
    2c7e:	f0fd                	bnez	s1,2c64 <rt_serial_read+0x1a>
    2c80:	8c05                	sub	s0,s0,s1
    2c82:	a00d                	j	2ca4 <rt_serial_read+0x5a>
    2c84:	4924                	lw	s1,80(a0)
    2c86:	8a36                	mv	s4,a3
    2c88:	4a85                	li	s5,1
    2c8a:	f39fe0ef          	jal	ra,1bc2 <rt_hw_interrupt_disable>
    2c8e:	20fe                	lhu	a5,6(s1)
    2c90:	20da                	lhu	a4,4(s1)
    2c92:	862a                	mv	a2,a0
    2c94:	4494                	lw	a3,8(s1)
    2c96:	00f71a63          	bne	a4,a5,2caa <rt_serial_read+0x60>
    2c9a:	ea81                	bnez	a3,2caa <rt_serial_read+0x60>
    2c9c:	f33fe0ef          	jal	ra,1bce <rt_hw_interrupt_enable>
    2ca0:	41440433          	sub	s0,s0,s4
    2ca4:	8522                	mv	a0,s0
    2ca6:	f56fd06f          	j	3fc <__riscv_restore_4>
    2caa:	4098                	lw	a4,0(s1)
    2cac:	973e                	add	a4,a4,a5
    2cae:	00074b03          	lbu	s6,0(a4)
    2cb2:	04c9a703          	lw	a4,76(s3)
    2cb6:	0785                	addi	a5,a5,1
    2cb8:	07c2                	slli	a5,a5,0x10
    2cba:	8329                	srli	a4,a4,0xa
    2cbc:	83c1                	srli	a5,a5,0x10
    2cbe:	0742                	slli	a4,a4,0x10
    2cc0:	a0fe                	sh	a5,6(s1)
    2cc2:	8341                	srli	a4,a4,0x10
    2cc4:	00e7e463          	bltu	a5,a4,2ccc <rt_serial_read+0x82>
    2cc8:	00049323          	sh	zero,6(s1)
    2ccc:	01569463          	bne	a3,s5,2cd4 <rt_serial_read+0x8a>
    2cd0:	0004a423          	sw	zero,8(s1)
    2cd4:	8532                	mv	a0,a2
    2cd6:	ef9fe0ef          	jal	ra,1bce <rt_hw_interrupt_enable>
    2cda:	1a7d                	addi	s4,s4,-1
    2cdc:	01690023          	sb	s6,0(s2)
    2ce0:	0905                	addi	s2,s2,1
    2ce2:	fa0a14e3          	bnez	s4,2c8a <rt_serial_read+0x40>
    2ce6:	bf6d                	j	2ca0 <rt_serial_read+0x56>

00002ce8 <rt_serial_close>:
    2ce8:	2d58                	lbu	a4,28(a0)
    2cea:	4785                	li	a5,1
    2cec:	02e7ec63          	bltu	a5,a4,2d24 <rt_serial_close+0x3c>
    2cf0:	2d3e                	lhu	a5,26(a0)
    2cf2:	1007f793          	andi	a5,a5,256
    2cf6:	c79d                	beqz	a5,2d24 <rt_serial_close+0x3c>
    2cf8:	eeafd2ef          	jal	t0,3e2 <__riscv_save_0>
    2cfc:	842a                	mv	s0,a0
    2cfe:	4928                	lw	a0,80(a0)
    2d00:	e38fe0ef          	jal	ra,1338 <rt_free>
    2d04:	2c3e                	lhu	a5,26(s0)
    2d06:	04042823          	sw	zero,80(s0)
    2d0a:	10000613          	li	a2,256
    2d0e:	eff7f793          	andi	a5,a5,-257
    2d12:	ac3e                	sh	a5,26(s0)
    2d14:	407c                	lw	a5,68(s0)
    2d16:	45c5                	li	a1,17
    2d18:	8522                	mv	a0,s0
    2d1a:	43dc                	lw	a5,4(a5)
    2d1c:	9782                	jalr	a5
    2d1e:	4501                	li	a0,0
    2d20:	ee6fd06f          	j	406 <__riscv_restore_0>
    2d24:	4501                	li	a0,0
    2d26:	8082                	ret

00002d28 <rt_hw_serial_register>:
    2d28:	ebafd2ef          	jal	t0,3e2 <__riscv_save_0>
    2d2c:	00003737          	lui	a4,0x3
    2d30:	adc70713          	addi	a4,a4,-1316 # 2adc <rt_serial_init>
    2d34:	d518                	sw	a4,40(a0)
    2d36:	00003737          	lui	a4,0x3
    2d3a:	b3e70713          	addi	a4,a4,-1218 # 2b3e <rt_serial_open>
    2d3e:	d558                	sw	a4,44(a0)
    2d40:	00003737          	lui	a4,0x3
    2d44:	ce870713          	addi	a4,a4,-792 # 2ce8 <rt_serial_close>
    2d48:	d918                	sw	a4,48(a0)
    2d4a:	00003737          	lui	a4,0x3
    2d4e:	c4a70713          	addi	a4,a4,-950 # 2c4a <rt_serial_read>
    2d52:	d958                	sw	a4,52(a0)
    2d54:	00003737          	lui	a4,0x3
    2d58:	afc70713          	addi	a4,a4,-1284 # 2afc <rt_serial_write>
    2d5c:	dd18                	sw	a4,56(a0)
    2d5e:	00003737          	lui	a4,0x3
    2d62:	bdc70713          	addi	a4,a4,-1060 # 2bdc <rt_serial_control>
    2d66:	0642                	slli	a2,a2,0x10
    2d68:	dd58                	sw	a4,60(a0)
    2d6a:	c134                	sw	a3,64(a0)
    2d6c:	8241                	srli	a2,a2,0x10
    2d6e:	00052a23          	sw	zero,20(a0)
    2d72:	02052023          	sw	zero,32(a0)
    2d76:	02052223          	sw	zero,36(a0)
    2d7a:	891fd0ef          	jal	ra,60a <rt_device_register>
    2d7e:	e88fd06f          	j	406 <__riscv_restore_0>

00002d82 <rt_hw_serial_isr>:
    2d82:	0ff5f593          	andi	a1,a1,255
    2d86:	4785                	li	a5,1
    2d88:	0af59163          	bne	a1,a5,2e2a <rt_hw_serial_isr+0xa8>
    2d8c:	e3cfd2ef          	jal	t0,3c8 <__riscv_save_4>
    2d90:	4920                	lw	s0,80(a0)
    2d92:	1141                	addi	sp,sp,-16
    2d94:	84aa                	mv	s1,a0
    2d96:	597d                	li	s2,-1
    2d98:	4985                	li	s3,1
    2d9a:	40fc                	lw	a5,68(s1)
    2d9c:	8526                	mv	a0,s1
    2d9e:	47dc                	lw	a5,12(a5)
    2da0:	9782                	jalr	a5
    2da2:	8a2a                	mv	s4,a0
    2da4:	05250763          	beq	a0,s2,2df2 <rt_hw_serial_isr+0x70>
    2da8:	e1bfe0ef          	jal	ra,1bc2 <rt_hw_interrupt_disable>
    2dac:	205a                	lhu	a4,4(s0)
    2dae:	401c                	lw	a5,0(s0)
    2db0:	97ba                	add	a5,a5,a4
    2db2:	01478023          	sb	s4,0(a5)
    2db6:	205e                	lhu	a5,4(s0)
    2db8:	44f8                	lw	a4,76(s1)
    2dba:	0785                	addi	a5,a5,1
    2dbc:	07c2                	slli	a5,a5,0x10
    2dbe:	8329                	srli	a4,a4,0xa
    2dc0:	83c1                	srli	a5,a5,0x10
    2dc2:	0742                	slli	a4,a4,0x10
    2dc4:	a05e                	sh	a5,4(s0)
    2dc6:	8341                	srli	a4,a4,0x10
    2dc8:	00e7e463          	bltu	a5,a4,2dd0 <rt_hw_serial_isr+0x4e>
    2dcc:	00041223          	sh	zero,4(s0)
    2dd0:	2076                	lhu	a3,6(s0)
    2dd2:	205e                	lhu	a5,4(s0)
    2dd4:	00d79c63          	bne	a5,a3,2dec <rt_hw_serial_isr+0x6a>
    2dd8:	0785                	addi	a5,a5,1
    2dda:	07c2                	slli	a5,a5,0x10
    2ddc:	83c1                	srli	a5,a5,0x10
    2dde:	a07e                	sh	a5,6(s0)
    2de0:	01342423          	sw	s3,8(s0)
    2de4:	00e7e463          	bltu	a5,a4,2dec <rt_hw_serial_isr+0x6a>
    2de8:	00041323          	sh	zero,6(s0)
    2dec:	de3fe0ef          	jal	ra,1bce <rt_hw_interrupt_enable>
    2df0:	b76d                	j	2d9a <rt_hw_serial_isr+0x18>
    2df2:	509c                	lw	a5,32(s1)
    2df4:	c385                	beqz	a5,2e14 <rt_hw_serial_isr+0x92>
    2df6:	dcdfe0ef          	jal	ra,1bc2 <rt_hw_interrupt_disable>
    2dfa:	205a                	lhu	a4,4(s0)
    2dfc:	206e                	lhu	a1,6(s0)
    2dfe:	00b76e63          	bltu	a4,a1,2e1a <rt_hw_serial_isr+0x98>
    2e02:	40b705b3          	sub	a1,a4,a1
    2e06:	c62e                	sw	a1,12(sp)
    2e08:	dc7fe0ef          	jal	ra,1bce <rt_hw_interrupt_enable>
    2e0c:	509c                	lw	a5,32(s1)
    2e0e:	45b2                	lw	a1,12(sp)
    2e10:	8526                	mv	a0,s1
    2e12:	9782                	jalr	a5
    2e14:	0141                	addi	sp,sp,16
    2e16:	de6fd06f          	j	3fc <__riscv_restore_4>
    2e1a:	44fc                	lw	a5,76(s1)
    2e1c:	8d99                	sub	a1,a1,a4
    2e1e:	83a9                	srli	a5,a5,0xa
    2e20:	07c2                	slli	a5,a5,0x10
    2e22:	83c1                	srli	a5,a5,0x10
    2e24:	40b785b3          	sub	a1,a5,a1
    2e28:	bff9                	j	2e06 <rt_hw_serial_isr+0x84>
    2e2a:	8082                	ret

00002e2c <_pin_control>:
    2e2c:	ce01                	beqz	a2,2e44 <_pin_control+0x18>
    2e2e:	db4fd2ef          	jal	t0,3e2 <__riscv_save_0>
    2e32:	4178                	lw	a4,68(a0)
    2e34:	87b2                	mv	a5,a2
    2e36:	238e                	lhu	a1,0(a5)
    2e38:	4318                	lw	a4,0(a4)
    2e3a:	2232                	lhu	a2,2(a2)
    2e3c:	9702                	jalr	a4
    2e3e:	4501                	li	a0,0
    2e40:	dc6fd06f          	j	406 <__riscv_restore_0>
    2e44:	557d                	li	a0,-1
    2e46:	8082                	ret

00002e48 <rt_pin_mode>:
    2e48:	d9afd2ef          	jal	t0,3e2 <__riscv_save_0>
    2e4c:	d7418713          	addi	a4,gp,-652 # 20000894 <_hw_pin>
    2e50:	4378                	lw	a4,68(a4)
    2e52:	862e                	mv	a2,a1
    2e54:	85aa                	mv	a1,a0
    2e56:	4318                	lw	a4,0(a4)
    2e58:	d7418513          	addi	a0,gp,-652 # 20000894 <_hw_pin>
    2e5c:	9702                	jalr	a4
    2e5e:	da8fd06f          	j	406 <__riscv_restore_0>

00002e62 <rt_pin_write>:
    2e62:	d80fd2ef          	jal	t0,3e2 <__riscv_save_0>
    2e66:	d7418713          	addi	a4,gp,-652 # 20000894 <_hw_pin>
    2e6a:	4378                	lw	a4,68(a4)
    2e6c:	862e                	mv	a2,a1
    2e6e:	85aa                	mv	a1,a0
    2e70:	4358                	lw	a4,4(a4)
    2e72:	d7418513          	addi	a0,gp,-652 # 20000894 <_hw_pin>
    2e76:	9702                	jalr	a4
    2e78:	d8efd06f          	j	406 <__riscv_restore_0>

00002e7c <rt_pin_read>:
    2e7c:	d66fd2ef          	jal	t0,3e2 <__riscv_save_0>
    2e80:	d7418713          	addi	a4,gp,-652 # 20000894 <_hw_pin>
    2e84:	4378                	lw	a4,68(a4)
    2e86:	85aa                	mv	a1,a0
    2e88:	d7418513          	addi	a0,gp,-652 # 20000894 <_hw_pin>
    2e8c:	4718                	lw	a4,8(a4)
    2e8e:	9702                	jalr	a4
    2e90:	d76fd06f          	j	406 <__riscv_restore_0>

00002e94 <_pin_read>:
    2e94:	c605                	beqz	a2,2ebc <_pin_read+0x28>
    2e96:	4711                	li	a4,4
    2e98:	02e69263          	bne	a3,a4,2ebc <_pin_read+0x28>
    2e9c:	d46fd2ef          	jal	t0,3e2 <__riscv_save_0>
    2ea0:	417c                	lw	a5,68(a0)
    2ea2:	220e                	lhu	a1,0(a2)
    2ea4:	1141                	addi	sp,sp,-16
    2ea6:	479c                	lw	a5,8(a5)
    2ea8:	c636                	sw	a3,12(sp)
    2eaa:	c432                	sw	a2,8(sp)
    2eac:	9782                	jalr	a5
    2eae:	4622                	lw	a2,8(sp)
    2eb0:	46b2                	lw	a3,12(sp)
    2eb2:	a22a                	sh	a0,2(a2)
    2eb4:	8536                	mv	a0,a3
    2eb6:	0141                	addi	sp,sp,16
    2eb8:	d4efd06f          	j	406 <__riscv_restore_0>
    2ebc:	4681                	li	a3,0
    2ebe:	8536                	mv	a0,a3
    2ec0:	8082                	ret

00002ec2 <_pin_write>:
    2ec2:	c21d                	beqz	a2,2ee8 <_pin_write+0x26>
    2ec4:	87b2                	mv	a5,a2
    2ec6:	4611                	li	a2,4
    2ec8:	02c69063          	bne	a3,a2,2ee8 <_pin_write+0x26>
    2ecc:	d16fd2ef          	jal	t0,3e2 <__riscv_save_0>
    2ed0:	4178                	lw	a4,68(a0)
    2ed2:	23b2                	lhu	a2,2(a5)
    2ed4:	238e                	lhu	a1,0(a5)
    2ed6:	4358                	lw	a4,4(a4)
    2ed8:	1141                	addi	sp,sp,-16
    2eda:	c636                	sw	a3,12(sp)
    2edc:	9702                	jalr	a4
    2ede:	46b2                	lw	a3,12(sp)
    2ee0:	0141                	addi	sp,sp,16
    2ee2:	8536                	mv	a0,a3
    2ee4:	d22fd06f          	j	406 <__riscv_restore_0>
    2ee8:	4681                	li	a3,0
    2eea:	8536                	mv	a0,a3
    2eec:	8082                	ret

00002eee <rt_device_pin_register>:
    2eee:	cf4fd2ef          	jal	t0,3e2 <__riscv_save_0>
    2ef2:	d7418793          	addi	a5,gp,-652 # 20000894 <_hw_pin>
    2ef6:	4749                	li	a4,18
    2ef8:	cbd8                	sw	a4,20(a5)
    2efa:	00003737          	lui	a4,0x3
    2efe:	e9470713          	addi	a4,a4,-364 # 2e94 <_pin_read>
    2f02:	dbd8                	sw	a4,52(a5)
    2f04:	00003737          	lui	a4,0x3
    2f08:	ec270713          	addi	a4,a4,-318 # 2ec2 <_pin_write>
    2f0c:	df98                	sw	a4,56(a5)
    2f0e:	00003737          	lui	a4,0x3
    2f12:	e2c70713          	addi	a4,a4,-468 # 2e2c <_pin_control>
    2f16:	c3ec                	sw	a1,68(a5)
    2f18:	c3b0                	sw	a2,64(a5)
    2f1a:	85aa                	mv	a1,a0
    2f1c:	460d                	li	a2,3
    2f1e:	d7418513          	addi	a0,gp,-652 # 20000894 <_hw_pin>
    2f22:	0207a023          	sw	zero,32(a5)
    2f26:	0207a223          	sw	zero,36(a5)
    2f2a:	0207a423          	sw	zero,40(a5)
    2f2e:	0207a623          	sw	zero,44(a5)
    2f32:	0207a823          	sw	zero,48(a5)
    2f36:	dfd8                	sw	a4,60(a5)
    2f38:	ed2fd0ef          	jal	ra,60a <rt_device_register>
    2f3c:	4501                	li	a0,0
    2f3e:	cc8fd06f          	j	406 <__riscv_restore_0>

00002f42 <rt_heap_begin_get>:
    2f42:	20001537          	lui	a0,0x20001
    2f46:	8dc50513          	addi	a0,a0,-1828 # 200008dc <rt_heap>
    2f4a:	8082                	ret

00002f4c <rt_heap_end_get>:
    2f4c:	20002537          	lui	a0,0x20002
    2f50:	8dc50513          	addi	a0,a0,-1828 # 200018dc <serial1>
    2f54:	8082                	ret

00002f56 <rt_hw_board_init>:
    2f56:	c8cfd2ef          	jal	t0,3e2 <__riscv_save_0>
    2f5a:	81c1a703          	lw	a4,-2020(gp) # 2000033c <SystemCoreClock>
    2f5e:	3e800793          	li	a5,1000
    2f62:	56c1                	li	a3,-16
    2f64:	02f75733          	divu	a4,a4,a5
    2f68:	e000e7b7          	lui	a5,0xe000e
    2f6c:	40d78623          	sb	a3,1036(a5) # e000e40c <_eusrstack+0xbfffe40c>
    2f70:	40d78723          	sb	a3,1038(a5)
    2f74:	6685                	lui	a3,0x1
    2f76:	10d7a023          	sw	a3,256(a5)
    2f7a:	6691                	lui	a3,0x4
    2f7c:	10d7a023          	sw	a3,256(a5)
    2f80:	e000f7b7          	lui	a5,0xe000f
    2f84:	0007a023          	sw	zero,0(a5) # e000f000 <_eusrstack+0xbffff000>
    2f88:	0007a223          	sw	zero,4(a5)
    2f8c:	4601                	li	a2,0
    2f8e:	c790                	sw	a2,8(a5)
    2f90:	4681                	li	a3,0
    2f92:	c7d4                	sw	a3,12(a5)
    2f94:	4681                	li	a3,0
    2f96:	fff70613          	addi	a2,a4,-1
    2f9a:	cb90                	sw	a2,16(a5)
    2f9c:	cbd4                	sw	a3,20(a5)
    2f9e:	473d                	li	a4,15
    2fa0:	c398                	sw	a4,0(a5)
    2fa2:	d7efd0ef          	jal	ra,520 <rt_components_board_init>
    2fa6:	f9dff0ef          	jal	ra,2f42 <rt_heap_begin_get>
    2faa:	842a                	mv	s0,a0
    2fac:	fa1ff0ef          	jal	ra,2f4c <rt_heap_end_get>
    2fb0:	85aa                	mv	a1,a0
    2fb2:	8522                	mv	a0,s0
    2fb4:	9b8fe0ef          	jal	ra,116c <rt_system_heap_init>
    2fb8:	0000b537          	lui	a0,0xb
    2fbc:	be450513          	addi	a0,a0,-1052 # abe4 <__fsym_pinMode_name+0x8>
    2fc0:	ffffd0ef          	jal	ra,fbe <rt_console_set_device>
    2fc4:	c42fd06f          	j	406 <__riscv_restore_0>

00002fc8 <SysTick_Handler>:
    2fc8:	34011173          	csrrw	sp,mscratch,sp
    2fcc:	96bfd0ef          	jal	ra,936 <rt_interrupt_enter>
    2fd0:	e000f7b7          	lui	a5,0xe000f
    2fd4:	0007a223          	sw	zero,4(a5) # e000f004 <_eusrstack+0xbffff004>
    2fd8:	ce8fd0ef          	jal	ra,4c0 <rt_tick_increase>
    2fdc:	987fd0ef          	jal	ra,962 <rt_interrupt_leave>
    2fe0:	34011173          	csrrw	sp,mscratch,sp
    2fe4:	30200073          	mret

00002fe8 <bit2bitno>:
    2fe8:	4781                	li	a5,0
    2fea:	4685                	li	a3,1
    2fec:	02000713          	li	a4,32
    2ff0:	00f69633          	sll	a2,a3,a5
    2ff4:	00a60663          	beq	a2,a0,3000 <bit2bitno+0x18>
    2ff8:	0785                	addi	a5,a5,1
    2ffa:	fee79be3          	bne	a5,a4,2ff0 <bit2bitno+0x8>
    2ffe:	57fd                	li	a5,-1
    3000:	853e                	mv	a0,a5
    3002:	8082                	ret

00003004 <GPIOD_CLK_ENABLE>:
    3004:	bdefd2ef          	jal	t0,3e2 <__riscv_save_0>
    3008:	4585                	li	a1,1
    300a:	02000513          	li	a0,32
    300e:	172040ef          	jal	ra,7180 <RCC_APB2PeriphClockCmd>
    3012:	bf4fd06f          	j	406 <__riscv_restore_0>

00003016 <GPIOB_CLK_ENABLE>:
    3016:	bccfd2ef          	jal	t0,3e2 <__riscv_save_0>
    301a:	4585                	li	a1,1
    301c:	4521                	li	a0,8
    301e:	162040ef          	jal	ra,7180 <RCC_APB2PeriphClockCmd>
    3022:	be4fd06f          	j	406 <__riscv_restore_0>

00003026 <GPIOA_CLK_ENABLE>:
    3026:	bbcfd2ef          	jal	t0,3e2 <__riscv_save_0>
    302a:	4585                	li	a1,1
    302c:	4511                	li	a0,4
    302e:	152040ef          	jal	ra,7180 <RCC_APB2PeriphClockCmd>
    3032:	bd4fd06f          	j	406 <__riscv_restore_0>

00003036 <GPIOC_CLK_ENABLE>:
    3036:	bacfd2ef          	jal	t0,3e2 <__riscv_save_0>
    303a:	4585                	li	a1,1
    303c:	4541                	li	a0,16
    303e:	142040ef          	jal	ra,7180 <RCC_APB2PeriphClockCmd>
    3042:	bc4fd06f          	j	406 <__riscv_restore_0>

00003046 <GPIOE_CLK_ENABLE>:
    3046:	b9cfd2ef          	jal	t0,3e2 <__riscv_save_0>
    304a:	4585                	li	a1,1
    304c:	04000513          	li	a0,64
    3050:	130040ef          	jal	ra,7180 <RCC_APB2PeriphClockCmd>
    3054:	bb2fd06f          	j	406 <__riscv_restore_0>

00003058 <rt_hw_pin_init>:
    3058:	b8afd2ef          	jal	t0,3e2 <__riscv_save_0>
    305c:	65ad                	lui	a1,0xb
    305e:	0000b537          	lui	a0,0xb
    3062:	4601                	li	a2,0
    3064:	bec58593          	addi	a1,a1,-1044 # abec <_ch32_pin_ops>
    3068:	2d450513          	addi	a0,a0,724 # b2d4 <pins+0x650>
    306c:	e83ff0ef          	jal	ra,2eee <rt_device_pin_register>
    3070:	b96fd06f          	j	406 <__riscv_restore_0>

00003074 <get_pin>:
    3074:	06400793          	li	a5,100
    3078:	00a7ec63          	bltu	a5,a0,3090 <get_pin+0x1c>
    307c:	00451793          	slli	a5,a0,0x4
    3080:	652d                	lui	a0,0xb
    3082:	c8450513          	addi	a0,a0,-892 # ac84 <pins>
    3086:	953e                	add	a0,a0,a5
    3088:	4118                	lw	a4,0(a0)
    308a:	57fd                	li	a5,-1
    308c:	00f71363          	bne	a4,a5,3092 <get_pin+0x1e>
    3090:	4501                	li	a0,0
    3092:	8082                	ret

00003094 <ch32_pin_write>:
    3094:	b4efd2ef          	jal	t0,3e2 <__riscv_save_0>
    3098:	1141                	addi	sp,sp,-16
    309a:	0ff5f513          	andi	a0,a1,255
    309e:	c632                	sw	a2,12(sp)
    30a0:	fd5ff0ef          	jal	ra,3074 <get_pin>
    30a4:	c511                	beqz	a0,30b0 <ch32_pin_write+0x1c>
    30a6:	254e                	lhu	a1,12(a0)
    30a8:	4632                	lw	a2,12(sp)
    30aa:	4508                	lw	a0,8(a0)
    30ac:	6db030ef          	jal	ra,6f86 <GPIO_WriteBit>
    30b0:	0141                	addi	sp,sp,16
    30b2:	b54fd06f          	j	406 <__riscv_restore_0>

000030b6 <ch32_pin_read>:
    30b6:	b2cfd2ef          	jal	t0,3e2 <__riscv_save_0>
    30ba:	0ff5f513          	andi	a0,a1,255
    30be:	fb7ff0ef          	jal	ra,3074 <get_pin>
    30c2:	87aa                	mv	a5,a0
    30c4:	4501                	li	a0,0
    30c6:	c789                	beqz	a5,30d0 <ch32_pin_read+0x1a>
    30c8:	27ce                	lhu	a1,12(a5)
    30ca:	4788                	lw	a0,8(a5)
    30cc:	6a9030ef          	jal	ra,6f74 <GPIO_ReadInputDataBit>
    30d0:	b36fd06f          	j	406 <__riscv_restore_0>

000030d4 <ch32_pin_mode>:
    30d4:	b0efd2ef          	jal	t0,3e2 <__riscv_save_0>
    30d8:	1101                	addi	sp,sp,-32
    30da:	0ff5f513          	andi	a0,a1,255
    30de:	8432                	mv	s0,a2
    30e0:	f95ff0ef          	jal	ra,3074 <get_pin>
    30e4:	c505                	beqz	a0,310c <ch32_pin_mode+0x38>
    30e6:	415c                	lw	a5,4(a0)
    30e8:	c62a                	sw	a0,12(sp)
    30ea:	9782                	jalr	a5
    30ec:	4532                	lw	a0,12(sp)
    30ee:	455c                	lw	a5,12(a0)
    30f0:	82fc                	sh	a5,20(sp)
    30f2:	47c1                	li	a5,16
    30f4:	ce3e                	sw	a5,28(sp)
    30f6:	478d                	li	a5,3
    30f8:	cc3e                	sw	a5,24(sp)
    30fa:	c409                	beqz	s0,3104 <ch32_pin_mode+0x30>
    30fc:	4715                	li	a4,5
    30fe:	00e41a63          	bne	s0,a4,3112 <ch32_pin_mode+0x3e>
    3102:	ce02                	sw	zero,28(sp)
    3104:	4508                	lw	a0,8(a0)
    3106:	084c                	addi	a1,sp,20
    3108:	5ad030ef          	jal	ra,6eb4 <GPIO_Init>
    310c:	6105                	addi	sp,sp,32
    310e:	af8fd06f          	j	406 <__riscv_restore_0>
    3112:	4705                	li	a4,1
    3114:	00e41563          	bne	s0,a4,311e <ch32_pin_mode+0x4a>
    3118:	4791                	li	a5,4
    311a:	ce3e                	sw	a5,28(sp)
    311c:	b7e5                	j	3104 <ch32_pin_mode+0x30>
    311e:	00f41563          	bne	s0,a5,3128 <ch32_pin_mode+0x54>
    3122:	02800793          	li	a5,40
    3126:	bfd5                	j	311a <ch32_pin_mode+0x46>
    3128:	4789                	li	a5,2
    312a:	00f41563          	bne	s0,a5,3134 <ch32_pin_mode+0x60>
    312e:	04800793          	li	a5,72
    3132:	b7e5                	j	311a <ch32_pin_mode+0x46>
    3134:	4791                	li	a5,4
    3136:	00f41463          	bne	s0,a5,313e <ch32_pin_mode+0x6a>
    313a:	47d1                	li	a5,20
    313c:	bff9                	j	311a <ch32_pin_mode+0x46>
    313e:	4799                	li	a5,6
    3140:	00f41463          	bne	s0,a5,3148 <ch32_pin_mode+0x74>
    3144:	47f1                	li	a5,28
    3146:	bfd1                	j	311a <ch32_pin_mode+0x46>
    3148:	479d                	li	a5,7
    314a:	faf41de3          	bne	s0,a5,3104 <ch32_pin_mode+0x30>
    314e:	47e1                	li	a5,24
    3150:	b7e9                	j	311a <ch32_pin_mode+0x46>

00003152 <ch32_pin_attach_irq>:
    3152:	a76fd2ef          	jal	t0,3c8 <__riscv_save_4>
    3156:	0ff5f513          	andi	a0,a1,255
    315a:	84ae                	mv	s1,a1
    315c:	89b2                	mv	s3,a2
    315e:	8a36                	mv	s4,a3
    3160:	893a                	mv	s2,a4
    3162:	f13ff0ef          	jal	ra,3074 <get_pin>
    3166:	4799                	li	a5,6
    3168:	cd31                	beqz	a0,31c4 <ch32_pin_attach_irq+0x72>
    316a:	4548                	lw	a0,12(a0)
    316c:	e7dff0ef          	jal	ra,2fe8 <bit2bitno>
    3170:	473d                	li	a4,15
    3172:	842a                	mv	s0,a0
    3174:	4799                	li	a5,6
    3176:	04a76763          	bltu	a4,a0,31c4 <ch32_pin_attach_irq+0x72>
    317a:	a49fe0ef          	jal	ra,1bc2 <rt_hw_interrupt_disable>
    317e:	46b1                	li	a3,12
    3180:	02d406b3          	mul	a3,s0,a3
    3184:	200007b7          	lui	a5,0x20000
    3188:	08078713          	addi	a4,a5,128 # 20000080 <pin_irq_hdr_tab>
    318c:	862a                	mv	a2,a0
    318e:	08078793          	addi	a5,a5,128
    3192:	9736                	add	a4,a4,a3
    3194:	00071683          	lh	a3,0(a4)
    3198:	00969f63          	bne	a3,s1,31b6 <ch32_pin_attach_irq+0x64>
    319c:	434c                	lw	a1,4(a4)
    319e:	01459c63          	bne	a1,s4,31b6 <ch32_pin_attach_irq+0x64>
    31a2:	232e                	lhu	a1,2(a4)
    31a4:	01359963          	bne	a1,s3,31b6 <ch32_pin_attach_irq+0x64>
    31a8:	4718                	lw	a4,8(a4)
    31aa:	01271663          	bne	a4,s2,31b6 <ch32_pin_attach_irq+0x64>
    31ae:	a21fe0ef          	jal	ra,1bce <rt_hw_interrupt_enable>
    31b2:	4781                	li	a5,0
    31b4:	a801                	j	31c4 <ch32_pin_attach_irq+0x72>
    31b6:	577d                	li	a4,-1
    31b8:	00e68963          	beq	a3,a4,31ca <ch32_pin_attach_irq+0x78>
    31bc:	8532                	mv	a0,a2
    31be:	a11fe0ef          	jal	ra,1bce <rt_hw_interrupt_enable>
    31c2:	479d                	li	a5,7
    31c4:	853e                	mv	a0,a5
    31c6:	a36fd06f          	j	3fc <__riscv_restore_4>
    31ca:	4531                	li	a0,12
    31cc:	02a40533          	mul	a0,s0,a0
    31d0:	953e                	add	a0,a0,a5
    31d2:	a106                	sh	s1,0(a0)
    31d4:	01452223          	sw	s4,4(a0)
    31d8:	01351123          	sh	s3,2(a0)
    31dc:	01252423          	sw	s2,8(a0)
    31e0:	8532                	mv	a0,a2
    31e2:	b7f1                	j	31ae <ch32_pin_attach_irq+0x5c>

000031e4 <ch32_pin_dettach_irq>:
    31e4:	9fefd2ef          	jal	t0,3e2 <__riscv_save_0>
    31e8:	0ff5f513          	andi	a0,a1,255
    31ec:	e89ff0ef          	jal	ra,3074 <get_pin>
    31f0:	4719                	li	a4,6
    31f2:	c91d                	beqz	a0,3228 <ch32_pin_dettach_irq+0x44>
    31f4:	4548                	lw	a0,12(a0)
    31f6:	df3ff0ef          	jal	ra,2fe8 <bit2bitno>
    31fa:	47bd                	li	a5,15
    31fc:	842a                	mv	s0,a0
    31fe:	4719                	li	a4,6
    3200:	02a7e463          	bltu	a5,a0,3228 <ch32_pin_dettach_irq+0x44>
    3204:	9bffe0ef          	jal	ra,1bc2 <rt_hw_interrupt_disable>
    3208:	47b1                	li	a5,12
    320a:	02f40433          	mul	s0,s0,a5
    320e:	200007b7          	lui	a5,0x20000
    3212:	08078793          	addi	a5,a5,128 # 20000080 <pin_irq_hdr_tab>
    3216:	577d                	li	a4,-1
    3218:	97a2                	add	a5,a5,s0
    321a:	00079683          	lh	a3,0(a5)
    321e:	00e69863          	bne	a3,a4,322e <ch32_pin_dettach_irq+0x4a>
    3222:	9adfe0ef          	jal	ra,1bce <rt_hw_interrupt_enable>
    3226:	4701                	li	a4,0
    3228:	853a                	mv	a0,a4
    322a:	9dcfd06f          	j	406 <__riscv_restore_0>
    322e:	6741                	lui	a4,0x10
    3230:	177d                	addi	a4,a4,-1
    3232:	c398                	sw	a4,0(a5)
    3234:	0007a223          	sw	zero,4(a5)
    3238:	0007a423          	sw	zero,8(a5)
    323c:	b7dd                	j	3222 <ch32_pin_dettach_irq+0x3e>

0000323e <ch32_pin_irq_enable>:
    323e:	98afd2ef          	jal	t0,3c8 <__riscv_save_4>
    3242:	1101                	addi	sp,sp,-32
    3244:	0ff5f513          	andi	a0,a1,255
    3248:	8a32                	mv	s4,a2
    324a:	e2bff0ef          	jal	ra,3074 <get_pin>
    324e:	4799                	li	a5,6
    3250:	c121                	beqz	a0,3290 <ch32_pin_irq_enable+0x52>
    3252:	4485                	li	s1,1
    3254:	842a                	mv	s0,a0
    3256:	109a1563          	bne	s4,s1,3360 <ch32_pin_irq_enable+0x122>
    325a:	4548                	lw	a0,12(a0)
    325c:	d8dff0ef          	jal	ra,2fe8 <bit2bitno>
    3260:	473d                	li	a4,15
    3262:	84aa                	mv	s1,a0
    3264:	4799                	li	a5,6
    3266:	02a76563          	bltu	a4,a0,3290 <ch32_pin_irq_enable+0x52>
    326a:	959fe0ef          	jal	ra,1bc2 <rt_hw_interrupt_disable>
    326e:	4ab1                	li	s5,12
    3270:	035487b3          	mul	a5,s1,s5
    3274:	20000937          	lui	s2,0x20000
    3278:	08090913          	addi	s2,s2,128 # 20000080 <pin_irq_hdr_tab>
    327c:	89aa                	mv	s3,a0
    327e:	993e                	add	s2,s2,a5
    3280:	00091703          	lh	a4,0(s2)
    3284:	57fd                	li	a5,-1
    3286:	00f71963          	bne	a4,a5,3298 <ch32_pin_irq_enable+0x5a>
    328a:	945fe0ef          	jal	ra,1bce <rt_hw_interrupt_enable>
    328e:	4799                	li	a5,6
    3290:	853e                	mv	a0,a5
    3292:	6105                	addi	sp,sp,32
    3294:	968fd06f          	j	3fc <__riscv_restore_4>
    3298:	405c                	lw	a5,4(s0)
    329a:	9782                	jalr	a5
    329c:	4585                	li	a1,1
    329e:	4505                	li	a0,1
    32a0:	6e1030ef          	jal	ra,7180 <RCC_APB2PeriphClockCmd>
    32a4:	445c                	lw	a5,12(s0)
    32a6:	470d                	li	a4,3
    32a8:	c43a                	sw	a4,8(sp)
    32aa:	827c                	sh	a5,4(sp)
    32ac:	c83e                	sw	a5,16(sp)
    32ae:	00295783          	lhu	a5,2(s2)
    32b2:	ca02                	sw	zero,20(sp)
    32b4:	ce52                	sw	s4,28(sp)
    32b6:	09478c63          	beq	a5,s4,334e <ch32_pin_irq_enable+0x110>
    32ba:	c7c1                	beqz	a5,3342 <ch32_pin_irq_enable+0x104>
    32bc:	4709                	li	a4,2
    32be:	08e78d63          	beq	a5,a4,3358 <ch32_pin_irq_enable+0x11a>
    32c2:	4408                	lw	a0,8(s0)
    32c4:	004c                	addi	a1,sp,4
    32c6:	3ef030ef          	jal	ra,6eb4 <GPIO_Init>
    32ca:	4418                	lw	a4,8(s0)
    32cc:	400117b7          	lui	a5,0x40011
    32d0:	c0078693          	addi	a3,a5,-1024 # 40010c00 <_eusrstack+0x20000c00>
    32d4:	4505                	li	a0,1
    32d6:	02d70263          	beq	a4,a3,32fa <ch32_pin_irq_enable+0xbc>
    32da:	4509                	li	a0,2
    32dc:	00f70f63          	beq	a4,a5,32fa <ch32_pin_irq_enable+0xbc>
    32e0:	40078793          	addi	a5,a5,1024
    32e4:	450d                	li	a0,3
    32e6:	00f70a63          	beq	a4,a5,32fa <ch32_pin_irq_enable+0xbc>
    32ea:	400127b7          	lui	a5,0x40012
    32ee:	80078793          	addi	a5,a5,-2048 # 40011800 <_eusrstack+0x20001800>
    32f2:	4501                	li	a0,0
    32f4:	00f71363          	bne	a4,a5,32fa <ch32_pin_irq_enable+0xbc>
    32f8:	4511                	li	a0,4
    32fa:	0ff4f593          	andi	a1,s1,255
    32fe:	493030ef          	jal	ra,6f90 <GPIO_EXTILineConfig>
    3302:	0808                	addi	a0,sp,16
    3304:	31f030ef          	jal	ra,6e22 <EXTI_Init>
    3308:	67ad                	lui	a5,0xb
    330a:	c0478793          	addi	a5,a5,-1020 # ac04 <pin_irq_map>
    330e:	048e                	slli	s1,s1,0x3
    3310:	94be                	add	s1,s1,a5
    3312:	40d0                	lw	a2,4(s1)
    3314:	e000e737          	lui	a4,0xe000e
    3318:	05000693          	li	a3,80
    331c:	00c707b3          	add	a5,a4,a2
    3320:	40d78023          	sb	a3,1024(a5)
    3324:	00565793          	srli	a5,a2,0x5
    3328:	04078793          	addi	a5,a5,64
    332c:	4685                	li	a3,1
    332e:	078a                	slli	a5,a5,0x2
    3330:	00c696b3          	sll	a3,a3,a2
    3334:	97ba                	add	a5,a5,a4
    3336:	c394                	sw	a3,0(a5)
    3338:	854e                	mv	a0,s3
    333a:	895fe0ef          	jal	ra,1bce <rt_hw_interrupt_enable>
    333e:	4781                	li	a5,0
    3340:	bf81                	j	3290 <ch32_pin_irq_enable+0x52>
    3342:	02800793          	li	a5,40
    3346:	c63e                	sw	a5,12(sp)
    3348:	47a1                	li	a5,8
    334a:	cc3e                	sw	a5,24(sp)
    334c:	bf9d                	j	32c2 <ch32_pin_irq_enable+0x84>
    334e:	04800793          	li	a5,72
    3352:	c63e                	sw	a5,12(sp)
    3354:	cc56                	sw	s5,24(sp)
    3356:	b7b5                	j	32c2 <ch32_pin_irq_enable+0x84>
    3358:	4791                	li	a5,4
    335a:	c63e                	sw	a5,12(sp)
    335c:	47c1                	li	a5,16
    335e:	b7f5                	j	334a <ch32_pin_irq_enable+0x10c>
    3360:	4799                	li	a5,6
    3362:	f20a17e3          	bnez	s4,3290 <ch32_pin_irq_enable+0x52>
    3366:	4548                	lw	a0,12(a0)
    3368:	c81ff0ef          	jal	ra,2fe8 <bit2bitno>
    336c:	473d                	li	a4,15
    336e:	4799                	li	a5,6
    3370:	f2a760e3          	bltu	a4,a0,3290 <ch32_pin_irq_enable+0x52>
    3374:	00351793          	slli	a5,a0,0x3
    3378:	652d                	lui	a0,0xb
    337a:	c0450513          	addi	a0,a0,-1020 # ac04 <pin_irq_map>
    337e:	953e                	add	a0,a0,a5
    3380:	4158                	lw	a4,4(a0)
    3382:	00575793          	srli	a5,a4,0x5
    3386:	06078793          	addi	a5,a5,96
    338a:	00e494b3          	sll	s1,s1,a4
    338e:	078a                	slli	a5,a5,0x2
    3390:	e000e737          	lui	a4,0xe000e
    3394:	97ba                	add	a5,a5,a4
    3396:	c384                	sw	s1,0(a5)
    3398:	b75d                	j	333e <ch32_pin_irq_enable+0x100>

0000339a <HAL_GPIO_EXTI_Callback>:
    339a:	848fd2ef          	jal	t0,3e2 <__riscv_save_0>
    339e:	c4bff0ef          	jal	ra,2fe8 <bit2bitno>
    33a2:	47b1                	li	a5,12
    33a4:	02f50533          	mul	a0,a0,a5
    33a8:	200007b7          	lui	a5,0x20000
    33ac:	08078793          	addi	a5,a5,128 # 20000080 <pin_irq_hdr_tab>
    33b0:	953e                	add	a0,a0,a5
    33b2:	415c                	lw	a5,4(a0)
    33b4:	c399                	beqz	a5,33ba <HAL_GPIO_EXTI_Callback+0x20>
    33b6:	4508                	lw	a0,8(a0)
    33b8:	9782                	jalr	a5
    33ba:	84cfd06f          	j	406 <__riscv_restore_0>

000033be <EXTI0_IRQHandler>:
    33be:	34011173          	csrrw	sp,mscratch,sp
    33c2:	d74fd0ef          	jal	ra,936 <rt_interrupt_enter>
    33c6:	4505                	li	a0,1
    33c8:	2c5030ef          	jal	ra,6e8c <EXTI_GetITStatus>
    33cc:	c519                	beqz	a0,33da <EXTI0_IRQHandler+0x1c>
    33ce:	4505                	li	a0,1
    33d0:	fcbff0ef          	jal	ra,339a <HAL_GPIO_EXTI_Callback>
    33d4:	4505                	li	a0,1
    33d6:	2d5030ef          	jal	ra,6eaa <EXTI_ClearITPendingBit>
    33da:	d88fd0ef          	jal	ra,962 <rt_interrupt_leave>
    33de:	34011173          	csrrw	sp,mscratch,sp
    33e2:	30200073          	mret

000033e6 <EXTI1_IRQHandler>:
    33e6:	34011173          	csrrw	sp,mscratch,sp
    33ea:	d4cfd0ef          	jal	ra,936 <rt_interrupt_enter>
    33ee:	4509                	li	a0,2
    33f0:	29d030ef          	jal	ra,6e8c <EXTI_GetITStatus>
    33f4:	c519                	beqz	a0,3402 <EXTI1_IRQHandler+0x1c>
    33f6:	4509                	li	a0,2
    33f8:	fa3ff0ef          	jal	ra,339a <HAL_GPIO_EXTI_Callback>
    33fc:	4509                	li	a0,2
    33fe:	2ad030ef          	jal	ra,6eaa <EXTI_ClearITPendingBit>
    3402:	d60fd0ef          	jal	ra,962 <rt_interrupt_leave>
    3406:	34011173          	csrrw	sp,mscratch,sp
    340a:	30200073          	mret

0000340e <EXTI2_IRQHandler>:
    340e:	34011173          	csrrw	sp,mscratch,sp
    3412:	d24fd0ef          	jal	ra,936 <rt_interrupt_enter>
    3416:	4511                	li	a0,4
    3418:	275030ef          	jal	ra,6e8c <EXTI_GetITStatus>
    341c:	c519                	beqz	a0,342a <EXTI2_IRQHandler+0x1c>
    341e:	4511                	li	a0,4
    3420:	f7bff0ef          	jal	ra,339a <HAL_GPIO_EXTI_Callback>
    3424:	4511                	li	a0,4
    3426:	285030ef          	jal	ra,6eaa <EXTI_ClearITPendingBit>
    342a:	d38fd0ef          	jal	ra,962 <rt_interrupt_leave>
    342e:	34011173          	csrrw	sp,mscratch,sp
    3432:	30200073          	mret

00003436 <EXTI3_IRQHandler>:
    3436:	34011173          	csrrw	sp,mscratch,sp
    343a:	cfcfd0ef          	jal	ra,936 <rt_interrupt_enter>
    343e:	4521                	li	a0,8
    3440:	24d030ef          	jal	ra,6e8c <EXTI_GetITStatus>
    3444:	c519                	beqz	a0,3452 <EXTI3_IRQHandler+0x1c>
    3446:	4521                	li	a0,8
    3448:	f53ff0ef          	jal	ra,339a <HAL_GPIO_EXTI_Callback>
    344c:	4521                	li	a0,8
    344e:	25d030ef          	jal	ra,6eaa <EXTI_ClearITPendingBit>
    3452:	d10fd0ef          	jal	ra,962 <rt_interrupt_leave>
    3456:	34011173          	csrrw	sp,mscratch,sp
    345a:	30200073          	mret

0000345e <EXTI4_IRQHandler>:
    345e:	34011173          	csrrw	sp,mscratch,sp
    3462:	cd4fd0ef          	jal	ra,936 <rt_interrupt_enter>
    3466:	4541                	li	a0,16
    3468:	225030ef          	jal	ra,6e8c <EXTI_GetITStatus>
    346c:	c519                	beqz	a0,347a <EXTI4_IRQHandler+0x1c>
    346e:	4541                	li	a0,16
    3470:	f2bff0ef          	jal	ra,339a <HAL_GPIO_EXTI_Callback>
    3474:	4541                	li	a0,16
    3476:	235030ef          	jal	ra,6eaa <EXTI_ClearITPendingBit>
    347a:	ce8fd0ef          	jal	ra,962 <rt_interrupt_leave>
    347e:	34011173          	csrrw	sp,mscratch,sp
    3482:	30200073          	mret

00003486 <EXTI9_5_IRQHandler>:
    3486:	34011173          	csrrw	sp,mscratch,sp
    348a:	cacfd0ef          	jal	ra,936 <rt_interrupt_enter>
    348e:	02000513          	li	a0,32
    3492:	1fb030ef          	jal	ra,6e8c <EXTI_GetITStatus>
    3496:	cd1d                	beqz	a0,34d4 <EXTI9_5_IRQHandler+0x4e>
    3498:	02000513          	li	a0,32
    349c:	effff0ef          	jal	ra,339a <HAL_GPIO_EXTI_Callback>
    34a0:	04000513          	li	a0,64
    34a4:	ef7ff0ef          	jal	ra,339a <HAL_GPIO_EXTI_Callback>
    34a8:	08000513          	li	a0,128
    34ac:	eefff0ef          	jal	ra,339a <HAL_GPIO_EXTI_Callback>
    34b0:	10000513          	li	a0,256
    34b4:	ee7ff0ef          	jal	ra,339a <HAL_GPIO_EXTI_Callback>
    34b8:	20000513          	li	a0,512
    34bc:	edfff0ef          	jal	ra,339a <HAL_GPIO_EXTI_Callback>
    34c0:	3e000513          	li	a0,992
    34c4:	1e7030ef          	jal	ra,6eaa <EXTI_ClearITPendingBit>
    34c8:	c9afd0ef          	jal	ra,962 <rt_interrupt_leave>
    34cc:	34011173          	csrrw	sp,mscratch,sp
    34d0:	30200073          	mret
    34d4:	04000513          	li	a0,64
    34d8:	1b5030ef          	jal	ra,6e8c <EXTI_GetITStatus>
    34dc:	fd55                	bnez	a0,3498 <EXTI9_5_IRQHandler+0x12>
    34de:	08000513          	li	a0,128
    34e2:	1ab030ef          	jal	ra,6e8c <EXTI_GetITStatus>
    34e6:	f94d                	bnez	a0,3498 <EXTI9_5_IRQHandler+0x12>
    34e8:	10000513          	li	a0,256
    34ec:	1a1030ef          	jal	ra,6e8c <EXTI_GetITStatus>
    34f0:	f545                	bnez	a0,3498 <EXTI9_5_IRQHandler+0x12>
    34f2:	20000513          	li	a0,512
    34f6:	197030ef          	jal	ra,6e8c <EXTI_GetITStatus>
    34fa:	fd59                	bnez	a0,3498 <EXTI9_5_IRQHandler+0x12>
    34fc:	b7f1                	j	34c8 <EXTI9_5_IRQHandler+0x42>

000034fe <EXTI15_10_IRQHandler>:
    34fe:	34011173          	csrrw	sp,mscratch,sp
    3502:	c34fd0ef          	jal	ra,936 <rt_interrupt_enter>
    3506:	40000513          	li	a0,1024
    350a:	183030ef          	jal	ra,6e8c <EXTI_GetITStatus>
    350e:	c129                	beqz	a0,3550 <EXTI15_10_IRQHandler+0x52>
    3510:	40000513          	li	a0,1024
    3514:	e87ff0ef          	jal	ra,339a <HAL_GPIO_EXTI_Callback>
    3518:	6505                	lui	a0,0x1
    351a:	80050513          	addi	a0,a0,-2048 # 800 <__stack_size>
    351e:	e7dff0ef          	jal	ra,339a <HAL_GPIO_EXTI_Callback>
    3522:	6505                	lui	a0,0x1
    3524:	e77ff0ef          	jal	ra,339a <HAL_GPIO_EXTI_Callback>
    3528:	6509                	lui	a0,0x2
    352a:	e71ff0ef          	jal	ra,339a <HAL_GPIO_EXTI_Callback>
    352e:	6511                	lui	a0,0x4
    3530:	e6bff0ef          	jal	ra,339a <HAL_GPIO_EXTI_Callback>
    3534:	6521                	lui	a0,0x8
    3536:	e65ff0ef          	jal	ra,339a <HAL_GPIO_EXTI_Callback>
    353a:	6541                	lui	a0,0x10
    353c:	c0050513          	addi	a0,a0,-1024 # fc00 <__rt_init_end+0x2ae8>
    3540:	16b030ef          	jal	ra,6eaa <EXTI_ClearITPendingBit>
    3544:	c1efd0ef          	jal	ra,962 <rt_interrupt_leave>
    3548:	34011173          	csrrw	sp,mscratch,sp
    354c:	30200073          	mret
    3550:	6505                	lui	a0,0x1
    3552:	80050513          	addi	a0,a0,-2048 # 800 <__stack_size>
    3556:	137030ef          	jal	ra,6e8c <EXTI_GetITStatus>
    355a:	f95d                	bnez	a0,3510 <EXTI15_10_IRQHandler+0x12>
    355c:	6505                	lui	a0,0x1
    355e:	12f030ef          	jal	ra,6e8c <EXTI_GetITStatus>
    3562:	f55d                	bnez	a0,3510 <EXTI15_10_IRQHandler+0x12>
    3564:	6509                	lui	a0,0x2
    3566:	127030ef          	jal	ra,6e8c <EXTI_GetITStatus>
    356a:	f15d                	bnez	a0,3510 <EXTI15_10_IRQHandler+0x12>
    356c:	6511                	lui	a0,0x4
    356e:	11f030ef          	jal	ra,6e8c <EXTI_GetITStatus>
    3572:	fd59                	bnez	a0,3510 <EXTI15_10_IRQHandler+0x12>
    3574:	6521                	lui	a0,0x8
    3576:	117030ef          	jal	ra,6e8c <EXTI_GetITStatus>
    357a:	f959                	bnez	a0,3510 <EXTI15_10_IRQHandler+0x12>
    357c:	b7e1                	j	3544 <EXTI15_10_IRQHandler+0x46>

0000357e <ch32dma_transmit>:
    357e:	4501                	li	a0,0
    3580:	8082                	ret

00003582 <ch32_configure>:
    3582:	e61fc2ef          	jal	t0,3e2 <__riscv_save_0>
    3586:	419c                	lw	a5,0(a1)
    3588:	4120                	lw	s0,64(a0)
    358a:	46a1                	li	a3,8
    358c:	1141                	addi	sp,sp,-16
    358e:	c01c                	sw	a5,0(s0)
    3590:	47b1                	li	a5,12
    3592:	a43e                	sh	a5,10(s0)
    3594:	41dc                	lw	a5,4(a1)
    3596:	00041623          	sh	zero,12(s0)
    359a:	00f7f713          	andi	a4,a5,15
    359e:	02d70163          	beq	a4,a3,35c0 <ch32_configure+0x3e>
    35a2:	46a5                	li	a3,9
    35a4:	00d71e63          	bne	a4,a3,35c0 <ch32_configure+0x3e>
    35a8:	6705                	lui	a4,0x1
    35aa:	a05a                	sh	a4,4(s0)
    35ac:	0047d713          	srli	a4,a5,0x4
    35b0:	8b0d                	andi	a4,a4,3
    35b2:	c701                	beqz	a4,35ba <ch32_configure+0x38>
    35b4:	4685                	li	a3,1
    35b6:	00d70863          	beq	a4,a3,35c6 <ch32_configure+0x44>
    35ba:	00041323          	sh	zero,6(s0)
    35be:	a031                	j	35ca <ch32_configure+0x48>
    35c0:	00041223          	sh	zero,4(s0)
    35c4:	b7e5                	j	35ac <ch32_configure+0x2a>
    35c6:	6709                	lui	a4,0x2
    35c8:	a07a                	sh	a4,6(s0)
    35ca:	8399                	srli	a5,a5,0x6
    35cc:	8b8d                	andi	a5,a5,3
    35ce:	4705                	li	a4,1
    35d0:	00e78963          	beq	a5,a4,35e2 <ch32_configure+0x60>
    35d4:	c781                	beqz	a5,35dc <ch32_configure+0x5a>
    35d6:	4709                	li	a4,2
    35d8:	06e78963          	beq	a5,a4,364a <ch32_configure+0xc8>
    35dc:	00041423          	sh	zero,8(s0)
    35e0:	a021                	j	35e8 <ch32_configure+0x66>
    35e2:	60000793          	li	a5,1536
    35e6:	a41e                	sh	a5,8(s0)
    35e8:	4818                	lw	a4,16(s0)
    35ea:	400147b7          	lui	a5,0x40014
    35ee:	80078793          	addi	a5,a5,-2048 # 40013800 <_eusrstack+0x20003800>
    35f2:	04f71863          	bne	a4,a5,3642 <ch32_configure+0xc0>
    35f6:	6511                	lui	a0,0x4
    35f8:	4585                	li	a1,1
    35fa:	0511                	addi	a0,a0,4
    35fc:	385030ef          	jal	ra,7180 <RCC_APB2PeriphClockCmd>
    3600:	20000793          	li	a5,512
    3604:	400114b7          	lui	s1,0x40011
    3608:	827c                	sh	a5,4(sp)
    360a:	490d                	li	s2,3
    360c:	47e1                	li	a5,24
    360e:	004c                	addi	a1,sp,4
    3610:	80048513          	addi	a0,s1,-2048 # 40010800 <_eusrstack+0x20000800>
    3614:	c63e                	sw	a5,12(sp)
    3616:	c44a                	sw	s2,8(sp)
    3618:	09d030ef          	jal	ra,6eb4 <GPIO_Init>
    361c:	40000793          	li	a5,1024
    3620:	827c                	sh	a5,4(sp)
    3622:	004c                	addi	a1,sp,4
    3624:	4791                	li	a5,4
    3626:	80048513          	addi	a0,s1,-2048
    362a:	c63e                	sw	a5,12(sp)
    362c:	c44a                	sw	s2,8(sp)
    362e:	087030ef          	jal	ra,6eb4 <GPIO_Init>
    3632:	4808                	lw	a0,16(s0)
    3634:	85a2                	mv	a1,s0
    3636:	40b030ef          	jal	ra,7240 <USART_Init>
    363a:	4808                	lw	a0,16(s0)
    363c:	4585                	li	a1,1
    363e:	4bf030ef          	jal	ra,72fc <USART_Cmd>
    3642:	4501                	li	a0,0
    3644:	0141                	addi	sp,sp,16
    3646:	dc1fc06f          	j	406 <__riscv_restore_0>
    364a:	40000793          	li	a5,1024
    364e:	bf61                	j	35e6 <ch32_configure+0x64>

00003650 <rt_hw_usart_init>:
    3650:	d79fc2ef          	jal	t0,3c8 <__riscv_save_4>
    3654:	200024b7          	lui	s1,0x20002
    3658:	93448413          	addi	s0,s1,-1740 # 20001934 <uart1>
    365c:	03500793          	li	a5,53
    3660:	c85c                	sw	a5,20(s0)
    3662:	20002937          	lui	s2,0x20002
    3666:	400147b7          	lui	a5,0x40014
    366a:	8dc90613          	addi	a2,s2,-1828 # 200018dc <serial1>
    366e:	80078793          	addi	a5,a5,-2048 # 40013800 <_eusrstack+0x20003800>
    3672:	4674                	lw	a3,76(a2)
    3674:	c81c                	sw	a5,16(s0)
    3676:	67ad                	lui	a5,0xb
    3678:	2d878793          	addi	a5,a5,728 # b2d8 <ch32_uart_ops>
    367c:	c27c                	sw	a5,68(a2)
    367e:	c00007b7          	lui	a5,0xc0000
    3682:	8ff5                	and	a5,a5,a3
    3684:	66c1                	lui	a3,0x10
    3686:	06a1                	addi	a3,a3,8
    3688:	6771                	lui	a4,0x1c
    368a:	20070713          	addi	a4,a4,512 # 1c200 <__rt_init_end+0xf0e8>
    368e:	8fd5                	or	a5,a5,a3
    3690:	6511                	lui	a0,0x4
    3692:	1141                	addi	sp,sp,-16
    3694:	c638                	sw	a4,72(a2)
    3696:	c67c                	sw	a5,76(a2)
    3698:	4585                	li	a1,1
    369a:	000c07b7          	lui	a5,0xc0
    369e:	0511                	addi	a0,a0,4
    36a0:	c018                	sw	a4,0(s0)
    36a2:	c41c                	sw	a5,8(s0)
    36a4:	00042223          	sw	zero,4(s0)
    36a8:	00041623          	sh	zero,12(s0)
    36ac:	2d5030ef          	jal	ra,7180 <RCC_APB2PeriphClockCmd>
    36b0:	400119b7          	lui	s3,0x40011
    36b4:	20000793          	li	a5,512
    36b8:	827c                	sh	a5,4(sp)
    36ba:	4a0d                	li	s4,3
    36bc:	47e1                	li	a5,24
    36be:	004c                	addi	a1,sp,4
    36c0:	80098513          	addi	a0,s3,-2048 # 40010800 <_eusrstack+0x20000800>
    36c4:	c452                	sw	s4,8(sp)
    36c6:	c63e                	sw	a5,12(sp)
    36c8:	7ec030ef          	jal	ra,6eb4 <GPIO_Init>
    36cc:	40000793          	li	a5,1024
    36d0:	827c                	sh	a5,4(sp)
    36d2:	004c                	addi	a1,sp,4
    36d4:	4791                	li	a5,4
    36d6:	80098513          	addi	a0,s3,-2048
    36da:	c63e                	sw	a5,12(sp)
    36dc:	c452                	sw	s4,8(sp)
    36de:	7d6030ef          	jal	ra,6eb4 <GPIO_Init>
    36e2:	4808                	lw	a0,16(s0)
    36e4:	93448593          	addi	a1,s1,-1740
    36e8:	359030ef          	jal	ra,7240 <USART_Init>
    36ec:	4808                	lw	a0,16(s0)
    36ee:	4585                	li	a1,1
    36f0:	40d030ef          	jal	ra,72fc <USART_Cmd>
    36f4:	0000b5b7          	lui	a1,0xb
    36f8:	93448693          	addi	a3,s1,-1740
    36fc:	10300613          	li	a2,259
    3700:	be458593          	addi	a1,a1,-1052 # abe4 <__fsym_pinMode_name+0x8>
    3704:	8dc90513          	addi	a0,s2,-1828
    3708:	e20ff0ef          	jal	ra,2d28 <rt_hw_serial_register>
    370c:	4501                	li	a0,0
    370e:	0141                	addi	sp,sp,16
    3710:	cedfc06f          	j	3fc <__riscv_restore_4>

00003714 <ch32_getc>:
    3714:	ccffc2ef          	jal	t0,3e2 <__riscv_save_0>
    3718:	4120                	lw	s0,64(a0)
    371a:	02000593          	li	a1,32
    371e:	4808                	lw	a0,16(s0)
    3720:	439030ef          	jal	ra,7358 <USART_GetFlagStatus>
    3724:	c519                	beqz	a0,3732 <ch32_getc+0x1e>
    3726:	481c                	lw	a5,16(s0)
    3728:	23ca                	lhu	a0,4(a5)
    372a:	0ff57513          	andi	a0,a0,255
    372e:	cd9fc06f          	j	406 <__riscv_restore_0>
    3732:	557d                	li	a0,-1
    3734:	bfed                	j	372e <ch32_getc+0x1a>

00003736 <ch32_putc>:
    3736:	cadfc2ef          	jal	t0,3e2 <__riscv_save_0>
    373a:	4124                	lw	s1,64(a0)
    373c:	842e                	mv	s0,a1
    373e:	4888                	lw	a0,16(s1)
    3740:	04000593          	li	a1,64
    3744:	415030ef          	jal	ra,7358 <USART_GetFlagStatus>
    3748:	d97d                	beqz	a0,373e <ch32_putc+0x8>
    374a:	489c                	lw	a5,16(s1)
    374c:	0442                	slli	s0,s0,0x10
    374e:	8041                	srli	s0,s0,0x10
    3750:	a3c2                	sh	s0,4(a5)
    3752:	4505                	li	a0,1
    3754:	cb3fc06f          	j	406 <__riscv_restore_0>

00003758 <ch32_control>:
    3758:	c8bfc2ef          	jal	t0,3e2 <__riscv_save_0>
    375c:	47c1                	li	a5,16
    375e:	4138                	lw	a4,64(a0)
    3760:	02f58b63          	beq	a1,a5,3796 <ch32_control+0x3e>
    3764:	47c5                	li	a5,17
    3766:	02f59563          	bne	a1,a5,3790 <ch32_control+0x38>
    376a:	4b54                	lw	a3,20(a4)
    376c:	4605                	li	a2,1
    376e:	0056d793          	srli	a5,a3,0x5
    3772:	06078793          	addi	a5,a5,96 # c0060 <__rt_init_end+0xb2f48>
    3776:	00d61633          	sll	a2,a2,a3
    377a:	078a                	slli	a5,a5,0x2
    377c:	e000e6b7          	lui	a3,0xe000e
    3780:	97b6                	add	a5,a5,a3
    3782:	c390                	sw	a2,0(a5)
    3784:	4601                	li	a2,0
    3786:	4b08                	lw	a0,16(a4)
    3788:	52500593          	li	a1,1317
    378c:	387030ef          	jal	ra,7312 <USART_ITConfig>
    3790:	4501                	li	a0,0
    3792:	c75fc06f          	j	406 <__riscv_restore_0>
    3796:	4b54                	lw	a3,20(a4)
    3798:	4605                	li	a2,1
    379a:	0056d793          	srli	a5,a3,0x5
    379e:	04078793          	addi	a5,a5,64
    37a2:	00d61633          	sll	a2,a2,a3
    37a6:	078a                	slli	a5,a5,0x2
    37a8:	e000e6b7          	lui	a3,0xe000e
    37ac:	97b6                	add	a5,a5,a3
    37ae:	c390                	sw	a2,0(a5)
    37b0:	4605                	li	a2,1
    37b2:	bfd1                	j	3786 <ch32_control+0x2e>

000037b4 <USART1_IRQHandler>:
    37b4:	1141                	addi	sp,sp,-16
    37b6:	c622                	sw	s0,12(sp)
    37b8:	c426                	sw	s1,8(sp)
    37ba:	34011173          	csrrw	sp,mscratch,sp
    37be:	200024b7          	lui	s1,0x20002
    37c2:	974fd0ef          	jal	ra,936 <rt_interrupt_enter>
    37c6:	8dc48793          	addi	a5,s1,-1828 # 200018dc <serial1>
    37ca:	43a0                	lw	s0,64(a5)
    37cc:	52500593          	li	a1,1317
    37d0:	4808                	lw	a0,16(s0)
    37d2:	391030ef          	jal	ra,7362 <USART_GetITStatus>
    37d6:	c919                	beqz	a0,37ec <USART1_IRQHandler+0x38>
    37d8:	4585                	li	a1,1
    37da:	8dc48513          	addi	a0,s1,-1828
    37de:	da4ff0ef          	jal	ra,2d82 <rt_hw_serial_isr>
    37e2:	4808                	lw	a0,16(s0)
    37e4:	52500593          	li	a1,1317
    37e8:	3b7030ef          	jal	ra,739e <USART_ClearITPendingBit>
    37ec:	976fd0ef          	jal	ra,962 <rt_interrupt_leave>
    37f0:	34011173          	csrrw	sp,mscratch,sp
    37f4:	4432                	lw	s0,12(sp)
    37f6:	44a2                	lw	s1,8(sp)
    37f8:	0141                	addi	sp,sp,16
    37fa:	30200073          	mret

000037fe <usDelay>:
    37fe:	02400793          	li	a5,36
    3802:	02f50533          	mul	a0,a0,a5
    3806:	4781                	li	a5,0
    3808:	0001                	nop
    380a:	0785                	addi	a5,a5,1
    380c:	fef51ee3          	bne	a0,a5,3808 <usDelay+0xa>
    3810:	8082                	ret

00003812 <SWSPI_Init>:
    3812:	bd1fc2ef          	jal	t0,3e2 <__riscv_save_0>
    3816:	1141                	addi	sp,sp,-16
    3818:	4585                	li	a1,1
    381a:	04000513          	li	a0,64
    381e:	40012937          	lui	s2,0x40012
    3822:	c202                	sw	zero,4(sp)
    3824:	c402                	sw	zero,8(sp)
    3826:	c602                	sw	zero,12(sp)
    3828:	159030ef          	jal	ra,7180 <RCC_APB2PeriphClockCmd>
    382c:	4441                	li	s0,16
    382e:	4489                	li	s1,2
    3830:	4785                	li	a5,1
    3832:	004c                	addi	a1,sp,4
    3834:	80090513          	addi	a0,s2,-2048 # 40011800 <_eusrstack+0x20001800>
    3838:	827c                	sh	a5,4(sp)
    383a:	c426                	sw	s1,8(sp)
    383c:	c622                	sw	s0,12(sp)
    383e:	676030ef          	jal	ra,6eb4 <GPIO_Init>
    3842:	4585                	li	a1,1
    3844:	04000513          	li	a0,64
    3848:	139030ef          	jal	ra,7180 <RCC_APB2PeriphClockCmd>
    384c:	004c                	addi	a1,sp,4
    384e:	80090513          	addi	a0,s2,-2048
    3852:	8264                	sh	s1,4(sp)
    3854:	c426                	sw	s1,8(sp)
    3856:	c622                	sw	s0,12(sp)
    3858:	65c030ef          	jal	ra,6eb4 <GPIO_Init>
    385c:	4585                	li	a1,1
    385e:	04000513          	li	a0,64
    3862:	11f030ef          	jal	ra,7180 <RCC_APB2PeriphClockCmd>
    3866:	4791                	li	a5,4
    3868:	004c                	addi	a1,sp,4
    386a:	80090513          	addi	a0,s2,-2048
    386e:	827c                	sh	a5,4(sp)
    3870:	c426                	sw	s1,8(sp)
    3872:	c622                	sw	s0,12(sp)
    3874:	640030ef          	jal	ra,6eb4 <GPIO_Init>
    3878:	4585                	li	a1,1
    387a:	04000513          	li	a0,64
    387e:	103030ef          	jal	ra,7180 <RCC_APB2PeriphClockCmd>
    3882:	47a1                	li	a5,8
    3884:	004c                	addi	a1,sp,4
    3886:	80090513          	addi	a0,s2,-2048
    388a:	827c                	sh	a5,4(sp)
    388c:	c426                	sw	s1,8(sp)
    388e:	c622                	sw	s0,12(sp)
    3890:	624030ef          	jal	ra,6eb4 <GPIO_Init>
    3894:	4585                	li	a1,1
    3896:	04000513          	li	a0,64
    389a:	0e7030ef          	jal	ra,7180 <RCC_APB2PeriphClockCmd>
    389e:	004c                	addi	a1,sp,4
    38a0:	80090513          	addi	a0,s2,-2048
    38a4:	8260                	sh	s0,4(sp)
    38a6:	c426                	sw	s1,8(sp)
    38a8:	c622                	sw	s0,12(sp)
    38aa:	60a030ef          	jal	ra,6eb4 <GPIO_Init>
    38ae:	0141                	addi	sp,sp,16
    38b0:	b57fc06f          	j	406 <__riscv_restore_0>

000038b4 <SWSPI_Write>:
    38b4:	b15fc2ef          	jal	t0,3c8 <__riscv_save_4>
    38b8:	84ae                	mv	s1,a1
    38ba:	8aaa                	mv	s5,a0
    38bc:	85b6                	mv	a1,a3
    38be:	8526                	mv	a0,s1
    38c0:	8a32                	mv	s4,a2
    38c2:	8936                	mv	s2,a3
    38c4:	441d                	li	s0,7
    38c6:	6bc030ef          	jal	ra,6f82 <GPIO_ResetBits>
    38ca:	59fd                	li	s3,-1
    38cc:	408ad633          	sra	a2,s5,s0
    38d0:	8a05                	andi	a2,a2,1
    38d2:	85d2                	mv	a1,s4
    38d4:	8526                	mv	a0,s1
    38d6:	6b0030ef          	jal	ra,6f86 <GPIO_WriteBit>
    38da:	85ca                	mv	a1,s2
    38dc:	8526                	mv	a0,s1
    38de:	6a0030ef          	jal	ra,6f7e <GPIO_SetBits>
    38e2:	85ca                	mv	a1,s2
    38e4:	8526                	mv	a0,s1
    38e6:	147d                	addi	s0,s0,-1
    38e8:	69a030ef          	jal	ra,6f82 <GPIO_ResetBits>
    38ec:	ff3410e3          	bne	s0,s3,38cc <SWSPI_Write+0x18>
    38f0:	b0dfc06f          	j	3fc <__riscv_restore_4>

000038f4 <YM3812_Reset>:
    38f4:	aeffc2ef          	jal	t0,3e2 <__riscv_save_0>
    38f8:	842a                	mv	s0,a0
    38fa:	84ae                	mv	s1,a1
    38fc:	686030ef          	jal	ra,6f82 <GPIO_ResetBits>
    3900:	4505                	li	a0,1
    3902:	810fe0ef          	jal	ra,1912 <rt_thread_mdelay>
    3906:	85a6                	mv	a1,s1
    3908:	8522                	mv	a0,s0
    390a:	674030ef          	jal	ra,6f7e <GPIO_SetBits>
    390e:	af9fc06f          	j	406 <__riscv_restore_0>

00003912 <YM3812_Write_Full>:
    3912:	ab7fc2ef          	jal	t0,3c8 <__riscv_save_4>
    3916:	8aaa                	mv	s5,a0
    3918:	8b2e                	mv	s6,a1
    391a:	8532                	mv	a0,a2
    391c:	85be                	mv	a1,a5
    391e:	84be                	mv	s1,a5
    3920:	89ba                	mv	s3,a4
    3922:	8a42                	mv	s4,a6
    3924:	8432                	mv	s0,a2
    3926:	8936                	mv	s2,a3
    3928:	656030ef          	jal	ra,6f7e <GPIO_SetBits>
    392c:	85d2                	mv	a1,s4
    392e:	8522                	mv	a0,s0
    3930:	652030ef          	jal	ra,6f82 <GPIO_ResetBits>
    3934:	86ce                	mv	a3,s3
    3936:	864a                	mv	a2,s2
    3938:	85a2                	mv	a1,s0
    393a:	855a                	mv	a0,s6
    393c:	f79ff0ef          	jal	ra,38b4 <SWSPI_Write>
    3940:	85a6                	mv	a1,s1
    3942:	8522                	mv	a0,s0
    3944:	63e030ef          	jal	ra,6f82 <GPIO_ResetBits>
    3948:	4541                	li	a0,16
    394a:	eb5ff0ef          	jal	ra,37fe <usDelay>
    394e:	85a6                	mv	a1,s1
    3950:	8522                	mv	a0,s0
    3952:	62c030ef          	jal	ra,6f7e <GPIO_SetBits>
    3956:	4541                	li	a0,16
    3958:	ea7ff0ef          	jal	ra,37fe <usDelay>
    395c:	85d2                	mv	a1,s4
    395e:	8522                	mv	a0,s0
    3960:	61e030ef          	jal	ra,6f7e <GPIO_SetBits>
    3964:	86ce                	mv	a3,s3
    3966:	864a                	mv	a2,s2
    3968:	85a2                	mv	a1,s0
    396a:	8556                	mv	a0,s5
    396c:	f49ff0ef          	jal	ra,38b4 <SWSPI_Write>
    3970:	85a6                	mv	a1,s1
    3972:	8522                	mv	a0,s0
    3974:	60e030ef          	jal	ra,6f82 <GPIO_ResetBits>
    3978:	4511                	li	a0,4
    397a:	e85ff0ef          	jal	ra,37fe <usDelay>
    397e:	85a6                	mv	a1,s1
    3980:	8522                	mv	a0,s0
    3982:	5fc030ef          	jal	ra,6f7e <GPIO_SetBits>
    3986:	05c00513          	li	a0,92
    398a:	e75ff0ef          	jal	ra,37fe <usDelay>
    398e:	a6ffc06f          	j	3fc <__riscv_restore_4>

00003992 <getChipRegisterOffset>:
    3992:	0ff57793          	andi	a5,a0,255
    3996:	4721                	li	a4,8
    3998:	00e78963          	beq	a5,a4,39aa <getChipRegisterOffset+0x18>
    399c:	0bd00713          	li	a4,189
    39a0:	4509                	li	a0,2
    39a2:	00e78563          	beq	a5,a4,39ac <getChipRegisterOffset+0x1a>
    39a6:	4501                	li	a0,0
    39a8:	8082                	ret
    39aa:	4505                	li	a0,1
    39ac:	8082                	ret

000039ae <getChipRegister>:
    39ae:	a35fc2ef          	jal	t0,3e2 <__riscv_save_0>
    39b2:	fe1ff0ef          	jal	ra,3992 <getChipRegisterOffset>
    39b6:	8f018793          	addi	a5,gp,-1808 # 20000410 <chipRegisters>
    39ba:	953e                	add	a0,a0,a5
    39bc:	2108                	lbu	a0,0(a0)
    39be:	a49fc06f          	j	406 <__riscv_restore_0>

000039c2 <getChannelRegisterOffset>:
    39c2:	47a5                	li	a5,9
    39c4:	02f5f5b3          	remu	a1,a1,a5
    39c8:	478d                	li	a5,3
    39ca:	02f585b3          	mul	a1,a1,a5
    39ce:	0b000793          	li	a5,176
    39d2:	00f50863          	beq	a0,a5,39e2 <getChannelRegisterOffset+0x20>
    39d6:	0c000793          	li	a5,192
    39da:	00f50863          	beq	a0,a5,39ea <getChannelRegisterOffset+0x28>
    39de:	852e                	mv	a0,a1
    39e0:	8082                	ret
    39e2:	0585                	addi	a1,a1,1
    39e4:	0ff5f593          	andi	a1,a1,255
    39e8:	bfdd                	j	39de <getChannelRegisterOffset+0x1c>
    39ea:	0589                	addi	a1,a1,2
    39ec:	bfe5                	j	39e4 <getChannelRegisterOffset+0x22>

000039ee <getChannelRegister>:
    39ee:	9f5fc2ef          	jal	t0,3e2 <__riscv_save_0>
    39f2:	fd1ff0ef          	jal	ra,39c2 <getChannelRegisterOffset>
    39f6:	200027b7          	lui	a5,0x20002
    39fa:	96878793          	addi	a5,a5,-1688 # 20001968 <channelRegisters>
    39fe:	953e                	add	a0,a0,a5
    3a00:	2108                	lbu	a0,0(a0)
    3a02:	a05fc06f          	j	406 <__riscv_restore_0>

00003a06 <getOperatorRegisterOffset>:
    3a06:	47a5                	li	a5,9
    3a08:	02f5f5b3          	remu	a1,a1,a5
    3a0c:	47a9                	li	a5,10
    3a0e:	8a05                	andi	a2,a2,1
    3a10:	02f585b3          	mul	a1,a1,a5
    3a14:	4795                	li	a5,5
    3a16:	02f60633          	mul	a2,a2,a5
    3a1a:	06000793          	li	a5,96
    3a1e:	962e                	add	a2,a2,a1
    3a20:	02f50a63          	beq	a0,a5,3a54 <getOperatorRegisterOffset+0x4e>
    3a24:	00a7ed63          	bltu	a5,a0,3a3e <getOperatorRegisterOffset+0x38>
    3a28:	04000713          	li	a4,64
    3a2c:	00160793          	addi	a5,a2,1
    3a30:	00e50563          	beq	a0,a4,3a3a <getOperatorRegisterOffset+0x34>
    3a34:	01061793          	slli	a5,a2,0x10
    3a38:	87c1                	srai	a5,a5,0x10
    3a3a:	853e                	mv	a0,a5
    3a3c:	8082                	ret
    3a3e:	08000713          	li	a4,128
    3a42:	00360793          	addi	a5,a2,3
    3a46:	fee50ae3          	beq	a0,a4,3a3a <getOperatorRegisterOffset+0x34>
    3a4a:	0e000713          	li	a4,224
    3a4e:	00460793          	addi	a5,a2,4
    3a52:	bff9                	j	3a30 <getOperatorRegisterOffset+0x2a>
    3a54:	00260793          	addi	a5,a2,2
    3a58:	b7cd                	j	3a3a <getOperatorRegisterOffset+0x34>

00003a5a <getOperatorRegister>:
    3a5a:	989fc2ef          	jal	t0,3e2 <__riscv_save_0>
    3a5e:	fa9ff0ef          	jal	ra,3a06 <getOperatorRegisterOffset>
    3a62:	200027b7          	lui	a5,0x20002
    3a66:	99c78793          	addi	a5,a5,-1636 # 2000199c <operatorRegisters>
    3a6a:	953e                	add	a0,a0,a5
    3a6c:	2108                	lbu	a0,0(a0)
    3a6e:	999fc06f          	j	406 <__riscv_restore_0>

00003a72 <YM3812_Write>:
    3a72:	971fc2ef          	jal	t0,3e2 <__riscv_save_0>
    3a76:	88ae                	mv	a7,a1
    3a78:	40012637          	lui	a2,0x40012
    3a7c:	85aa                	mv	a1,a0
    3a7e:	4821                	li	a6,8
    3a80:	4791                	li	a5,4
    3a82:	4709                	li	a4,2
    3a84:	4685                	li	a3,1
    3a86:	80060613          	addi	a2,a2,-2048 # 40011800 <_eusrstack+0x20001800>
    3a8a:	8546                	mv	a0,a7
    3a8c:	e87ff0ef          	jal	ra,3912 <YM3812_Write_Full>
    3a90:	977fc06f          	j	406 <__riscv_restore_0>

00003a94 <setChipRegister>:
    3a94:	94ffc2ef          	jal	t0,3e2 <__riscv_save_0>
    3a98:	1141                	addi	sp,sp,-16
    3a9a:	842a                	mv	s0,a0
    3a9c:	c62e                	sw	a1,12(sp)
    3a9e:	ef5ff0ef          	jal	ra,3992 <getChipRegisterOffset>
    3aa2:	45b2                	lw	a1,12(sp)
    3aa4:	8f018793          	addi	a5,gp,-1808 # 20000410 <chipRegisters>
    3aa8:	953e                	add	a0,a0,a5
    3aaa:	a10c                	sb	a1,0(a0)
    3aac:	0ff47513          	andi	a0,s0,255
    3ab0:	fc3ff0ef          	jal	ra,3a72 <YM3812_Write>
    3ab4:	0141                	addi	sp,sp,16
    3ab6:	951fc06f          	j	406 <__riscv_restore_0>

00003aba <setWaveFormSelect.part.0>:
    3aba:	929fc2ef          	jal	t0,3e2 <__riscv_save_0>
    3abe:	4505                	li	a0,1
    3ac0:	eefff0ef          	jal	ra,39ae <getChipRegister>
    3ac4:	02056593          	ori	a1,a0,32
    3ac8:	0ff5f593          	andi	a1,a1,255
    3acc:	4505                	li	a0,1
    3ace:	fc7ff0ef          	jal	ra,3a94 <setChipRegister>
    3ad2:	935fc06f          	j	406 <__riscv_restore_0>

00003ad6 <setChannelRegister>:
    3ad6:	90dfc2ef          	jal	t0,3e2 <__riscv_save_0>
    3ada:	1141                	addi	sp,sp,-16
    3adc:	842a                	mv	s0,a0
    3ade:	84ae                	mv	s1,a1
    3ae0:	c632                	sw	a2,12(sp)
    3ae2:	ee1ff0ef          	jal	ra,39c2 <getChannelRegisterOffset>
    3ae6:	4632                	lw	a2,12(sp)
    3ae8:	200027b7          	lui	a5,0x20002
    3aec:	96878793          	addi	a5,a5,-1688 # 20001968 <channelRegisters>
    3af0:	953e                	add	a0,a0,a5
    3af2:	a110                	sb	a2,0(a0)
    3af4:	4525                	li	a0,9
    3af6:	02a4f533          	remu	a0,s1,a0
    3afa:	85b2                	mv	a1,a2
    3afc:	9522                	add	a0,a0,s0
    3afe:	0ff57513          	andi	a0,a0,255
    3b02:	f71ff0ef          	jal	ra,3a72 <YM3812_Write>
    3b06:	0141                	addi	sp,sp,16
    3b08:	8fffc06f          	j	406 <__riscv_restore_0>

00003b0c <setOperatorRegister>:
    3b0c:	8d7fc2ef          	jal	t0,3e2 <__riscv_save_0>
    3b10:	1141                	addi	sp,sp,-16
    3b12:	8432                	mv	s0,a2
    3b14:	84aa                	mv	s1,a0
    3b16:	892e                	mv	s2,a1
    3b18:	c636                	sw	a3,12(sp)
    3b1a:	eedff0ef          	jal	ra,3a06 <getOperatorRegisterOffset>
    3b1e:	45a5                	li	a1,9
    3b20:	02b97933          	remu	s2,s2,a1
    3b24:	8805                	andi	s0,s0,1
    3b26:	46b2                	lw	a3,12(sp)
    3b28:	200027b7          	lui	a5,0x20002
    3b2c:	99c78793          	addi	a5,a5,-1636 # 2000199c <operatorRegisters>
    3b30:	953e                	add	a0,a0,a5
    3b32:	a114                	sb	a3,0(a0)
    3b34:	02b40433          	mul	s0,s0,a1
    3b38:	65ad                	lui	a1,0xb
    3b3a:	32858593          	addi	a1,a1,808 # b328 <registerOffsets>
    3b3e:	95a2                	add	a1,a1,s0
    3b40:	95ca                	add	a1,a1,s2
    3b42:	2188                	lbu	a0,0(a1)
    3b44:	85b6                	mv	a1,a3
    3b46:	9526                	add	a0,a0,s1
    3b48:	0ff57513          	andi	a0,a0,255
    3b4c:	f27ff0ef          	jal	ra,3a72 <YM3812_Write>
    3b50:	0141                	addi	sp,sp,16
    3b52:	8b5fc06f          	j	406 <__riscv_restore_0>

00003b56 <createInstrument>:
    3b56:	88dfc2ef          	jal	t0,3e2 <__riscv_save_0>
    3b5a:	1101                	addi	sp,sp,-32
    3b5c:	004c                	addi	a1,sp,4
    3b5e:	466d                	li	a2,27
    3b60:	c202                	sw	zero,4(sp)
    3b62:	c402                	sw	zero,8(sp)
    3b64:	c602                	sw	zero,12(sp)
    3b66:	c802                	sw	zero,16(sp)
    3b68:	ca02                	sw	zero,20(sp)
    3b6a:	cc02                	sw	zero,24(sp)
    3b6c:	00011e23          	sh	zero,28(sp)
    3b70:	00010f23          	sb	zero,30(sp)
    3b74:	605040ef          	jal	ra,8978 <memcpy>
    3b78:	6105                	addi	sp,sp,32
    3b7a:	88dfc06f          	j	406 <__riscv_restore_0>

00003b7e <loadInstrument>:
    3b7e:	865fc2ef          	jal	t0,3e2 <__riscv_save_0>
    3b82:	7139                	addi	sp,sp,-64
    3b84:	842a                	mv	s0,a0
    3b86:	1048                	addi	a0,sp,36
    3b88:	c62e                	sw	a1,12(sp)
    3b8a:	fcdff0ef          	jal	ra,3b56 <createInstrument>
    3b8e:	45b2                	lw	a1,12(sp)
    3b90:	4781                	li	a5,0
    3b92:	472d                	li	a4,11
    3b94:	00f58633          	add	a2,a1,a5
    3b98:	2210                	lbu	a2,0(a2)
    3b9a:	0834                	addi	a3,sp,24
    3b9c:	96be                	add	a3,a3,a5
    3b9e:	a290                	sb	a2,0(a3)
    3ba0:	0785                	addi	a5,a5,1
    3ba2:	fee799e3          	bne	a5,a4,3b94 <loadInstrument+0x16>
    3ba6:	01914783          	lbu	a5,25(sp)
    3baa:	104c                	addi	a1,sp,36
    3bac:	466d                	li	a2,27
    3bae:	0077d713          	srli	a4,a5,0x7
    3bb2:	02e10223          	sb	a4,36(sp)
    3bb6:	4067d713          	srai	a4,a5,0x6
    3bba:	8b05                	andi	a4,a4,1
    3bbc:	02e102a3          	sb	a4,37(sp)
    3bc0:	4057d713          	srai	a4,a5,0x5
    3bc4:	8b05                	andi	a4,a4,1
    3bc6:	02e10323          	sb	a4,38(sp)
    3bca:	4047d713          	srai	a4,a5,0x4
    3bce:	8bbd                	andi	a5,a5,15
    3bd0:	02f10423          	sb	a5,40(sp)
    3bd4:	01a14783          	lbu	a5,26(sp)
    3bd8:	8b05                	andi	a4,a4,1
    3bda:	02e103a3          	sb	a4,39(sp)
    3bde:	0067d713          	srli	a4,a5,0x6
    3be2:	03f7f793          	andi	a5,a5,63
    3be6:	02f10523          	sb	a5,42(sp)
    3bea:	01b14783          	lbu	a5,27(sp)
    3bee:	02e104a3          	sb	a4,41(sp)
    3bf2:	8522                	mv	a0,s0
    3bf4:	0047d713          	srli	a4,a5,0x4
    3bf8:	8bbd                	andi	a5,a5,15
    3bfa:	02f10623          	sb	a5,44(sp)
    3bfe:	01c14783          	lbu	a5,28(sp)
    3c02:	02e105a3          	sb	a4,43(sp)
    3c06:	0047d713          	srli	a4,a5,0x4
    3c0a:	8bbd                	andi	a5,a5,15
    3c0c:	02f10723          	sb	a5,46(sp)
    3c10:	01e14783          	lbu	a5,30(sp)
    3c14:	02e106a3          	sb	a4,45(sp)
    3c18:	0077d713          	srli	a4,a5,0x7
    3c1c:	02e10823          	sb	a4,48(sp)
    3c20:	4067d713          	srai	a4,a5,0x6
    3c24:	8b05                	andi	a4,a4,1
    3c26:	02e108a3          	sb	a4,49(sp)
    3c2a:	4057d713          	srai	a4,a5,0x5
    3c2e:	8b05                	andi	a4,a4,1
    3c30:	02e10923          	sb	a4,50(sp)
    3c34:	4047d713          	srai	a4,a5,0x4
    3c38:	8bbd                	andi	a5,a5,15
    3c3a:	02f10a23          	sb	a5,52(sp)
    3c3e:	01f14783          	lbu	a5,31(sp)
    3c42:	8b05                	andi	a4,a4,1
    3c44:	02e109a3          	sb	a4,51(sp)
    3c48:	0067d713          	srli	a4,a5,0x6
    3c4c:	03f7f793          	andi	a5,a5,63
    3c50:	02f10b23          	sb	a5,54(sp)
    3c54:	02014783          	lbu	a5,32(sp)
    3c58:	02e10aa3          	sb	a4,53(sp)
    3c5c:	0047d713          	srli	a4,a5,0x4
    3c60:	8bbd                	andi	a5,a5,15
    3c62:	02f10c23          	sb	a5,56(sp)
    3c66:	02114783          	lbu	a5,33(sp)
    3c6a:	02e10ba3          	sb	a4,55(sp)
    3c6e:	0047d713          	srli	a4,a5,0x4
    3c72:	8bbd                	andi	a5,a5,15
    3c74:	02f10d23          	sb	a5,58(sp)
    3c78:	02214783          	lbu	a5,34(sp)
    3c7c:	02e10ca3          	sb	a4,57(sp)
    3c80:	0077f713          	andi	a4,a5,7
    3c84:	8791                	srai	a5,a5,0x4
    3c86:	02e107a3          	sb	a4,47(sp)
    3c8a:	8b9d                	andi	a5,a5,7
    3c8c:	02f10da3          	sb	a5,59(sp)
    3c90:	01d14783          	lbu	a5,29(sp)
    3c94:	01814683          	lbu	a3,24(sp)
    3c98:	4017d713          	srai	a4,a5,0x1
    3c9c:	8b1d                	andi	a4,a4,7
    3c9e:	8b85                	andi	a5,a5,1
    3ca0:	02e10e23          	sb	a4,60(sp)
    3ca4:	02f10ea3          	sb	a5,61(sp)
    3ca8:	02d10f23          	sb	a3,62(sp)
    3cac:	4cd040ef          	jal	ra,8978 <memcpy>
    3cb0:	8522                	mv	a0,s0
    3cb2:	6121                	addi	sp,sp,64
    3cb4:	f52fc06f          	j	406 <__riscv_restore_0>

00003cb8 <setInstrument>:
    3cb8:	f02fc2ef          	jal	t0,3ba <__riscv_save_10>
    3cbc:	84aa                	mv	s1,a0
    3cbe:	89ae                	mv	s3,a1
    3cc0:	8532                	mv	a0,a2
    3cc2:	00000593          	li	a1,0
    3cc6:	8b32                	mv	s6,a2
    3cc8:	6d8040ef          	jal	ra,83a0 <__lesf2>
    3ccc:	14054763          	bltz	a0,3e1a <setInstrument+0x162>
    3cd0:	0000b7b7          	lui	a5,0xb
    3cd4:	33c7a403          	lw	s0,828(a5) # b33c <registerOffsets+0x14>
    3cd8:	855a                	mv	a0,s6
    3cda:	85a2                	mv	a1,s0
    3cdc:	63e040ef          	jal	ra,831a <__gesf2>
    3ce0:	14a04063          	bgtz	a0,3e20 <setInstrument+0x168>
    3ce4:	dd7ff0ef          	jal	ra,3aba <setWaveFormSelect.part.0>
    3ce8:	0000b7b7          	lui	a5,0xb
    3cec:	3407aa03          	lw	s4,832(a5) # b340 <registerOffsets+0x18>
    3cf0:	3447aa83          	lw	s5,836(a5)
    3cf4:	844e                	mv	s0,s3
    3cf6:	4901                	li	s2,0
    3cf8:	03f00b93          	li	s7,63
    3cfc:	4d05                	li	s10,1
    3cfe:	2068                	lbu	a0,6(s0)
    3d00:	0431                	addi	s0,s0,12
    3d02:	21d040ef          	jal	ra,871e <__floatunsisf>
    3d06:	2e7040ef          	jal	ra,87ec <__extendsfdf2>
    3d0a:	862a                	mv	a2,a0
    3d0c:	86ae                	mv	a3,a1
    3d0e:	8552                	mv	a0,s4
    3d10:	85d6                	mv	a1,s5
    3d12:	3c1030ef          	jal	ra,78d2 <__subdf3>
    3d16:	8c2a                	mv	s8,a0
    3d18:	855a                	mv	a0,s6
    3d1a:	8cae                	mv	s9,a1
    3d1c:	2d1040ef          	jal	ra,87ec <__extendsfdf2>
    3d20:	862a                	mv	a2,a0
    3d22:	86ae                	mv	a3,a1
    3d24:	8562                	mv	a0,s8
    3d26:	85e6                	mv	a1,s9
    3d28:	6f2030ef          	jal	ra,741a <__muldf3>
    3d2c:	2e4040ef          	jal	ra,8010 <__fixunsdfsi>
    3d30:	ff644683          	lbu	a3,-10(s0)
    3d34:	ff444603          	lbu	a2,-12(s0)
    3d38:	ff544703          	lbu	a4,-11(s0)
    3d3c:	ff844583          	lbu	a1,-8(s0)
    3d40:	00d037b3          	snez	a5,a3
    3d44:	00c03633          	snez	a2,a2
    3d48:	ff744683          	lbu	a3,-9(s0)
    3d4c:	89bd                	andi	a1,a1,15
    3d4e:	061e                	slli	a2,a2,0x7
    3d50:	00e03733          	snez	a4,a4
    3d54:	962e                	add	a2,a2,a1
    3d56:	071a                	slli	a4,a4,0x6
    3d58:	9732                	add	a4,a4,a2
    3d5a:	0796                	slli	a5,a5,0x5
    3d5c:	00d036b3          	snez	a3,a3
    3d60:	97ba                	add	a5,a5,a4
    3d62:	0692                	slli	a3,a3,0x4
    3d64:	96be                	add	a3,a3,a5
    3d66:	40ab8533          	sub	a0,s7,a0
    3d6a:	0ff57c13          	andi	s8,a0,255
    3d6e:	0ff6f693          	andi	a3,a3,255
    3d72:	864a                	mv	a2,s2
    3d74:	85a6                	mv	a1,s1
    3d76:	02000513          	li	a0,32
    3d7a:	d93ff0ef          	jal	ra,3b0c <setOperatorRegister>
    3d7e:	ff944683          	lbu	a3,-7(s0)
    3d82:	03fc7c13          	andi	s8,s8,63
    3d86:	864a                	mv	a2,s2
    3d88:	069a                	slli	a3,a3,0x6
    3d8a:	96e2                	add	a3,a3,s8
    3d8c:	0ff6f693          	andi	a3,a3,255
    3d90:	85a6                	mv	a1,s1
    3d92:	04000513          	li	a0,64
    3d96:	d77ff0ef          	jal	ra,3b0c <setOperatorRegister>
    3d9a:	ffb44683          	lbu	a3,-5(s0)
    3d9e:	ffc44783          	lbu	a5,-4(s0)
    3da2:	864a                	mv	a2,s2
    3da4:	0692                	slli	a3,a3,0x4
    3da6:	8bbd                	andi	a5,a5,15
    3da8:	96be                	add	a3,a3,a5
    3daa:	0ff6f693          	andi	a3,a3,255
    3dae:	85a6                	mv	a1,s1
    3db0:	06000513          	li	a0,96
    3db4:	d59ff0ef          	jal	ra,3b0c <setOperatorRegister>
    3db8:	ffd44683          	lbu	a3,-3(s0)
    3dbc:	ffe44783          	lbu	a5,-2(s0)
    3dc0:	864a                	mv	a2,s2
    3dc2:	0692                	slli	a3,a3,0x4
    3dc4:	8bbd                	andi	a5,a5,15
    3dc6:	96be                	add	a3,a3,a5
    3dc8:	0ff6f693          	andi	a3,a3,255
    3dcc:	85a6                	mv	a1,s1
    3dce:	08000513          	li	a0,128
    3dd2:	d3bff0ef          	jal	ra,3b0c <setOperatorRegister>
    3dd6:	fff44683          	lbu	a3,-1(s0)
    3dda:	864a                	mv	a2,s2
    3ddc:	85a6                	mv	a1,s1
    3dde:	8a9d                	andi	a3,a3,7
    3de0:	0e000513          	li	a0,224
    3de4:	d29ff0ef          	jal	ra,3b0c <setOperatorRegister>
    3de8:	03a91e63          	bne	s2,s10,3e24 <setInstrument+0x16c>
    3dec:	85a6                	mv	a1,s1
    3dee:	0c000513          	li	a0,192
    3df2:	bfdff0ef          	jal	ra,39ee <getChannelRegister>
    3df6:	0189c603          	lbu	a2,24(s3)
    3dfa:	9941                	andi	a0,a0,-16
    3dfc:	85a6                	mv	a1,s1
    3dfe:	0606                	slli	a2,a2,0x1
    3e00:	8a39                	andi	a2,a2,14
    3e02:	8e49                	or	a2,a2,a0
    3e04:	0199c503          	lbu	a0,25(s3)
    3e08:	962a                	add	a2,a2,a0
    3e0a:	0ff67613          	andi	a2,a2,255
    3e0e:	0c000513          	li	a0,192
    3e12:	cc5ff0ef          	jal	ra,3ad6 <setChannelRegister>
    3e16:	ddcfc06f          	j	3f2 <__riscv_restore_10>
    3e1a:	00000b13          	li	s6,0
    3e1e:	b5d9                	j	3ce4 <setInstrument+0x2c>
    3e20:	8b22                	mv	s6,s0
    3e22:	b5c9                	j	3ce4 <setInstrument+0x2c>
    3e24:	4905                	li	s2,1
    3e26:	bde1                	j	3cfe <setInstrument+0x46>

00003e28 <YM3812_Begin>:
    3e28:	da0fc2ef          	jal	t0,3c8 <__riscv_save_4>
    3e2c:	1101                	addi	sp,sp,-32
    3e2e:	9e5ff0ef          	jal	ra,3812 <SWSPI_Init>
    3e32:	40012537          	lui	a0,0x40012
    3e36:	45c1                	li	a1,16
    3e38:	80050513          	addi	a0,a0,-2048 # 40011800 <_eusrstack+0x20001800>
    3e3c:	ab9ff0ef          	jal	ra,38f4 <YM3812_Reset>
    3e40:	65ad                	lui	a1,0xb
    3e42:	2ec58593          	addi	a1,a1,748 # b2ec <TEST_INSTRUMENT>
    3e46:	850a                	mv	a0,sp
    3e48:	d37ff0ef          	jal	ra,3b7e <loadInstrument>
    3e4c:	200024b7          	lui	s1,0x20002
    3e50:	466d                	li	a2,27
    3e52:	858a                	mv	a1,sp
    3e54:	94c48513          	addi	a0,s1,-1716 # 2000194c <Current_Instrument>
    3e58:	321040ef          	jal	ra,8978 <memcpy>
    3e5c:	0000b7b7          	lui	a5,0xb
    3e60:	33c7aa83          	lw	s5,828(a5) # b33c <registerOffsets+0x14>
    3e64:	200029b7          	lui	s3,0x20002
    3e68:	20002937          	lui	s2,0x20002
    3e6c:	4401                	li	s0,0
    3e6e:	99098993          	addi	s3,s3,-1648 # 20001990 <notePlayedNumber>
    3e72:	98490913          	addi	s2,s2,-1660 # 20001984 <noteOn>
    3e76:	4a25                	li	s4,9
    3e78:	008987b3          	add	a5,s3,s0
    3e7c:	00078023          	sb	zero,0(a5)
    3e80:	008907b3          	add	a5,s2,s0
    3e84:	00078023          	sb	zero,0(a5)
    3e88:	466d                	li	a2,27
    3e8a:	94c48593          	addi	a1,s1,-1716
    3e8e:	850a                	mv	a0,sp
    3e90:	2e9040ef          	jal	ra,8978 <memcpy>
    3e94:	0ff47513          	andi	a0,s0,255
    3e98:	8656                	mv	a2,s5
    3e9a:	858a                	mv	a1,sp
    3e9c:	0405                	addi	s0,s0,1
    3e9e:	e1bff0ef          	jal	ra,3cb8 <setInstrument>
    3ea2:	fd441be3          	bne	s0,s4,3e78 <YM3812_Begin+0x50>
    3ea6:	6105                	addi	sp,sp,32
    3ea8:	d54fc06f          	j	3fc <__riscv_restore_4>

00003eac <getTremolo>:
    3eac:	d36fc2ef          	jal	t0,3e2 <__riscv_save_0>
    3eb0:	862e                	mv	a2,a1
    3eb2:	85aa                	mv	a1,a0
    3eb4:	02000513          	li	a0,32
    3eb8:	ba3ff0ef          	jal	ra,3a5a <getOperatorRegister>
    3ebc:	0ff57513          	andi	a0,a0,255
    3ec0:	811d                	srli	a0,a0,0x7
    3ec2:	d44fc06f          	j	406 <__riscv_restore_0>

00003ec6 <setTremolo>:
    3ec6:	d1cfc2ef          	jal	t0,3e2 <__riscv_save_0>
    3eca:	8432                	mv	s0,a2
    3ecc:	84aa                	mv	s1,a0
    3ece:	892e                	mv	s2,a1
    3ed0:	862e                	mv	a2,a1
    3ed2:	85aa                	mv	a1,a0
    3ed4:	02000513          	li	a0,32
    3ed8:	b83ff0ef          	jal	ra,3a5a <getOperatorRegister>
    3edc:	00803633          	snez	a2,s0
    3ee0:	07f57513          	andi	a0,a0,127
    3ee4:	061e                	slli	a2,a2,0x7
    3ee6:	00a606b3          	add	a3,a2,a0
    3eea:	0ff6f693          	andi	a3,a3,255
    3eee:	864a                	mv	a2,s2
    3ef0:	85a6                	mv	a1,s1
    3ef2:	02000513          	li	a0,32
    3ef6:	c17ff0ef          	jal	ra,3b0c <setOperatorRegister>
    3efa:	d0cfc06f          	j	406 <__riscv_restore_0>

00003efe <getVibrato>:
    3efe:	ce4fc2ef          	jal	t0,3e2 <__riscv_save_0>
    3f02:	862e                	mv	a2,a1
    3f04:	85aa                	mv	a1,a0
    3f06:	02000513          	li	a0,32
    3f0a:	b51ff0ef          	jal	ra,3a5a <getOperatorRegister>
    3f0e:	8119                	srli	a0,a0,0x6
    3f10:	8905                	andi	a0,a0,1
    3f12:	cf4fc06f          	j	406 <__riscv_restore_0>

00003f16 <setVibrato>:
    3f16:	cccfc2ef          	jal	t0,3e2 <__riscv_save_0>
    3f1a:	8432                	mv	s0,a2
    3f1c:	84aa                	mv	s1,a0
    3f1e:	892e                	mv	s2,a1
    3f20:	862e                	mv	a2,a1
    3f22:	85aa                	mv	a1,a0
    3f24:	02000513          	li	a0,32
    3f28:	b33ff0ef          	jal	ra,3a5a <getOperatorRegister>
    3f2c:	00803633          	snez	a2,s0
    3f30:	0bf57513          	andi	a0,a0,191
    3f34:	061a                	slli	a2,a2,0x6
    3f36:	00a606b3          	add	a3,a2,a0
    3f3a:	0ff6f693          	andi	a3,a3,255
    3f3e:	864a                	mv	a2,s2
    3f40:	85a6                	mv	a1,s1
    3f42:	02000513          	li	a0,32
    3f46:	bc7ff0ef          	jal	ra,3b0c <setOperatorRegister>
    3f4a:	cbcfc06f          	j	406 <__riscv_restore_0>

00003f4e <getMaintainSustain>:
    3f4e:	c94fc2ef          	jal	t0,3e2 <__riscv_save_0>
    3f52:	862e                	mv	a2,a1
    3f54:	85aa                	mv	a1,a0
    3f56:	02000513          	li	a0,32
    3f5a:	b01ff0ef          	jal	ra,3a5a <getOperatorRegister>
    3f5e:	8115                	srli	a0,a0,0x5
    3f60:	8905                	andi	a0,a0,1
    3f62:	ca4fc06f          	j	406 <__riscv_restore_0>

00003f66 <setMaintainSustain>:
    3f66:	c7cfc2ef          	jal	t0,3e2 <__riscv_save_0>
    3f6a:	8432                	mv	s0,a2
    3f6c:	84aa                	mv	s1,a0
    3f6e:	892e                	mv	s2,a1
    3f70:	862e                	mv	a2,a1
    3f72:	85aa                	mv	a1,a0
    3f74:	02000513          	li	a0,32
    3f78:	ae3ff0ef          	jal	ra,3a5a <getOperatorRegister>
    3f7c:	00803633          	snez	a2,s0
    3f80:	0df57513          	andi	a0,a0,223
    3f84:	0616                	slli	a2,a2,0x5
    3f86:	00a606b3          	add	a3,a2,a0
    3f8a:	0ff6f693          	andi	a3,a3,255
    3f8e:	864a                	mv	a2,s2
    3f90:	85a6                	mv	a1,s1
    3f92:	02000513          	li	a0,32
    3f96:	b77ff0ef          	jal	ra,3b0c <setOperatorRegister>
    3f9a:	c6cfc06f          	j	406 <__riscv_restore_0>

00003f9e <getEnvelopeScaling>:
    3f9e:	c44fc2ef          	jal	t0,3e2 <__riscv_save_0>
    3fa2:	862e                	mv	a2,a1
    3fa4:	85aa                	mv	a1,a0
    3fa6:	02000513          	li	a0,32
    3faa:	ab1ff0ef          	jal	ra,3a5a <getOperatorRegister>
    3fae:	8111                	srli	a0,a0,0x4
    3fb0:	8905                	andi	a0,a0,1
    3fb2:	c54fc06f          	j	406 <__riscv_restore_0>

00003fb6 <setEnvelopeScaling>:
    3fb6:	c2cfc2ef          	jal	t0,3e2 <__riscv_save_0>
    3fba:	8432                	mv	s0,a2
    3fbc:	84aa                	mv	s1,a0
    3fbe:	892e                	mv	s2,a1
    3fc0:	862e                	mv	a2,a1
    3fc2:	85aa                	mv	a1,a0
    3fc4:	02000513          	li	a0,32
    3fc8:	a93ff0ef          	jal	ra,3a5a <getOperatorRegister>
    3fcc:	00803633          	snez	a2,s0
    3fd0:	0ef57513          	andi	a0,a0,239
    3fd4:	0612                	slli	a2,a2,0x4
    3fd6:	00a606b3          	add	a3,a2,a0
    3fda:	0ff6f693          	andi	a3,a3,255
    3fde:	864a                	mv	a2,s2
    3fe0:	85a6                	mv	a1,s1
    3fe2:	02000513          	li	a0,32
    3fe6:	b27ff0ef          	jal	ra,3b0c <setOperatorRegister>
    3fea:	c1cfc06f          	j	406 <__riscv_restore_0>

00003fee <getMultiplier>:
    3fee:	bf4fc2ef          	jal	t0,3e2 <__riscv_save_0>
    3ff2:	862e                	mv	a2,a1
    3ff4:	85aa                	mv	a1,a0
    3ff6:	02000513          	li	a0,32
    3ffa:	a61ff0ef          	jal	ra,3a5a <getOperatorRegister>
    3ffe:	893d                	andi	a0,a0,15
    4000:	c06fc06f          	j	406 <__riscv_restore_0>

00004004 <setMultiplier>:
    4004:	bdefc2ef          	jal	t0,3e2 <__riscv_save_0>
    4008:	84aa                	mv	s1,a0
    400a:	892e                	mv	s2,a1
    400c:	8432                	mv	s0,a2
    400e:	862e                	mv	a2,a1
    4010:	85aa                	mv	a1,a0
    4012:	02000513          	li	a0,32
    4016:	a45ff0ef          	jal	ra,3a5a <getOperatorRegister>
    401a:	883d                	andi	s0,s0,15
    401c:	0f057693          	andi	a3,a0,240
    4020:	8ec1                	or	a3,a3,s0
    4022:	864a                	mv	a2,s2
    4024:	85a6                	mv	a1,s1
    4026:	02000513          	li	a0,32
    402a:	ae3ff0ef          	jal	ra,3b0c <setOperatorRegister>
    402e:	bd8fc06f          	j	406 <__riscv_restore_0>

00004032 <getScalingLevel>:
    4032:	bb0fc2ef          	jal	t0,3e2 <__riscv_save_0>
    4036:	862e                	mv	a2,a1
    4038:	85aa                	mv	a1,a0
    403a:	04000513          	li	a0,64
    403e:	a1dff0ef          	jal	ra,3a5a <getOperatorRegister>
    4042:	8519                	srai	a0,a0,0x6
    4044:	0ff57513          	andi	a0,a0,255
    4048:	bbefc06f          	j	406 <__riscv_restore_0>

0000404c <setScalingLevel>:
    404c:	b96fc2ef          	jal	t0,3e2 <__riscv_save_0>
    4050:	84aa                	mv	s1,a0
    4052:	892e                	mv	s2,a1
    4054:	8432                	mv	s0,a2
    4056:	862e                	mv	a2,a1
    4058:	85aa                	mv	a1,a0
    405a:	04000513          	li	a0,64
    405e:	9fdff0ef          	jal	ra,3a5a <getOperatorRegister>
    4062:	03f57513          	andi	a0,a0,63
    4066:	041a                	slli	s0,s0,0x6
    4068:	942a                	add	s0,s0,a0
    406a:	0ff47693          	andi	a3,s0,255
    406e:	864a                	mv	a2,s2
    4070:	85a6                	mv	a1,s1
    4072:	04000513          	li	a0,64
    4076:	a97ff0ef          	jal	ra,3b0c <setOperatorRegister>
    407a:	b8cfc06f          	j	406 <__riscv_restore_0>

0000407e <getAttack>:
    407e:	b64fc2ef          	jal	t0,3e2 <__riscv_save_0>
    4082:	862e                	mv	a2,a1
    4084:	85aa                	mv	a1,a0
    4086:	06000513          	li	a0,96
    408a:	9d1ff0ef          	jal	ra,3a5a <getOperatorRegister>
    408e:	8511                	srai	a0,a0,0x4
    4090:	0ff57513          	andi	a0,a0,255
    4094:	b72fc06f          	j	406 <__riscv_restore_0>

00004098 <setAttack>:
    4098:	b4afc2ef          	jal	t0,3e2 <__riscv_save_0>
    409c:	84aa                	mv	s1,a0
    409e:	892e                	mv	s2,a1
    40a0:	8432                	mv	s0,a2
    40a2:	862e                	mv	a2,a1
    40a4:	85aa                	mv	a1,a0
    40a6:	06000513          	li	a0,96
    40aa:	9b1ff0ef          	jal	ra,3a5a <getOperatorRegister>
    40ae:	893d                	andi	a0,a0,15
    40b0:	0412                	slli	s0,s0,0x4
    40b2:	942a                	add	s0,s0,a0
    40b4:	0ff47693          	andi	a3,s0,255
    40b8:	864a                	mv	a2,s2
    40ba:	85a6                	mv	a1,s1
    40bc:	06000513          	li	a0,96
    40c0:	a4dff0ef          	jal	ra,3b0c <setOperatorRegister>
    40c4:	b42fc06f          	j	406 <__riscv_restore_0>

000040c8 <getDecay>:
    40c8:	b1afc2ef          	jal	t0,3e2 <__riscv_save_0>
    40cc:	862e                	mv	a2,a1
    40ce:	85aa                	mv	a1,a0
    40d0:	06000513          	li	a0,96
    40d4:	987ff0ef          	jal	ra,3a5a <getOperatorRegister>
    40d8:	893d                	andi	a0,a0,15
    40da:	b2cfc06f          	j	406 <__riscv_restore_0>

000040de <setDecay>:
    40de:	b04fc2ef          	jal	t0,3e2 <__riscv_save_0>
    40e2:	84aa                	mv	s1,a0
    40e4:	892e                	mv	s2,a1
    40e6:	8432                	mv	s0,a2
    40e8:	862e                	mv	a2,a1
    40ea:	85aa                	mv	a1,a0
    40ec:	06000513          	li	a0,96
    40f0:	96bff0ef          	jal	ra,3a5a <getOperatorRegister>
    40f4:	883d                	andi	s0,s0,15
    40f6:	0f057693          	andi	a3,a0,240
    40fa:	8ec1                	or	a3,a3,s0
    40fc:	864a                	mv	a2,s2
    40fe:	85a6                	mv	a1,s1
    4100:	06000513          	li	a0,96
    4104:	a09ff0ef          	jal	ra,3b0c <setOperatorRegister>
    4108:	afefc06f          	j	406 <__riscv_restore_0>

0000410c <getSustain>:
    410c:	ad6fc2ef          	jal	t0,3e2 <__riscv_save_0>
    4110:	862e                	mv	a2,a1
    4112:	85aa                	mv	a1,a0
    4114:	08000513          	li	a0,128
    4118:	943ff0ef          	jal	ra,3a5a <getOperatorRegister>
    411c:	8511                	srai	a0,a0,0x4
    411e:	0ff57513          	andi	a0,a0,255
    4122:	ae4fc06f          	j	406 <__riscv_restore_0>

00004126 <setSustain>:
    4126:	abcfc2ef          	jal	t0,3e2 <__riscv_save_0>
    412a:	84aa                	mv	s1,a0
    412c:	892e                	mv	s2,a1
    412e:	8432                	mv	s0,a2
    4130:	862e                	mv	a2,a1
    4132:	85aa                	mv	a1,a0
    4134:	08000513          	li	a0,128
    4138:	923ff0ef          	jal	ra,3a5a <getOperatorRegister>
    413c:	893d                	andi	a0,a0,15
    413e:	0412                	slli	s0,s0,0x4
    4140:	942a                	add	s0,s0,a0
    4142:	0ff47693          	andi	a3,s0,255
    4146:	864a                	mv	a2,s2
    4148:	85a6                	mv	a1,s1
    414a:	08000513          	li	a0,128
    414e:	9bfff0ef          	jal	ra,3b0c <setOperatorRegister>
    4152:	ab4fc06f          	j	406 <__riscv_restore_0>

00004156 <getRelease>:
    4156:	a8cfc2ef          	jal	t0,3e2 <__riscv_save_0>
    415a:	862e                	mv	a2,a1
    415c:	85aa                	mv	a1,a0
    415e:	08000513          	li	a0,128
    4162:	8f9ff0ef          	jal	ra,3a5a <getOperatorRegister>
    4166:	893d                	andi	a0,a0,15
    4168:	a9efc06f          	j	406 <__riscv_restore_0>

0000416c <setRelease>:
    416c:	a76fc2ef          	jal	t0,3e2 <__riscv_save_0>
    4170:	84aa                	mv	s1,a0
    4172:	892e                	mv	s2,a1
    4174:	8432                	mv	s0,a2
    4176:	862e                	mv	a2,a1
    4178:	85aa                	mv	a1,a0
    417a:	08000513          	li	a0,128
    417e:	8ddff0ef          	jal	ra,3a5a <getOperatorRegister>
    4182:	883d                	andi	s0,s0,15
    4184:	0f057693          	andi	a3,a0,240
    4188:	8ec1                	or	a3,a3,s0
    418a:	864a                	mv	a2,s2
    418c:	85a6                	mv	a1,s1
    418e:	08000513          	li	a0,128
    4192:	97bff0ef          	jal	ra,3b0c <setOperatorRegister>
    4196:	a70fc06f          	j	406 <__riscv_restore_0>

0000419a <setFNumber>:
    419a:	a48fc2ef          	jal	t0,3e2 <__riscv_save_0>
    419e:	842a                	mv	s0,a0
    41a0:	84ae                	mv	s1,a1
    41a2:	85aa                	mv	a1,a0
    41a4:	0b000513          	li	a0,176
    41a8:	847ff0ef          	jal	ra,39ee <getChannelRegister>
    41ac:	0084d793          	srli	a5,s1,0x8
    41b0:	8b8d                	andi	a5,a5,3
    41b2:	0fc57613          	andi	a2,a0,252
    41b6:	8e5d                	or	a2,a2,a5
    41b8:	85a2                	mv	a1,s0
    41ba:	0b000513          	li	a0,176
    41be:	919ff0ef          	jal	ra,3ad6 <setChannelRegister>
    41c2:	0ff4f613          	andi	a2,s1,255
    41c6:	85a2                	mv	a1,s0
    41c8:	0a000513          	li	a0,160
    41cc:	90bff0ef          	jal	ra,3ad6 <setChannelRegister>
    41d0:	a36fc06f          	j	406 <__riscv_restore_0>

000041d4 <setBlock>:
    41d4:	a0efc2ef          	jal	t0,3e2 <__riscv_save_0>
    41d8:	84aa                	mv	s1,a0
    41da:	842e                	mv	s0,a1
    41dc:	85aa                	mv	a1,a0
    41de:	0b000513          	li	a0,176
    41e2:	80dff0ef          	jal	ra,39ee <getChannelRegister>
    41e6:	040a                	slli	s0,s0,0x2
    41e8:	8871                	andi	s0,s0,28
    41ea:	0e357613          	andi	a2,a0,227
    41ee:	8e41                	or	a2,a2,s0
    41f0:	85a6                	mv	a1,s1
    41f2:	0b000513          	li	a0,176
    41f6:	8e1ff0ef          	jal	ra,3ad6 <setChannelRegister>
    41fa:	a0cfc06f          	j	406 <__riscv_restore_0>

000041fe <getKeyOn>:
    41fe:	9e4fc2ef          	jal	t0,3e2 <__riscv_save_0>
    4202:	85aa                	mv	a1,a0
    4204:	0b000513          	li	a0,176
    4208:	fe6ff0ef          	jal	ra,39ee <getChannelRegister>
    420c:	8115                	srli	a0,a0,0x5
    420e:	8905                	andi	a0,a0,1
    4210:	9f6fc06f          	j	406 <__riscv_restore_0>

00004214 <setKeyOn>:
    4214:	9cefc2ef          	jal	t0,3e2 <__riscv_save_0>
    4218:	842e                	mv	s0,a1
    421a:	84aa                	mv	s1,a0
    421c:	85aa                	mv	a1,a0
    421e:	0b000513          	li	a0,176
    4222:	fccff0ef          	jal	ra,39ee <getChannelRegister>
    4226:	008035b3          	snez	a1,s0
    422a:	0df57513          	andi	a0,a0,223
    422e:	0596                	slli	a1,a1,0x5
    4230:	00a58633          	add	a2,a1,a0
    4234:	0ff67613          	andi	a2,a2,255
    4238:	85a6                	mv	a1,s1
    423a:	0b000513          	li	a0,176
    423e:	899ff0ef          	jal	ra,3ad6 <setChannelRegister>
    4242:	9c4fc06f          	j	406 <__riscv_restore_0>

00004246 <playNote>:
    4246:	99cfc2ef          	jal	t0,3e2 <__riscv_save_0>
    424a:	84aa                	mv	s1,a0
    424c:	892e                	mv	s2,a1
    424e:	8432                	mv	s0,a2
    4250:	fafff0ef          	jal	ra,41fe <getKeyOn>
    4254:	c509                	beqz	a0,425e <playNote+0x18>
    4256:	4581                	li	a1,0
    4258:	8526                	mv	a0,s1
    425a:	fbbff0ef          	jal	ra,4214 <setKeyOn>
    425e:	479d                	li	a5,7
    4260:	0ff97593          	andi	a1,s2,255
    4264:	0127f363          	bgeu	a5,s2,426a <playNote+0x24>
    4268:	459d                	li	a1,7
    426a:	8526                	mv	a0,s1
    426c:	f69ff0ef          	jal	ra,41d4 <setBlock>
    4270:	4631                	li	a2,12
    4272:	02c47433          	remu	s0,s0,a2
    4276:	662d                	lui	a2,0xb
    4278:	2f860613          	addi	a2,a2,760 # b2f8 <noteFNumbers>
    427c:	8526                	mv	a0,s1
    427e:	040a                	slli	s0,s0,0x2
    4280:	9622                	add	a2,a2,s0
    4282:	00061583          	lh	a1,0(a2)
    4286:	f15ff0ef          	jal	ra,419a <setFNumber>
    428a:	4585                	li	a1,1
    428c:	8526                	mv	a0,s1
    428e:	f87ff0ef          	jal	ra,4214 <setKeyOn>
    4292:	974fc06f          	j	406 <__riscv_restore_0>

00004296 <getFeedback>:
    4296:	94cfc2ef          	jal	t0,3e2 <__riscv_save_0>
    429a:	85aa                	mv	a1,a0
    429c:	0c000513          	li	a0,192
    42a0:	f4eff0ef          	jal	ra,39ee <getChannelRegister>
    42a4:	8505                	srai	a0,a0,0x1
    42a6:	891d                	andi	a0,a0,7
    42a8:	95efc06f          	j	406 <__riscv_restore_0>

000042ac <setFeedback>:
    42ac:	936fc2ef          	jal	t0,3e2 <__riscv_save_0>
    42b0:	84aa                	mv	s1,a0
    42b2:	842e                	mv	s0,a1
    42b4:	85aa                	mv	a1,a0
    42b6:	0c000513          	li	a0,192
    42ba:	f34ff0ef          	jal	ra,39ee <getChannelRegister>
    42be:	0406                	slli	s0,s0,0x1
    42c0:	8839                	andi	s0,s0,14
    42c2:	0f157613          	andi	a2,a0,241
    42c6:	8e41                	or	a2,a2,s0
    42c8:	85a6                	mv	a1,s1
    42ca:	0c000513          	li	a0,192
    42ce:	809ff0ef          	jal	ra,3ad6 <setChannelRegister>
    42d2:	934fc06f          	j	406 <__riscv_restore_0>

000042d6 <getSynthMode>:
    42d6:	90cfc2ef          	jal	t0,3e2 <__riscv_save_0>
    42da:	85aa                	mv	a1,a0
    42dc:	0c000513          	li	a0,192
    42e0:	f0eff0ef          	jal	ra,39ee <getChannelRegister>
    42e4:	8905                	andi	a0,a0,1
    42e6:	920fc06f          	j	406 <__riscv_restore_0>

000042ea <setSynthMode>:
    42ea:	8f8fc2ef          	jal	t0,3e2 <__riscv_save_0>
    42ee:	84aa                	mv	s1,a0
    42f0:	842e                	mv	s0,a1
    42f2:	85aa                	mv	a1,a0
    42f4:	0c000513          	li	a0,192
    42f8:	ef6ff0ef          	jal	ra,39ee <getChannelRegister>
    42fc:	8805                	andi	s0,s0,1
    42fe:	0fe57613          	andi	a2,a0,254
    4302:	8e41                	or	a2,a2,s0
    4304:	85a6                	mv	a1,s1
    4306:	0c000513          	li	a0,192
    430a:	fccff0ef          	jal	ra,3ad6 <setChannelRegister>
    430e:	8f8fc06f          	j	406 <__riscv_restore_0>

00004312 <getDeepTremolo>:
    4312:	8d0fc2ef          	jal	t0,3e2 <__riscv_save_0>
    4316:	0bd00513          	li	a0,189
    431a:	e94ff0ef          	jal	ra,39ae <getChipRegister>
    431e:	0ff57513          	andi	a0,a0,255
    4322:	811d                	srli	a0,a0,0x7
    4324:	8e2fc06f          	j	406 <__riscv_restore_0>

00004328 <setDeepTremolo>:
    4328:	8bafc2ef          	jal	t0,3e2 <__riscv_save_0>
    432c:	842a                	mv	s0,a0
    432e:	0bd00513          	li	a0,189
    4332:	e7cff0ef          	jal	ra,39ae <getChipRegister>
    4336:	008035b3          	snez	a1,s0
    433a:	07f57513          	andi	a0,a0,127
    433e:	059e                	slli	a1,a1,0x7
    4340:	95aa                	add	a1,a1,a0
    4342:	0ff5f593          	andi	a1,a1,255
    4346:	0bd00513          	li	a0,189
    434a:	f4aff0ef          	jal	ra,3a94 <setChipRegister>
    434e:	8b8fc06f          	j	406 <__riscv_restore_0>

00004352 <getDeepVibrato>:
    4352:	890fc2ef          	jal	t0,3e2 <__riscv_save_0>
    4356:	0bd00513          	li	a0,189
    435a:	e54ff0ef          	jal	ra,39ae <getChipRegister>
    435e:	8119                	srli	a0,a0,0x6
    4360:	8905                	andi	a0,a0,1
    4362:	8a4fc06f          	j	406 <__riscv_restore_0>

00004366 <setDeepVibrato>:
    4366:	87cfc2ef          	jal	t0,3e2 <__riscv_save_0>
    436a:	842a                	mv	s0,a0
    436c:	0bd00513          	li	a0,189
    4370:	e3eff0ef          	jal	ra,39ae <getChipRegister>
    4374:	008035b3          	snez	a1,s0
    4378:	0bf57513          	andi	a0,a0,191
    437c:	059a                	slli	a1,a1,0x6
    437e:	95aa                	add	a1,a1,a0
    4380:	0ff5f593          	andi	a1,a1,255
    4384:	0bd00513          	li	a0,189
    4388:	f0cff0ef          	jal	ra,3a94 <setChipRegister>
    438c:	87afc06f          	j	406 <__riscv_restore_0>

00004390 <getWaveForm>:
    4390:	852fc2ef          	jal	t0,3e2 <__riscv_save_0>
    4394:	862e                	mv	a2,a1
    4396:	85aa                	mv	a1,a0
    4398:	0e000513          	li	a0,224
    439c:	ebeff0ef          	jal	ra,3a5a <getOperatorRegister>
    43a0:	891d                	andi	a0,a0,7
    43a2:	864fc06f          	j	406 <__riscv_restore_0>

000043a6 <setWaveForm>:
    43a6:	83cfc2ef          	jal	t0,3e2 <__riscv_save_0>
    43aa:	84aa                	mv	s1,a0
    43ac:	892e                	mv	s2,a1
    43ae:	8432                	mv	s0,a2
    43b0:	862e                	mv	a2,a1
    43b2:	85aa                	mv	a1,a0
    43b4:	0e000513          	li	a0,224
    43b8:	ea2ff0ef          	jal	ra,3a5a <getOperatorRegister>
    43bc:	881d                	andi	s0,s0,7
    43be:	0f857693          	andi	a3,a0,248
    43c2:	8ec1                	or	a3,a3,s0
    43c4:	864a                	mv	a2,s2
    43c6:	85a6                	mv	a1,s1
    43c8:	0e000513          	li	a0,224
    43cc:	f40ff0ef          	jal	ra,3b0c <setOperatorRegister>
    43d0:	836fc06f          	j	406 <__riscv_restore_0>

000043d4 <YM3812_Write_Wrapper>:
    43d4:	80efc2ef          	jal	t0,3e2 <__riscv_save_0>
    43d8:	41c8                	lw	a0,4(a1)
    43da:	1141                	addi	sp,sp,-16
    43dc:	c62e                	sw	a1,12(sp)
    43de:	528040ef          	jal	ra,8906 <atoi>
    43e2:	45b2                	lw	a1,12(sp)
    43e4:	842a                	mv	s0,a0
    43e6:	4588                	lw	a0,8(a1)
    43e8:	51e040ef          	jal	ra,8906 <atoi>
    43ec:	0ff57593          	andi	a1,a0,255
    43f0:	0ff47513          	andi	a0,s0,255
    43f4:	e7eff0ef          	jal	ra,3a72 <YM3812_Write>
    43f8:	0141                	addi	sp,sp,16
    43fa:	80cfc06f          	j	406 <__riscv_restore_0>

000043fe <YM3812_Test_Sequence>:
    43fe:	fe5fb2ef          	jal	t0,3e2 <__riscv_save_0>
    4402:	40012537          	lui	a0,0x40012
    4406:	45c1                	li	a1,16
    4408:	80050513          	addi	a0,a0,-2048 # 40011800 <_eusrstack+0x20001800>
    440c:	ce8ff0ef          	jal	ra,38f4 <YM3812_Reset>
    4410:	4585                	li	a1,1
    4412:	02000513          	li	a0,32
    4416:	e5cff0ef          	jal	ra,3a72 <YM3812_Write>
    441a:	45c1                	li	a1,16
    441c:	04000513          	li	a0,64
    4420:	e52ff0ef          	jal	ra,3a72 <YM3812_Write>
    4424:	0f000593          	li	a1,240
    4428:	06000513          	li	a0,96
    442c:	e46ff0ef          	jal	ra,3a72 <YM3812_Write>
    4430:	07700593          	li	a1,119
    4434:	08000513          	li	a0,128
    4438:	e3aff0ef          	jal	ra,3a72 <YM3812_Write>
    443c:	09800593          	li	a1,152
    4440:	0a000513          	li	a0,160
    4444:	e2eff0ef          	jal	ra,3a72 <YM3812_Write>
    4448:	4585                	li	a1,1
    444a:	02300513          	li	a0,35
    444e:	e24ff0ef          	jal	ra,3a72 <YM3812_Write>
    4452:	4581                	li	a1,0
    4454:	04300513          	li	a0,67
    4458:	e1aff0ef          	jal	ra,3a72 <YM3812_Write>
    445c:	0f000593          	li	a1,240
    4460:	06300513          	li	a0,99
    4464:	e0eff0ef          	jal	ra,3a72 <YM3812_Write>
    4468:	07700593          	li	a1,119
    446c:	08300513          	li	a0,131
    4470:	e02ff0ef          	jal	ra,3a72 <YM3812_Write>
    4474:	03100593          	li	a1,49
    4478:	0b000513          	li	a0,176
    447c:	df6ff0ef          	jal	ra,3a72 <YM3812_Write>
    4480:	f87fb06f          	j	406 <__riscv_restore_0>

00004484 <MIDI_Note_On>:
    4484:	20002737          	lui	a4,0x20002
    4488:	200026b7          	lui	a3,0x20002
    448c:	862a                	mv	a2,a0
    448e:	4781                	li	a5,0
    4490:	98470713          	addi	a4,a4,-1660 # 20001984 <noteOn>
    4494:	99068693          	addi	a3,a3,-1648 # 20001990 <notePlayedNumber>
    4498:	48a5                	li	a7,9
    449a:	00f705b3          	add	a1,a4,a5
    449e:	0005c803          	lbu	a6,0(a1)
    44a2:	0ff7f513          	andi	a0,a5,255
    44a6:	02081f63          	bnez	a6,44e4 <MIDI_Note_On+0x60>
    44aa:	00f68833          	add	a6,a3,a5
    44ae:	00084303          	lbu	t1,0(a6)
    44b2:	02031963          	bnez	t1,44e4 <MIDI_Note_On+0x60>
    44b6:	f2dfb2ef          	jal	t0,3e2 <__riscv_save_0>
    44ba:	4785                	li	a5,1
    44bc:	a19c                	sb	a5,0(a1)
    44be:	8f318793          	addi	a5,gp,-1805 # 20000413 <notesPlayed>
    44c2:	2398                	lbu	a4,0(a5)
    44c4:	00c80023          	sb	a2,0(a6)
    44c8:	0705                	addi	a4,a4,1
    44ca:	a398                	sb	a4,0(a5)
    44cc:	47b1                	li	a5,12
    44ce:	02f655b3          	divu	a1,a2,a5
    44d2:	02f67633          	remu	a2,a2,a5
    44d6:	15f9                	addi	a1,a1,-2
    44d8:	0ff5f593          	andi	a1,a1,255
    44dc:	d6bff0ef          	jal	ra,4246 <playNote>
    44e0:	f27fb06f          	j	406 <__riscv_restore_0>
    44e4:	0785                	addi	a5,a5,1
    44e6:	fb179ae3          	bne	a5,a7,449a <MIDI_Note_On+0x16>
    44ea:	8082                	ret

000044ec <MIDI_Note_Off>:
    44ec:	ef7fb2ef          	jal	t0,3e2 <__riscv_save_0>
    44f0:	20002737          	lui	a4,0x20002
    44f4:	200026b7          	lui	a3,0x20002
    44f8:	47a1                	li	a5,8
    44fa:	98470713          	addi	a4,a4,-1660 # 20001984 <noteOn>
    44fe:	99068693          	addi	a3,a3,-1648 # 20001990 <notePlayedNumber>
    4502:	00f70633          	add	a2,a4,a5
    4506:	220c                	lbu	a1,0(a2)
    4508:	c595                	beqz	a1,4534 <MIDI_Note_Off+0x48>
    450a:	00f685b3          	add	a1,a3,a5
    450e:	0005c803          	lbu	a6,0(a1)
    4512:	02a81163          	bne	a6,a0,4534 <MIDI_Note_Off+0x48>
    4516:	853e                	mv	a0,a5
    4518:	00058023          	sb	zero,0(a1)
    451c:	4581                	li	a1,0
    451e:	00060023          	sb	zero,0(a2)
    4522:	cf3ff0ef          	jal	ra,4214 <setKeyOn>
    4526:	8f318793          	addi	a5,gp,-1805 # 20000413 <notesPlayed>
    452a:	2398                	lbu	a4,0(a5)
    452c:	177d                	addi	a4,a4,-1
    452e:	a398                	sb	a4,0(a5)
    4530:	ed7fb06f          	j	406 <__riscv_restore_0>
    4534:	17fd                	addi	a5,a5,-1
    4536:	0ff7f793          	andi	a5,a5,255
    453a:	b7e1                	j	4502 <MIDI_Note_Off+0x16>

0000453c <ILI9341_Select>:
    453c:	ea7fb2ef          	jal	t0,3e2 <__riscv_save_0>
    4540:	40011537          	lui	a0,0x40011
    4544:	45a1                	li	a1,8
    4546:	80050513          	addi	a0,a0,-2048 # 40010800 <_eusrstack+0x20000800>
    454a:	239020ef          	jal	ra,6f82 <GPIO_ResetBits>
    454e:	eb9fb06f          	j	406 <__riscv_restore_0>

00004552 <ILI9341_GPIO_Init>:
    4552:	e91fb2ef          	jal	t0,3e2 <__riscv_save_0>
    4556:	1141                	addi	sp,sp,-16
    4558:	4585                	li	a1,1
    455a:	4511                	li	a0,4
    455c:	40011437          	lui	s0,0x40011
    4560:	c202                	sw	zero,4(sp)
    4562:	c402                	sw	zero,8(sp)
    4564:	c602                	sw	zero,12(sp)
    4566:	41b020ef          	jal	ra,7180 <RCC_APB2PeriphClockCmd>
    456a:	448d                	li	s1,3
    456c:	4941                	li	s2,16
    456e:	10000793          	li	a5,256
    4572:	004c                	addi	a1,sp,4
    4574:	80040513          	addi	a0,s0,-2048 # 40010800 <_eusrstack+0x20000800>
    4578:	827c                	sh	a5,4(sp)
    457a:	c426                	sw	s1,8(sp)
    457c:	c64a                	sw	s2,12(sp)
    457e:	137020ef          	jal	ra,6eb4 <GPIO_Init>
    4582:	47a1                	li	a5,8
    4584:	004c                	addi	a1,sp,4
    4586:	80040513          	addi	a0,s0,-2048
    458a:	827c                	sh	a5,4(sp)
    458c:	c426                	sw	s1,8(sp)
    458e:	c64a                	sw	s2,12(sp)
    4590:	125020ef          	jal	ra,6eb4 <GPIO_Init>
    4594:	004c                	addi	a1,sp,4
    4596:	80040513          	addi	a0,s0,-2048
    459a:	01211223          	sh	s2,4(sp)
    459e:	c426                	sw	s1,8(sp)
    45a0:	c64a                	sw	s2,12(sp)
    45a2:	113020ef          	jal	ra,6eb4 <GPIO_Init>
    45a6:	4791                	li	a5,4
    45a8:	004c                	addi	a1,sp,4
    45aa:	80040513          	addi	a0,s0,-2048
    45ae:	827c                	sh	a5,4(sp)
    45b0:	c426                	sw	s1,8(sp)
    45b2:	c64a                	sw	s2,12(sp)
    45b4:	101020ef          	jal	ra,6eb4 <GPIO_Init>
    45b8:	02000793          	li	a5,32
    45bc:	4961                	li	s2,24
    45be:	004c                	addi	a1,sp,4
    45c0:	80040513          	addi	a0,s0,-2048
    45c4:	827c                	sh	a5,4(sp)
    45c6:	c64a                	sw	s2,12(sp)
    45c8:	c426                	sw	s1,8(sp)
    45ca:	0eb020ef          	jal	ra,6eb4 <GPIO_Init>
    45ce:	04000793          	li	a5,64
    45d2:	827c                	sh	a5,4(sp)
    45d4:	004c                	addi	a1,sp,4
    45d6:	4791                	li	a5,4
    45d8:	80040513          	addi	a0,s0,-2048
    45dc:	c63e                	sw	a5,12(sp)
    45de:	0d7020ef          	jal	ra,6eb4 <GPIO_Init>
    45e2:	08000793          	li	a5,128
    45e6:	004c                	addi	a1,sp,4
    45e8:	80040513          	addi	a0,s0,-2048
    45ec:	827c                	sh	a5,4(sp)
    45ee:	c64a                	sw	s2,12(sp)
    45f0:	c426                	sw	s1,8(sp)
    45f2:	0c3020ef          	jal	ra,6eb4 <GPIO_Init>
    45f6:	0141                	addi	sp,sp,16
    45f8:	e0ffb06f          	j	406 <__riscv_restore_0>

000045fc <ILI9341_SPI_Init>:
    45fc:	de7fb2ef          	jal	t0,3e2 <__riscv_save_0>
    4600:	1101                	addi	sp,sp,-32
    4602:	4585                	li	a1,1
    4604:	6505                	lui	a0,0x1
    4606:	c602                	sw	zero,12(sp)
    4608:	c802                	sw	zero,16(sp)
    460a:	ca02                	sw	zero,20(sp)
    460c:	cc02                	sw	zero,24(sp)
    460e:	00011e23          	sh	zero,28(sp)
    4612:	36f020ef          	jal	ra,7180 <RCC_APB2PeriphClockCmd>
    4616:	010407b7          	lui	a5,0x1040
    461a:	c63e                	sw	a5,12(sp)
    461c:	020007b7          	lui	a5,0x2000
    4620:	ca3e                	sw	a5,20(sp)
    4622:	47c1                	li	a5,16
    4624:	cc3e                	sw	a5,24(sp)
    4626:	006c                	addi	a1,sp,12
    4628:	479d                	li	a5,7
    462a:	40013537          	lui	a0,0x40013
    462e:	86fc                	sh	a5,28(sp)
    4630:	c802                	sw	zero,16(sp)
    4632:	3a9020ef          	jal	ra,71da <SPI_Init>
    4636:	4585                	li	a1,1
    4638:	40013537          	lui	a0,0x40013
    463c:	3dd020ef          	jal	ra,7218 <SPI_Cmd>
    4640:	6105                	addi	sp,sp,32
    4642:	dc5fb06f          	j	406 <__riscv_restore_0>

00004646 <HAL_SPI_Transmit>:
    4646:	d9dfb2ef          	jal	t0,3e2 <__riscv_save_0>
    464a:	892e                	mv	s2,a1
    464c:	84b2                	mv	s1,a2
    464e:	4401                	li	s0,0
    4650:	01041793          	slli	a5,s0,0x10
    4654:	83c1                	srli	a5,a5,0x10
    4656:	0097e463          	bltu	a5,s1,465e <HAL_SPI_Transmit+0x18>
    465a:	dadfb06f          	j	406 <__riscv_restore_0>
    465e:	4589                	li	a1,2
    4660:	40013537          	lui	a0,0x40013
    4664:	3d3020ef          	jal	ra,7236 <SPI_I2S_GetFlagStatus>
    4668:	d97d                	beqz	a0,465e <HAL_SPI_Transmit+0x18>
    466a:	008907b3          	add	a5,s2,s0
    466e:	238c                	lbu	a1,0(a5)
    4670:	40013537          	lui	a0,0x40013
    4674:	3bf020ef          	jal	ra,7232 <SPI_I2S_SendData>
    4678:	47a9                	li	a5,10
    467a:	0001                	nop
    467c:	17fd                	addi	a5,a5,-1
    467e:	07c2                	slli	a5,a5,0x10
    4680:	83c1                	srli	a5,a5,0x10
    4682:	ffe5                	bnez	a5,467a <HAL_SPI_Transmit+0x34>
    4684:	0405                	addi	s0,s0,1
    4686:	b7e9                	j	4650 <HAL_SPI_Transmit+0xa>

00004688 <ILI9341_WriteCommand>:
    4688:	d5bfb2ef          	jal	t0,3e2 <__riscv_save_0>
    468c:	1141                	addi	sp,sp,-16
    468e:	87c8                	sb	a0,15(sp)
    4690:	40011537          	lui	a0,0x40011
    4694:	45c1                	li	a1,16
    4696:	80050513          	addi	a0,a0,-2048 # 40010800 <_eusrstack+0x20000800>
    469a:	0e9020ef          	jal	ra,6f82 <GPIO_ResetBits>
    469e:	8f41d683          	lhu	a3,-1804(gp) # 20000414 <HAL_MAX_DELAY>
    46a2:	00f10593          	addi	a1,sp,15
    46a6:	4605                	li	a2,1
    46a8:	8f618513          	addi	a0,gp,-1802 # 20000416 <ILI9341_SPI_PORT>
    46ac:	f9bff0ef          	jal	ra,4646 <HAL_SPI_Transmit>
    46b0:	0141                	addi	sp,sp,16
    46b2:	d55fb06f          	j	406 <__riscv_restore_0>

000046b6 <ILI9341_WriteData>:
    46b6:	d2dfb2ef          	jal	t0,3e2 <__riscv_save_0>
    46ba:	1141                	addi	sp,sp,-16
    46bc:	842a                	mv	s0,a0
    46be:	40011537          	lui	a0,0x40011
    46c2:	c62e                	sw	a1,12(sp)
    46c4:	80050513          	addi	a0,a0,-2048 # 40010800 <_eusrstack+0x20000800>
    46c8:	45c1                	li	a1,16
    46ca:	0b5020ef          	jal	ra,6f7e <GPIO_SetBits>
    46ce:	4632                	lw	a2,12(sp)
    46d0:	8f41d683          	lhu	a3,-1804(gp) # 20000414 <HAL_MAX_DELAY>
    46d4:	85a2                	mv	a1,s0
    46d6:	8f618513          	addi	a0,gp,-1802 # 20000416 <ILI9341_SPI_PORT>
    46da:	f6dff0ef          	jal	ra,4646 <HAL_SPI_Transmit>
    46de:	0141                	addi	sp,sp,16
    46e0:	d27fb06f          	j	406 <__riscv_restore_0>

000046e4 <ILI9341_SetAddressWindow>:
    46e4:	cfffb2ef          	jal	t0,3e2 <__riscv_save_0>
    46e8:	1101                	addi	sp,sp,-32
    46ea:	84aa                	mv	s1,a0
    46ec:	02a00513          	li	a0,42
    46f0:	c436                	sw	a3,8(sp)
    46f2:	842e                	mv	s0,a1
    46f4:	c632                	sw	a2,12(sp)
    46f6:	f93ff0ef          	jal	ra,4688 <ILI9341_WriteCommand>
    46fa:	4632                	lw	a2,12(sp)
    46fc:	00849793          	slli	a5,s1,0x8
    4700:	80a1                	srli	s1,s1,0x8
    4702:	8cdd                	or	s1,s1,a5
    4704:	00861793          	slli	a5,a2,0x8
    4708:	8221                	srli	a2,a2,0x8
    470a:	8e5d                	or	a2,a2,a5
    470c:	4591                	li	a1,4
    470e:	0868                	addi	a0,sp,28
    4710:	87f0                	sh	a2,30(sp)
    4712:	86e4                	sh	s1,28(sp)
    4714:	fa3ff0ef          	jal	ra,46b6 <ILI9341_WriteData>
    4718:	02b00513          	li	a0,43
    471c:	f6dff0ef          	jal	ra,4688 <ILI9341_WriteCommand>
    4720:	46a2                	lw	a3,8(sp)
    4722:	00841793          	slli	a5,s0,0x8
    4726:	8021                	srli	s0,s0,0x8
    4728:	8c5d                	or	s0,s0,a5
    472a:	00869793          	slli	a5,a3,0x8
    472e:	82a1                	srli	a3,a3,0x8
    4730:	8edd                	or	a3,a3,a5
    4732:	4591                	li	a1,4
    4734:	0868                	addi	a0,sp,28
    4736:	87f4                	sh	a3,30(sp)
    4738:	86e0                	sh	s0,28(sp)
    473a:	f7dff0ef          	jal	ra,46b6 <ILI9341_WriteData>
    473e:	02c00513          	li	a0,44
    4742:	f47ff0ef          	jal	ra,4688 <ILI9341_WriteCommand>
    4746:	6105                	addi	sp,sp,32
    4748:	cbffb06f          	j	406 <__riscv_restore_0>

0000474c <ILI9341_Unselect>:
    474c:	c97fb2ef          	jal	t0,3e2 <__riscv_save_0>
    4750:	40011537          	lui	a0,0x40011
    4754:	45a1                	li	a1,8
    4756:	80050513          	addi	a0,a0,-2048 # 40010800 <_eusrstack+0x20000800>
    475a:	025020ef          	jal	ra,6f7e <GPIO_SetBits>
    475e:	ca9fb06f          	j	406 <__riscv_restore_0>

00004762 <ILI9341_FillRectangle.part.0>:
    4762:	c67fb2ef          	jal	t0,3c8 <__riscv_save_4>
    4766:	8436                	mv	s0,a3
    4768:	14000793          	li	a5,320
    476c:	00c506b3          	add	a3,a0,a2
    4770:	1101                	addi	sp,sp,-32
    4772:	84b2                	mv	s1,a2
    4774:	00d7d763          	bge	a5,a3,4782 <ILI9341_FillRectangle.part.0+0x20>
    4778:	14000493          	li	s1,320
    477c:	8c89                	sub	s1,s1,a0
    477e:	04c2                	slli	s1,s1,0x10
    4780:	80c1                	srli	s1,s1,0x10
    4782:	008587b3          	add	a5,a1,s0
    4786:	0f000693          	li	a3,240
    478a:	00f6d763          	bge	a3,a5,4798 <ILI9341_FillRectangle.part.0+0x36>
    478e:	0f000413          	li	s0,240
    4792:	8c0d                	sub	s0,s0,a1
    4794:	0442                	slli	s0,s0,0x10
    4796:	8041                	srli	s0,s0,0x10
    4798:	c63a                	sw	a4,12(sp)
    479a:	c42e                	sw	a1,8(sp)
    479c:	c22a                	sw	a0,4(sp)
    479e:	d9fff0ef          	jal	ra,453c <ILI9341_Select>
    47a2:	45a2                	lw	a1,8(sp)
    47a4:	4512                	lw	a0,4(sp)
    47a6:	fff58693          	addi	a3,a1,-1
    47aa:	fff50613          	addi	a2,a0,-1
    47ae:	96a2                	add	a3,a3,s0
    47b0:	9626                	add	a2,a2,s1
    47b2:	06c2                	slli	a3,a3,0x10
    47b4:	0642                	slli	a2,a2,0x10
    47b6:	82c1                	srli	a3,a3,0x10
    47b8:	8241                	srli	a2,a2,0x10
    47ba:	f2bff0ef          	jal	ra,46e4 <ILI9341_SetAddressWindow>
    47be:	4732                	lw	a4,12(sp)
    47c0:	40011537          	lui	a0,0x40011
    47c4:	45c1                	li	a1,16
    47c6:	00871793          	slli	a5,a4,0x8
    47ca:	8321                	srli	a4,a4,0x8
    47cc:	8f5d                	or	a4,a4,a5
    47ce:	80050513          	addi	a0,a0,-2048 # 40010800 <_eusrstack+0x20000800>
    47d2:	86f8                	sh	a4,28(sp)
    47d4:	7aa020ef          	jal	ra,6f7e <GPIO_SetBits>
    47d8:	e805                	bnez	s0,4808 <ILI9341_FillRectangle.part.0+0xa6>
    47da:	f73ff0ef          	jal	ra,474c <ILI9341_Unselect>
    47de:	6105                	addi	sp,sp,32
    47e0:	c1dfb06f          	j	3fc <__riscv_restore_4>
    47e4:	8f41d683          	lhu	a3,-1804(gp) # 20000414 <HAL_MAX_DELAY>
    47e8:	197d                	addi	s2,s2,-1
    47ea:	4609                	li	a2,2
    47ec:	086c                	addi	a1,sp,28
    47ee:	8f618513          	addi	a0,gp,-1802 # 20000416 <ILI9341_SPI_PORT>
    47f2:	0942                	slli	s2,s2,0x10
    47f4:	e53ff0ef          	jal	ra,4646 <HAL_SPI_Transmit>
    47f8:	01095913          	srli	s2,s2,0x10
    47fc:	fe0914e3          	bnez	s2,47e4 <ILI9341_FillRectangle.part.0+0x82>
    4800:	147d                	addi	s0,s0,-1
    4802:	0442                	slli	s0,s0,0x10
    4804:	8041                	srli	s0,s0,0x10
    4806:	bfc9                	j	47d8 <ILI9341_FillRectangle.part.0+0x76>
    4808:	8926                	mv	s2,s1
    480a:	bfcd                	j	47fc <ILI9341_FillRectangle.part.0+0x9a>

0000480c <ILI9341_TurnOn>:
    480c:	bd7fb2ef          	jal	t0,3e2 <__riscv_save_0>
    4810:	40011537          	lui	a0,0x40011
    4814:	4591                	li	a1,4
    4816:	80050513          	addi	a0,a0,-2048 # 40010800 <_eusrstack+0x20000800>
    481a:	768020ef          	jal	ra,6f82 <GPIO_ResetBits>
    481e:	be9fb06f          	j	406 <__riscv_restore_0>

00004822 <ILI9341_TurnOff>:
    4822:	bc1fb2ef          	jal	t0,3e2 <__riscv_save_0>
    4826:	40011537          	lui	a0,0x40011
    482a:	4591                	li	a1,4
    482c:	80050513          	addi	a0,a0,-2048 # 40010800 <_eusrstack+0x20000800>
    4830:	74e020ef          	jal	ra,6f7e <GPIO_SetBits>
    4834:	bd3fb06f          	j	406 <__riscv_restore_0>

00004838 <ILI9341_Init>:
    4838:	babfb2ef          	jal	t0,3e2 <__riscv_save_0>
    483c:	1141                	addi	sp,sp,-16
    483e:	cffff0ef          	jal	ra,453c <ILI9341_Select>
    4842:	40011437          	lui	s0,0x40011
    4846:	10000593          	li	a1,256
    484a:	80040513          	addi	a0,s0,-2048 # 40010800 <_eusrstack+0x20000800>
    484e:	734020ef          	jal	ra,6f82 <GPIO_ResetBits>
    4852:	4515                	li	a0,5
    4854:	8befd0ef          	jal	ra,1912 <rt_thread_mdelay>
    4858:	10000593          	li	a1,256
    485c:	80040513          	addi	a0,s0,-2048
    4860:	71e020ef          	jal	ra,6f7e <GPIO_SetBits>
    4864:	4505                	li	a0,1
    4866:	e23ff0ef          	jal	ra,4688 <ILI9341_WriteCommand>
    486a:	3e800513          	li	a0,1000
    486e:	8a4fd0ef          	jal	ra,1912 <rt_thread_mdelay>
    4872:	0cf00513          	li	a0,207
    4876:	e13ff0ef          	jal	ra,4688 <ILI9341_WriteCommand>
    487a:	8301d703          	lhu	a4,-2000(gp) # 20000350 <_global_impure_ptr+0x4>
    487e:	83018793          	addi	a5,gp,-2000 # 20000350 <_global_impure_ptr+0x4>
    4882:	23bc                	lbu	a5,2(a5)
    4884:	458d                	li	a1,3
    4886:	850a                	mv	a0,sp
    4888:	8078                	sh	a4,0(sp)
    488a:	815c                	sb	a5,2(sp)
    488c:	e2bff0ef          	jal	ra,46b6 <ILI9341_WriteData>
    4890:	0ed00513          	li	a0,237
    4894:	df5ff0ef          	jal	ra,4688 <ILI9341_WriteCommand>
    4898:	8341a783          	lw	a5,-1996(gp) # 20000354 <_global_impure_ptr+0x8>
    489c:	4591                	li	a1,4
    489e:	850a                	mv	a0,sp
    48a0:	c03e                	sw	a5,0(sp)
    48a2:	e15ff0ef          	jal	ra,46b6 <ILI9341_WriteData>
    48a6:	0e800513          	li	a0,232
    48aa:	ddfff0ef          	jal	ra,4688 <ILI9341_WriteCommand>
    48ae:	8381d703          	lhu	a4,-1992(gp) # 20000358 <_global_impure_ptr+0xc>
    48b2:	83818793          	addi	a5,gp,-1992 # 20000358 <_global_impure_ptr+0xc>
    48b6:	23bc                	lbu	a5,2(a5)
    48b8:	458d                	li	a1,3
    48ba:	850a                	mv	a0,sp
    48bc:	8078                	sh	a4,0(sp)
    48be:	815c                	sb	a5,2(sp)
    48c0:	df7ff0ef          	jal	ra,46b6 <ILI9341_WriteData>
    48c4:	0cb00513          	li	a0,203
    48c8:	dc1ff0ef          	jal	ra,4688 <ILI9341_WriteCommand>
    48cc:	83c1a703          	lw	a4,-1988(gp) # 2000035c <_global_impure_ptr+0x10>
    48d0:	83c18793          	addi	a5,gp,-1988 # 2000035c <_global_impure_ptr+0x10>
    48d4:	23dc                	lbu	a5,4(a5)
    48d6:	4595                	li	a1,5
    48d8:	850a                	mv	a0,sp
    48da:	c03a                	sw	a4,0(sp)
    48dc:	825c                	sb	a5,4(sp)
    48de:	dd9ff0ef          	jal	ra,46b6 <ILI9341_WriteData>
    48e2:	0f700513          	li	a0,247
    48e6:	da3ff0ef          	jal	ra,4688 <ILI9341_WriteCommand>
    48ea:	02000793          	li	a5,32
    48ee:	4585                	li	a1,1
    48f0:	850a                	mv	a0,sp
    48f2:	805c                	sb	a5,0(sp)
    48f4:	dc3ff0ef          	jal	ra,46b6 <ILI9341_WriteData>
    48f8:	0ea00513          	li	a0,234
    48fc:	d8dff0ef          	jal	ra,4688 <ILI9341_WriteCommand>
    4900:	4589                	li	a1,2
    4902:	850a                	mv	a0,sp
    4904:	00011023          	sh	zero,0(sp)
    4908:	dafff0ef          	jal	ra,46b6 <ILI9341_WriteData>
    490c:	0c000513          	li	a0,192
    4910:	d79ff0ef          	jal	ra,4688 <ILI9341_WriteCommand>
    4914:	47c5                	li	a5,17
    4916:	4585                	li	a1,1
    4918:	850a                	mv	a0,sp
    491a:	805c                	sb	a5,0(sp)
    491c:	d9bff0ef          	jal	ra,46b6 <ILI9341_WriteData>
    4920:	0c100513          	li	a0,193
    4924:	d65ff0ef          	jal	ra,4688 <ILI9341_WriteCommand>
    4928:	4405                	li	s0,1
    492a:	4585                	li	a1,1
    492c:	850a                	mv	a0,sp
    492e:	8040                	sb	s0,0(sp)
    4930:	d87ff0ef          	jal	ra,46b6 <ILI9341_WriteData>
    4934:	0c500513          	li	a0,197
    4938:	d51ff0ef          	jal	ra,4688 <ILI9341_WriteCommand>
    493c:	678d                	lui	a5,0x3
    493e:	03078793          	addi	a5,a5,48 # 3030 <GPIOA_CLK_ENABLE+0xa>
    4942:	4589                	li	a1,2
    4944:	850a                	mv	a0,sp
    4946:	807c                	sh	a5,0(sp)
    4948:	d6fff0ef          	jal	ra,46b6 <ILI9341_WriteData>
    494c:	0c700513          	li	a0,199
    4950:	d39ff0ef          	jal	ra,4688 <ILI9341_WriteCommand>
    4954:	fb700793          	li	a5,-73
    4958:	4585                	li	a1,1
    495a:	850a                	mv	a0,sp
    495c:	805c                	sb	a5,0(sp)
    495e:	d59ff0ef          	jal	ra,46b6 <ILI9341_WriteData>
    4962:	03600513          	li	a0,54
    4966:	d23ff0ef          	jal	ra,4688 <ILI9341_WriteCommand>
    496a:	04800793          	li	a5,72
    496e:	4585                	li	a1,1
    4970:	850a                	mv	a0,sp
    4972:	805c                	sb	a5,0(sp)
    4974:	d43ff0ef          	jal	ra,46b6 <ILI9341_WriteData>
    4978:	03a00513          	li	a0,58
    497c:	d0dff0ef          	jal	ra,4688 <ILI9341_WriteCommand>
    4980:	05500793          	li	a5,85
    4984:	4585                	li	a1,1
    4986:	850a                	mv	a0,sp
    4988:	805c                	sb	a5,0(sp)
    498a:	d2dff0ef          	jal	ra,46b6 <ILI9341_WriteData>
    498e:	0b100513          	li	a0,177
    4992:	cf7ff0ef          	jal	ra,4688 <ILI9341_WriteCommand>
    4996:	6789                	lui	a5,0x2
    4998:	80078793          	addi	a5,a5,-2048 # 1800 <rt_thread_create+0x10>
    499c:	4589                	li	a1,2
    499e:	850a                	mv	a0,sp
    49a0:	807c                	sh	a5,0(sp)
    49a2:	d15ff0ef          	jal	ra,46b6 <ILI9341_WriteData>
    49a6:	0b600513          	li	a0,182
    49aa:	cdfff0ef          	jal	ra,4688 <ILI9341_WriteCommand>
    49ae:	8441d703          	lhu	a4,-1980(gp) # 20000364 <_global_impure_ptr+0x18>
    49b2:	84418793          	addi	a5,gp,-1980 # 20000364 <_global_impure_ptr+0x18>
    49b6:	23bc                	lbu	a5,2(a5)
    49b8:	458d                	li	a1,3
    49ba:	850a                	mv	a0,sp
    49bc:	8078                	sh	a4,0(sp)
    49be:	815c                	sb	a5,2(sp)
    49c0:	cf7ff0ef          	jal	ra,46b6 <ILI9341_WriteData>
    49c4:	0f200513          	li	a0,242
    49c8:	cc1ff0ef          	jal	ra,4688 <ILI9341_WriteCommand>
    49cc:	4585                	li	a1,1
    49ce:	850a                	mv	a0,sp
    49d0:	00010023          	sb	zero,0(sp)
    49d4:	ce3ff0ef          	jal	ra,46b6 <ILI9341_WriteData>
    49d8:	02600513          	li	a0,38
    49dc:	cadff0ef          	jal	ra,4688 <ILI9341_WriteCommand>
    49e0:	4585                	li	a1,1
    49e2:	850a                	mv	a0,sp
    49e4:	8040                	sb	s0,0(sp)
    49e6:	cd1ff0ef          	jal	ra,46b6 <ILI9341_WriteData>
    49ea:	0e000513          	li	a0,224
    49ee:	c9bff0ef          	jal	ra,4688 <ILI9341_WriteCommand>
    49f2:	65a9                	lui	a1,0xa
    49f4:	e5858413          	addi	s0,a1,-424 # 9e58 <_read+0x60>
    49f8:	463d                	li	a2,15
    49fa:	e5858593          	addi	a1,a1,-424
    49fe:	850a                	mv	a0,sp
    4a00:	779030ef          	jal	ra,8978 <memcpy>
    4a04:	45bd                	li	a1,15
    4a06:	850a                	mv	a0,sp
    4a08:	cafff0ef          	jal	ra,46b6 <ILI9341_WriteData>
    4a0c:	0e100513          	li	a0,225
    4a10:	c79ff0ef          	jal	ra,4688 <ILI9341_WriteCommand>
    4a14:	463d                	li	a2,15
    4a16:	01040593          	addi	a1,s0,16
    4a1a:	850a                	mv	a0,sp
    4a1c:	75d030ef          	jal	ra,8978 <memcpy>
    4a20:	45bd                	li	a1,15
    4a22:	850a                	mv	a0,sp
    4a24:	c93ff0ef          	jal	ra,46b6 <ILI9341_WriteData>
    4a28:	4545                	li	a0,17
    4a2a:	c5fff0ef          	jal	ra,4688 <ILI9341_WriteCommand>
    4a2e:	07800513          	li	a0,120
    4a32:	ee1fc0ef          	jal	ra,1912 <rt_thread_mdelay>
    4a36:	02900513          	li	a0,41
    4a3a:	c4fff0ef          	jal	ra,4688 <ILI9341_WriteCommand>
    4a3e:	03600513          	li	a0,54
    4a42:	c47ff0ef          	jal	ra,4688 <ILI9341_WriteCommand>
    4a46:	02800793          	li	a5,40
    4a4a:	850a                	mv	a0,sp
    4a4c:	4585                	li	a1,1
    4a4e:	805c                	sb	a5,0(sp)
    4a50:	c67ff0ef          	jal	ra,46b6 <ILI9341_WriteData>
    4a54:	cf9ff0ef          	jal	ra,474c <ILI9341_Unselect>
    4a58:	0141                	addi	sp,sp,16
    4a5a:	9adfb06f          	j	406 <__riscv_restore_0>

00004a5e <ILI9341_WriteChar>:
    4a5e:	95dfb2ef          	jal	t0,3ba <__riscv_save_10>
    4a62:	8432                	mv	s0,a2
    4a64:	0086d493          	srli	s1,a3,0x8
    4a68:	0ff4f493          	andi	s1,s1,255
    4a6c:	1401                	addi	s0,s0,-32
    4a6e:	1101                	addi	sp,sp,-32
    4a70:	0ff6fa13          	andi	s4,a3,255
    4a74:	02940433          	mul	s0,s0,s1
    4a78:	c436                	sw	a3,8(sp)
    4a7a:	fffa0613          	addi	a2,s4,-1
    4a7e:	fff48693          	addi	a3,s1,-1
    4a82:	96ae                	add	a3,a3,a1
    4a84:	962a                	add	a2,a2,a0
    4a86:	06c2                	slli	a3,a3,0x10
    4a88:	0642                	slli	a2,a2,0x10
    4a8a:	82c1                	srli	a3,a3,0x10
    4a8c:	8241                	srli	a2,a2,0x10
    4a8e:	c23e                	sw	a5,4(sp)
    4a90:	c042                	sw	a6,0(sp)
    4a92:	c63a                	sw	a4,12(sp)
    4a94:	c51ff0ef          	jal	ra,46e4 <ILI9341_SetAddressWindow>
    4a98:	4802                	lw	a6,0(sp)
    4a9a:	4792                	lw	a5,4(sp)
    4a9c:	0406                	slli	s0,s0,0x1
    4a9e:	00881a93          	slli	s5,a6,0x8
    4aa2:	00879b13          	slli	s6,a5,0x8
    4aa6:	00885813          	srli	a6,a6,0x8
    4aaa:	83a1                	srli	a5,a5,0x8
    4aac:	4981                	li	s3,0
    4aae:	010aeab3          	or	s5,s5,a6
    4ab2:	00fb6b33          	or	s6,s6,a5
    4ab6:	0099e563          	bltu	s3,s1,4ac0 <ILI9341_WriteChar+0x62>
    4aba:	6105                	addi	sp,sp,32
    4abc:	937fb06f          	j	3f2 <__riscv_restore_10>
    4ac0:	47b2                	lw	a5,12(sp)
    4ac2:	4901                	li	s2,0
    4ac4:	97a2                	add	a5,a5,s0
    4ac6:	0007db83          	lhu	s7,0(a5)
    4aca:	01496563          	bltu	s2,s4,4ad4 <ILI9341_WriteChar+0x76>
    4ace:	0985                	addi	s3,s3,1
    4ad0:	0409                	addi	s0,s0,2
    4ad2:	b7d5                	j	4ab6 <ILI9341_WriteChar+0x58>
    4ad4:	012b97b3          	sll	a5,s7,s2
    4ad8:	01079713          	slli	a4,a5,0x10
    4adc:	00075a63          	bgez	a4,4af0 <ILI9341_WriteChar+0x92>
    4ae0:	01611e23          	sh	s6,28(sp)
    4ae4:	4589                	li	a1,2
    4ae6:	0868                	addi	a0,sp,28
    4ae8:	bcfff0ef          	jal	ra,46b6 <ILI9341_WriteData>
    4aec:	0905                	addi	s2,s2,1
    4aee:	bff1                	j	4aca <ILI9341_WriteChar+0x6c>
    4af0:	01511e23          	sh	s5,28(sp)
    4af4:	bfc5                	j	4ae4 <ILI9341_WriteChar+0x86>

00004af6 <ILI9341_WriteString>:
    4af6:	8c5fb2ef          	jal	t0,3ba <__riscv_save_10>
    4afa:	1141                	addi	sp,sp,-16
    4afc:	0086d993          	srli	s3,a3,0x8
    4b00:	892a                	mv	s2,a0
    4b02:	842e                	mv	s0,a1
    4b04:	84b2                	mv	s1,a2
    4b06:	c436                	sw	a3,8(sp)
    4b08:	c63a                	sw	a4,12(sp)
    4b0a:	8abe                	mv	s5,a5
    4b0c:	8b42                	mv	s6,a6
    4b0e:	0ff6fa13          	andi	s4,a3,255
    4b12:	0ff9f993          	andi	s3,s3,255
    4b16:	a27ff0ef          	jal	ra,453c <ILI9341_Select>
    4b1a:	4ba9                	li	s7,10
    4b1c:	13f00c13          	li	s8,319
    4b20:	0ef00c93          	li	s9,239
    4b24:	02000d13          	li	s10,32
    4b28:	00048783          	lb	a5,0(s1)
    4b2c:	e791                	bnez	a5,4b38 <ILI9341_WriteString+0x42>
    4b2e:	c1fff0ef          	jal	ra,474c <ILI9341_Unselect>
    4b32:	0141                	addi	sp,sp,16
    4b34:	8bffb06f          	j	3f2 <__riscv_restore_10>
    4b38:	01779763          	bne	a5,s7,4b46 <ILI9341_WriteString+0x50>
    4b3c:	944e                	add	s0,s0,s3
    4b3e:	0442                	slli	s0,s0,0x10
    4b40:	8041                	srli	s0,s0,0x10
    4b42:	0485                	addi	s1,s1,1
    4b44:	4901                	li	s2,0
    4b46:	00048603          	lb	a2,0(s1)
    4b4a:	d275                	beqz	a2,4b2e <ILI9341_WriteString+0x38>
    4b4c:	014907b3          	add	a5,s2,s4
    4b50:	00fc5e63          	bge	s8,a5,4b6c <ILI9341_WriteString+0x76>
    4b54:	944e                	add	s0,s0,s3
    4b56:	0442                	slli	s0,s0,0x10
    4b58:	8041                	srli	s0,s0,0x10
    4b5a:	013407b3          	add	a5,s0,s3
    4b5e:	fcfcc8e3          	blt	s9,a5,4b2e <ILI9341_WriteString+0x38>
    4b62:	4901                	li	s2,0
    4b64:	01a61463          	bne	a2,s10,4b6c <ILI9341_WriteString+0x76>
    4b68:	0485                	addi	s1,s1,1
    4b6a:	bf7d                	j	4b28 <ILI9341_WriteString+0x32>
    4b6c:	01410423          	sb	s4,8(sp)
    4b70:	013104a3          	sb	s3,9(sp)
    4b74:	46a2                	lw	a3,8(sp)
    4b76:	4732                	lw	a4,12(sp)
    4b78:	854a                	mv	a0,s2
    4b7a:	9952                	add	s2,s2,s4
    4b7c:	885a                	mv	a6,s6
    4b7e:	87d6                	mv	a5,s5
    4b80:	85a2                	mv	a1,s0
    4b82:	0942                	slli	s2,s2,0x10
    4b84:	edbff0ef          	jal	ra,4a5e <ILI9341_WriteChar>
    4b88:	01095913          	srli	s2,s2,0x10
    4b8c:	bff1                	j	4b68 <ILI9341_WriteString+0x72>

00004b8e <ILI9341_WriteString_Horizontal_Backwards>:
    4b8e:	82dfb2ef          	jal	t0,3ba <__riscv_save_10>
    4b92:	1141                	addi	sp,sp,-16
    4b94:	8aae                	mv	s5,a1
    4b96:	0086d993          	srli	s3,a3,0x8
    4b9a:	842a                	mv	s0,a0
    4b9c:	8932                	mv	s2,a2
    4b9e:	c436                	sw	a3,8(sp)
    4ba0:	c63a                	sw	a4,12(sp)
    4ba2:	8b3e                	mv	s6,a5
    4ba4:	8bc2                	mv	s7,a6
    4ba6:	0ff6fa13          	andi	s4,a3,255
    4baa:	0ff9f993          	andi	s3,s3,255
    4bae:	98fff0ef          	jal	ra,453c <ILI9341_Select>
    4bb2:	84d6                	mv	s1,s5
    4bb4:	4ca9                	li	s9,10
    4bb6:	0ef00c13          	li	s8,239
    4bba:	02000d13          	li	s10,32
    4bbe:	00090783          	lb	a5,0(s2)
    4bc2:	e791                	bnez	a5,4bce <ILI9341_WriteString_Horizontal_Backwards+0x40>
    4bc4:	b89ff0ef          	jal	ra,474c <ILI9341_Unselect>
    4bc8:	0141                	addi	sp,sp,16
    4bca:	829fb06f          	j	3f2 <__riscv_restore_10>
    4bce:	01979763          	bne	a5,s9,4bdc <ILI9341_WriteString_Horizontal_Backwards+0x4e>
    4bd2:	9452                	add	s0,s0,s4
    4bd4:	0442                	slli	s0,s0,0x10
    4bd6:	8041                	srli	s0,s0,0x10
    4bd8:	0905                	addi	s2,s2,1
    4bda:	84d6                	mv	s1,s5
    4bdc:	00090603          	lb	a2,0(s2)
    4be0:	d275                	beqz	a2,4bc4 <ILI9341_WriteString_Horizontal_Backwards+0x36>
    4be2:	413487b3          	sub	a5,s1,s3
    4be6:	00fc5e63          	bge	s8,a5,4c02 <ILI9341_WriteString_Horizontal_Backwards+0x74>
    4bea:	9452                	add	s0,s0,s4
    4bec:	0442                	slli	s0,s0,0x10
    4bee:	8041                	srli	s0,s0,0x10
    4bf0:	014407b3          	add	a5,s0,s4
    4bf4:	fcfc48e3          	blt	s8,a5,4bc4 <ILI9341_WriteString_Horizontal_Backwards+0x36>
    4bf8:	84d6                	mv	s1,s5
    4bfa:	01a61463          	bne	a2,s10,4c02 <ILI9341_WriteString_Horizontal_Backwards+0x74>
    4bfe:	0905                	addi	s2,s2,1
    4c00:	bf7d                	j	4bbe <ILI9341_WriteString_Horizontal_Backwards+0x30>
    4c02:	01410423          	sb	s4,8(sp)
    4c06:	013104a3          	sb	s3,9(sp)
    4c0a:	46a2                	lw	a3,8(sp)
    4c0c:	4732                	lw	a4,12(sp)
    4c0e:	85a6                	mv	a1,s1
    4c10:	413484b3          	sub	s1,s1,s3
    4c14:	885e                	mv	a6,s7
    4c16:	87da                	mv	a5,s6
    4c18:	8522                	mv	a0,s0
    4c1a:	04c2                	slli	s1,s1,0x10
    4c1c:	e43ff0ef          	jal	ra,4a5e <ILI9341_WriteChar>
    4c20:	80c1                	srli	s1,s1,0x10
    4c22:	bff1                	j	4bfe <ILI9341_WriteString_Horizontal_Backwards+0x70>

00004c24 <ILI9341_FillRectangle>:
    4c24:	13f00793          	li	a5,319
    4c28:	00a7ec63          	bltu	a5,a0,4c40 <ILI9341_FillRectangle+0x1c>
    4c2c:	0ef00793          	li	a5,239
    4c30:	00b7e863          	bltu	a5,a1,4c40 <ILI9341_FillRectangle+0x1c>
    4c34:	faefb2ef          	jal	t0,3e2 <__riscv_save_0>
    4c38:	b2bff0ef          	jal	ra,4762 <ILI9341_FillRectangle.part.0>
    4c3c:	fcafb06f          	j	406 <__riscv_restore_0>
    4c40:	8082                	ret

00004c42 <ILI9341_FillScreen>:
    4c42:	fa0fb2ef          	jal	t0,3e2 <__riscv_save_0>
    4c46:	872a                	mv	a4,a0
    4c48:	0f000693          	li	a3,240
    4c4c:	14000613          	li	a2,320
    4c50:	4581                	li	a1,0
    4c52:	4501                	li	a0,0
    4c54:	b0fff0ef          	jal	ra,4762 <ILI9341_FillRectangle.part.0>
    4c58:	faefb06f          	j	406 <__riscv_restore_0>

00004c5c <Note_On_Debug>:
    4c5c:	f86fb2ef          	jal	t0,3e2 <__riscv_save_0>
    4c60:	862e                	mv	a2,a1
    4c62:	85aa                	mv	a1,a0
    4c64:	0000d537          	lui	a0,0xd
    4c68:	82050513          	addi	a0,a0,-2016 # c820 <Font7x10+0x77c>
    4c6c:	b82fc0ef          	jal	ra,fee <rt_kprintf>
    4c70:	f96fb06f          	j	406 <__riscv_restore_0>

00004c74 <Note_Off_Debug>:
    4c74:	f6efb2ef          	jal	t0,3e2 <__riscv_save_0>
    4c78:	85aa                	mv	a1,a0
    4c7a:	0000d537          	lui	a0,0xd
    4c7e:	81050513          	addi	a0,a0,-2032 # c810 <Font7x10+0x76c>
    4c82:	b6cfc0ef          	jal	ra,fee <rt_kprintf>
    4c86:	f80fb06f          	j	406 <__riscv_restore_0>

00004c8a <UART_Init>:
    4c8a:	f58fb2ef          	jal	t0,3e2 <__riscv_save_0>
    4c8e:	7179                	addi	sp,sp,-48
    4c90:	4585                	li	a1,1
    4c92:	00040537          	lui	a0,0x40
    4c96:	c602                	sw	zero,12(sp)
    4c98:	c802                	sw	zero,16(sp)
    4c9a:	ca02                	sw	zero,20(sp)
    4c9c:	cc02                	sw	zero,24(sp)
    4c9e:	ce02                	sw	zero,28(sp)
    4ca0:	d002                	sw	zero,32(sp)
    4ca2:	d202                	sw	zero,36(sp)
    4ca4:	d402                	sw	zero,40(sp)
    4ca6:	d602                	sw	zero,44(sp)
    4ca8:	4f6020ef          	jal	ra,719e <RCC_APB1PeriphClockCmd>
    4cac:	4585                	li	a1,1
    4cae:	4521                	li	a0,8
    4cb0:	4d0020ef          	jal	ra,7180 <RCC_APB2PeriphClockCmd>
    4cb4:	40000793          	li	a5,1024
    4cb8:	82fc                	sh	a5,20(sp)
    4cba:	40011437          	lui	s0,0x40011
    4cbe:	478d                	li	a5,3
    4cc0:	cc3e                	sw	a5,24(sp)
    4cc2:	084c                	addi	a1,sp,20
    4cc4:	47e1                	li	a5,24
    4cc6:	c0040513          	addi	a0,s0,-1024 # 40010c00 <_eusrstack+0x20000c00>
    4cca:	ce3e                	sw	a5,28(sp)
    4ccc:	1e8020ef          	jal	ra,6eb4 <GPIO_Init>
    4cd0:	6785                	lui	a5,0x1
    4cd2:	80078793          	addi	a5,a5,-2048 # 800 <__stack_size>
    4cd6:	82fc                	sh	a5,20(sp)
    4cd8:	084c                	addi	a1,sp,20
    4cda:	04800793          	li	a5,72
    4cde:	c0040513          	addi	a0,s0,-1024
    4ce2:	ce3e                	sw	a5,28(sp)
    4ce4:	1d0020ef          	jal	ra,6eb4 <GPIO_Init>
    4ce8:	67a1                	lui	a5,0x8
    4cea:	40005437          	lui	s0,0x40005
    4cee:	a1278793          	addi	a5,a5,-1518 # 7a12 <__subdf3+0x140>
    4cf2:	4605                	li	a2,1
    4cf4:	d03e                	sw	a5,32(sp)
    4cf6:	52500593          	li	a1,1317
    4cfa:	000c07b7          	lui	a5,0xc0
    4cfe:	80040513          	addi	a0,s0,-2048 # 40004800 <_eusrstack+0x1fff4800>
    4d02:	d43e                	sw	a5,40(sp)
    4d04:	d202                	sw	zero,36(sp)
    4d06:	02011623          	sh	zero,44(sp)
    4d0a:	608020ef          	jal	ra,7312 <USART_ITConfig>
    4d0e:	23700793          	li	a5,567
    4d12:	867c                	sh	a5,12(sp)
    4d14:	4789                	li	a5,2
    4d16:	875c                	sb	a5,14(sp)
    4d18:	0068                	addi	a0,sp,12
    4d1a:	4785                	li	a5,1
    4d1c:	c83e                	sw	a5,16(sp)
    4d1e:	2a4020ef          	jal	ra,6fc2 <NVIC_Init>
    4d22:	100c                	addi	a1,sp,32
    4d24:	80040513          	addi	a0,s0,-2048
    4d28:	518020ef          	jal	ra,7240 <USART_Init>
    4d2c:	4585                	li	a1,1
    4d2e:	80040513          	addi	a0,s0,-2048
    4d32:	5ca020ef          	jal	ra,72fc <USART_Cmd>
    4d36:	000057b7          	lui	a5,0x5
    4d3a:	c5c78793          	addi	a5,a5,-932 # 4c5c <Note_On_Debug>
    4d3e:	8ef1ae23          	sw	a5,-1796(gp) # 2000041c <Note_On>
    4d42:	000057b7          	lui	a5,0x5
    4d46:	c7478793          	addi	a5,a5,-908 # 4c74 <Note_Off_Debug>
    4d4a:	8ef1ac23          	sw	a5,-1800(gp) # 20000418 <Note_Off>
    4d4e:	6145                	addi	sp,sp,48
    4d50:	eb6fb06f          	j	406 <__riscv_restore_0>

00004d54 <MIDI_Handler>:
    4d54:	01851613          	slli	a2,a0,0x18
    4d58:	8661                	srai	a2,a2,0x18
    4d5a:	81018713          	addi	a4,gp,-2032 # 20000330 <midiCommandBytes>
    4d5e:	90018793          	addi	a5,gp,-1792 # 20000420 <commandArray>
    4d62:	90318693          	addi	a3,gp,-1789 # 20000423 <midi_index>
    4d66:	04065c63          	bgez	a2,4dbe <MIDI_Handler+0x6a>
    4d6a:	09000613          	li	a2,144
    4d6e:	00c50a63          	beq	a0,a2,4d82 <MIDI_Handler+0x2e>
    4d72:	0d000613          	li	a2,208
    4d76:	04c50263          	beq	a0,a2,4dba <MIDI_Handler+0x66>
    4d7a:	08000613          	li	a2,128
    4d7e:	00c51463          	bne	a0,a2,4d86 <MIDI_Handler+0x32>
    4d82:	460d                	li	a2,3
    4d84:	a310                	sb	a2,0(a4)
    4d86:	4605                	li	a2,1
    4d88:	a388                	sb	a0,0(a5)
    4d8a:	a290                	sb	a2,0(a3)
    4d8c:	2294                	lbu	a3,0(a3)
    4d8e:	2318                	lbu	a4,0(a4)
    4d90:	04e6e563          	bltu	a3,a4,4dda <MIDI_Handler+0x86>
    4d94:	e4efb2ef          	jal	t0,3e2 <__riscv_save_0>
    4d98:	2398                	lbu	a4,0(a5)
    4d9a:	08000693          	li	a3,128
    4d9e:	02d70963          	beq	a4,a3,4dd0 <MIDI_Handler+0x7c>
    4da2:	09000693          	li	a3,144
    4da6:	00d71863          	bne	a4,a3,4db6 <MIDI_Handler+0x62>
    4daa:	23ac                	lbu	a1,2(a5)
    4dac:	3388                	lbu	a0,1(a5)
    4dae:	cd89                	beqz	a1,4dc8 <MIDI_Handler+0x74>
    4db0:	8fc1a783          	lw	a5,-1796(gp) # 2000041c <Note_On>
    4db4:	9782                	jalr	a5
    4db6:	e50fb06f          	j	406 <__riscv_restore_0>
    4dba:	4609                	li	a2,2
    4dbc:	b7e1                	j	4d84 <MIDI_Handler+0x30>
    4dbe:	2290                	lbu	a2,0(a3)
    4dc0:	963e                	add	a2,a2,a5
    4dc2:	fea60fa3          	sb	a0,-1(a2)
    4dc6:	b7d9                	j	4d8c <MIDI_Handler+0x38>
    4dc8:	8f81a783          	lw	a5,-1800(gp) # 20000418 <Note_Off>
    4dcc:	9782                	jalr	a5
    4dce:	b7e5                	j	4db6 <MIDI_Handler+0x62>
    4dd0:	8f81a703          	lw	a4,-1800(gp) # 20000418 <Note_Off>
    4dd4:	3388                	lbu	a0,1(a5)
    4dd6:	9702                	jalr	a4
    4dd8:	bff9                	j	4db6 <MIDI_Handler+0x62>
    4dda:	8082                	ret

00004ddc <USART3_IRQHandler>:
    4ddc:	1141                	addi	sp,sp,-16
    4dde:	c622                	sw	s0,12(sp)
    4de0:	40005437          	lui	s0,0x40005
    4de4:	02000593          	li	a1,32
    4de8:	80040513          	addi	a0,s0,-2048 # 40004800 <_eusrstack+0x1fff4800>
    4dec:	56c020ef          	jal	ra,7358 <USART_GetFlagStatus>
    4df0:	cd11                	beqz	a0,4e0c <USART3_IRQHandler+0x30>
    4df2:	80040513          	addi	a0,s0,-2048
    4df6:	55a020ef          	jal	ra,7350 <USART_ReceiveData>
    4dfa:	0ff57513          	andi	a0,a0,255
    4dfe:	f57ff0ef          	jal	ra,4d54 <MIDI_Handler>
    4e02:	90318793          	addi	a5,gp,-1789 # 20000423 <midi_index>
    4e06:	2398                	lbu	a4,0(a5)
    4e08:	0705                	addi	a4,a4,1
    4e0a:	a398                	sb	a4,0(a5)
    4e0c:	4432                	lw	s0,12(sp)
    4e0e:	0141                	addi	sp,sp,16
    4e10:	30200073          	mret

00004e14 <ADC_Function_Init>:
    4e14:	dcefb2ef          	jal	t0,3e2 <__riscv_save_0>
    4e18:	7179                	addi	sp,sp,-48
    4e1a:	02000613          	li	a2,32
    4e1e:	4581                	li	a1,0
    4e20:	0808                	addi	a0,sp,16
    4e22:	df0fb0ef          	jal	ra,412 <memset>
    4e26:	4585                	li	a1,1
    4e28:	4511                	li	a0,4
    4e2a:	c202                	sw	zero,4(sp)
    4e2c:	c402                	sw	zero,8(sp)
    4e2e:	c602                	sw	zero,12(sp)
    4e30:	350020ef          	jal	ra,7180 <RCC_APB2PeriphClockCmd>
    4e34:	4585                	li	a1,1
    4e36:	20000513          	li	a0,512
    4e3a:	346020ef          	jal	ra,7180 <RCC_APB2PeriphClockCmd>
    4e3e:	6531                	lui	a0,0xc
    4e40:	228020ef          	jal	ra,7068 <RCC_ADCCLKConfig>
    4e44:	40011537          	lui	a0,0x40011
    4e48:	4789                	li	a5,2
    4e4a:	004c                	addi	a1,sp,4
    4e4c:	80050513          	addi	a0,a0,-2048 # 40010800 <_eusrstack+0x20000800>
    4e50:	40012437          	lui	s0,0x40012
    4e54:	827c                	sh	a5,4(sp)
    4e56:	c602                	sw	zero,12(sp)
    4e58:	05c020ef          	jal	ra,6eb4 <GPIO_Init>
    4e5c:	40040513          	addi	a0,s0,1024 # 40012400 <_eusrstack+0x20002400>
    4e60:	4b9010ef          	jal	ra,6b18 <ADC_DeInit>
    4e64:	000e07b7          	lui	a5,0xe0
    4e68:	ce3e                	sw	a5,28(sp)
    4e6a:	080c                	addi	a1,sp,16
    4e6c:	4785                	li	a5,1
    4e6e:	40040513          	addi	a0,s0,1024
    4e72:	02f10223          	sb	a5,36(sp)
    4e76:	c802                	sw	zero,16(sp)
    4e78:	ca02                	sw	zero,20(sp)
    4e7a:	cc02                	sw	zero,24(sp)
    4e7c:	d002                	sw	zero,32(sp)
    4e7e:	4db010ef          	jal	ra,6b58 <ADC_Init>
    4e82:	469d                	li	a3,7
    4e84:	4605                	li	a2,1
    4e86:	4585                	li	a1,1
    4e88:	40040513          	addi	a0,s0,1024
    4e8c:	581010ef          	jal	ra,6c0c <ADC_RegularChannelConfig>
    4e90:	4585                	li	a1,1
    4e92:	40040513          	addi	a0,s0,1024
    4e96:	565010ef          	jal	ra,6bfa <ADC_DiscModeChannelCountConfig>
    4e9a:	4585                	li	a1,1
    4e9c:	40040513          	addi	a0,s0,1024
    4ea0:	50f010ef          	jal	ra,6bae <ADC_Cmd>
    4ea4:	4581                	li	a1,0
    4ea6:	40040513          	addi	a0,s0,1024
    4eaa:	62d010ef          	jal	ra,6cd6 <ADC_BufferCmd>
    4eae:	40040513          	addi	a0,s0,1024
    4eb2:	50d010ef          	jal	ra,6bbe <ADC_ResetCalibration>
    4eb6:	40040493          	addi	s1,s0,1024
    4eba:	8526                	mv	a0,s1
    4ebc:	50d010ef          	jal	ra,6bc8 <ADC_GetResetCalibrationStatus>
    4ec0:	fd6d                	bnez	a0,4eba <ADC_Function_Init+0xa6>
    4ec2:	40040513          	addi	a0,s0,1024
    4ec6:	40012437          	lui	s0,0x40012
    4eca:	507010ef          	jal	ra,6bd0 <ADC_StartCalibration>
    4ece:	40040493          	addi	s1,s0,1024 # 40012400 <_eusrstack+0x20002400>
    4ed2:	8526                	mv	a0,s1
    4ed4:	507010ef          	jal	ra,6bda <ADC_GetCalibrationStatus>
    4ed8:	fd6d                	bnez	a0,4ed2 <ADC_Function_Init+0xbe>
    4eda:	40040513          	addi	a0,s0,1024
    4ede:	611010ef          	jal	ra,6cee <Get_CalibrationValue>
    4ee2:	90a19223          	sh	a0,-1788(gp) # 20000424 <calibrationVal>
    4ee6:	4585                	li	a1,1
    4ee8:	40040513          	addi	a0,s0,1024
    4eec:	5eb010ef          	jal	ra,6cd6 <ADC_BufferCmd>
    4ef0:	6145                	addi	sp,sp,48
    4ef2:	d14fb06f          	j	406 <__riscv_restore_0>

00004ef6 <Apply_Calibration_Offset>:
    4ef6:	90419783          	lh	a5,-1788(gp) # 20000424 <calibrationVal>
    4efa:	97aa                	add	a5,a5,a0
    4efc:	0007cd63          	bltz	a5,4f16 <Apply_Calibration_Offset+0x20>
    4f00:	6685                	lui	a3,0x1
    4f02:	fff68713          	addi	a4,a3,-1 # fff <rt_kprintf+0x11>
    4f06:	00d7da63          	bge	a5,a3,4f1a <Apply_Calibration_Offset+0x24>
    4f0a:	00e50963          	beq	a0,a4,4f1c <Apply_Calibration_Offset+0x26>
    4f0e:	01079513          	slli	a0,a5,0x10
    4f12:	8141                	srli	a0,a0,0x10
    4f14:	8082                	ret
    4f16:	4501                	li	a0,0
    4f18:	8082                	ret
    4f1a:	853a                	mv	a0,a4
    4f1c:	8082                	ret

00004f1e <Get_ADC_Val>:
    4f1e:	cc4fb2ef          	jal	t0,3e2 <__riscv_save_0>
    4f22:	40012437          	lui	s0,0x40012
    4f26:	85aa                	mv	a1,a0
    4f28:	469d                	li	a3,7
    4f2a:	4605                	li	a2,1
    4f2c:	40040513          	addi	a0,s0,1024 # 40012400 <_eusrstack+0x20002400>
    4f30:	4dd010ef          	jal	ra,6c0c <ADC_RegularChannelConfig>
    4f34:	4585                	li	a1,1
    4f36:	40040513          	addi	a0,s0,1024
    4f3a:	4a9010ef          	jal	ra,6be2 <ADC_SoftwareStartConvCmd>
    4f3e:	40040493          	addi	s1,s0,1024
    4f42:	4589                	li	a1,2
    4f44:	8526                	mv	a0,s1
    4f46:	587010ef          	jal	ra,6ccc <ADC_GetFlagStatus>
    4f4a:	dd65                	beqz	a0,4f42 <Get_ADC_Val+0x24>
    4f4c:	40040513          	addi	a0,s0,1024
    4f50:	575010ef          	jal	ra,6cc4 <ADC_GetConversionValue>
    4f54:	fa3ff0ef          	jal	ra,4ef6 <Apply_Calibration_Offset>
    4f58:	caefb06f          	j	406 <__riscv_restore_0>

00004f5c <Clamp>:
    4f5c:	c86fb2ef          	jal	t0,3e2 <__riscv_save_0>
    4f60:	1141                	addi	sp,sp,-16
    4f62:	c432                	sw	a2,8(sp)
    4f64:	c62e                	sw	a1,12(sp)
    4f66:	7b8030ef          	jal	ra,871e <__floatunsisf>
    4f6a:	45b2                	lw	a1,12(sp)
    4f6c:	842a                	mv	s0,a0
    4f6e:	852e                	mv	a0,a1
    4f70:	7ae030ef          	jal	ra,871e <__floatunsisf>
    4f74:	85aa                	mv	a1,a0
    4f76:	8522                	mv	a0,s0
    4f78:	0f4030ef          	jal	ra,806c <__divsf3>
    4f7c:	4622                	lw	a2,8(sp)
    4f7e:	842a                	mv	s0,a0
    4f80:	8532                	mv	a0,a2
    4f82:	79c030ef          	jal	ra,871e <__floatunsisf>
    4f86:	85aa                	mv	a1,a0
    4f88:	8522                	mv	a0,s0
    4f8a:	4a2030ef          	jal	ra,842c <__mulsf3>
    4f8e:	72e030ef          	jal	ra,86bc <__fixsfsi>
    4f92:	0141                	addi	sp,sp,16
    4f94:	c72fb06f          	j	406 <__riscv_restore_0>

00004f98 <Generic_Input_Interrupt>:
    4f98:	c4afb2ef          	jal	t0,3e2 <__riscv_save_0>
    4f9c:	0000d537          	lui	a0,0xd
    4fa0:	84050513          	addi	a0,a0,-1984 # c840 <Font7x10+0x79c>
    4fa4:	84afc0ef          	jal	ra,fee <rt_kprintf>
    4fa8:	c5efb06f          	j	406 <__riscv_restore_0>

00004fac <Read_Potentiometers>:
    4fac:	c36fb2ef          	jal	t0,3e2 <__riscv_save_0>
    4fb0:	81418413          	addi	s0,gp,-2028 # 20000334 <PORT_GPIO>
    4fb4:	4008                	lw	a0,0(s0)
    4fb6:	02000593          	li	a1,32
    4fba:	7c5010ef          	jal	ra,6f7e <GPIO_SetBits>
    4fbe:	4008                	lw	a0,0(s0)
    4fc0:	45a1                	li	a1,8
    4fc2:	7c1010ef          	jal	ra,6f82 <GPIO_ResetBits>
    4fc6:	4008                	lw	a0,0(s0)
    4fc8:	45c1                	li	a1,16
    4fca:	7b9010ef          	jal	ra,6f82 <GPIO_ResetBits>
    4fce:	4505                	li	a0,1
    4fd0:	f4fff0ef          	jal	ra,4f1e <Get_ADC_Val>
    4fd4:	92a19123          	sh	a0,-1758(gp) # 20000442 <pot1Val>
    4fd8:	4008                	lw	a0,0(s0)
    4fda:	45a1                	li	a1,8
    4fdc:	7a7010ef          	jal	ra,6f82 <GPIO_ResetBits>
    4fe0:	4008                	lw	a0,0(s0)
    4fe2:	45c1                	li	a1,16
    4fe4:	79b010ef          	jal	ra,6f7e <GPIO_SetBits>
    4fe8:	4505                	li	a0,1
    4fea:	f35ff0ef          	jal	ra,4f1e <Get_ADC_Val>
    4fee:	92a19323          	sh	a0,-1754(gp) # 20000446 <pot2Val>
    4ff2:	4008                	lw	a0,0(s0)
    4ff4:	45a1                	li	a1,8
    4ff6:	789010ef          	jal	ra,6f7e <GPIO_SetBits>
    4ffa:	4008                	lw	a0,0(s0)
    4ffc:	45c1                	li	a1,16
    4ffe:	781010ef          	jal	ra,6f7e <GPIO_SetBits>
    5002:	4505                	li	a0,1
    5004:	f1bff0ef          	jal	ra,4f1e <Get_ADC_Val>
    5008:	92a19523          	sh	a0,-1750(gp) # 2000044a <pot3Val>
    500c:	4008                	lw	a0,0(s0)
    500e:	45a1                	li	a1,8
    5010:	76f010ef          	jal	ra,6f7e <GPIO_SetBits>
    5014:	4008                	lw	a0,0(s0)
    5016:	45c1                	li	a1,16
    5018:	76b010ef          	jal	ra,6f82 <GPIO_ResetBits>
    501c:	4505                	li	a0,1
    501e:	f01ff0ef          	jal	ra,4f1e <Get_ADC_Val>
    5022:	92a19723          	sh	a0,-1746(gp) # 2000044e <pot4Val>
    5026:	be0fb06f          	j	406 <__riscv_restore_0>

0000502a <Inputs_Init>:
    502a:	bb8fb2ef          	jal	t0,3e2 <__riscv_save_0>
    502e:	1141                	addi	sp,sp,-16
    5030:	4585                	li	a1,1
    5032:	02000513          	li	a0,32
    5036:	81418413          	addi	s0,gp,-2028 # 20000334 <PORT_GPIO>
    503a:	c202                	sw	zero,4(sp)
    503c:	c402                	sw	zero,8(sp)
    503e:	c602                	sw	zero,12(sp)
    5040:	140020ef          	jal	ra,7180 <RCC_APB2PeriphClockCmd>
    5044:	4008                	lw	a0,0(s0)
    5046:	4489                	li	s1,2
    5048:	47a1                	li	a5,8
    504a:	4941                	li	s2,16
    504c:	004c                	addi	a1,sp,4
    504e:	827c                	sh	a5,4(sp)
    5050:	c426                	sw	s1,8(sp)
    5052:	c64a                	sw	s2,12(sp)
    5054:	661010ef          	jal	ra,6eb4 <GPIO_Init>
    5058:	4585                	li	a1,1
    505a:	02000513          	li	a0,32
    505e:	122020ef          	jal	ra,7180 <RCC_APB2PeriphClockCmd>
    5062:	4008                	lw	a0,0(s0)
    5064:	004c                	addi	a1,sp,4
    5066:	01211223          	sh	s2,4(sp)
    506a:	c426                	sw	s1,8(sp)
    506c:	c64a                	sw	s2,12(sp)
    506e:	647010ef          	jal	ra,6eb4 <GPIO_Init>
    5072:	4585                	li	a1,1
    5074:	02000513          	li	a0,32
    5078:	108020ef          	jal	ra,7180 <RCC_APB2PeriphClockCmd>
    507c:	4008                	lw	a0,0(s0)
    507e:	02000793          	li	a5,32
    5082:	004c                	addi	a1,sp,4
    5084:	827c                	sh	a5,4(sp)
    5086:	c426                	sw	s1,8(sp)
    5088:	c64a                	sw	s2,12(sp)
    508a:	62b010ef          	jal	ra,6eb4 <GPIO_Init>
    508e:	4585                	li	a1,1
    5090:	02000513          	li	a0,32
    5094:	0ec020ef          	jal	ra,7180 <RCC_APB2PeriphClockCmd>
    5098:	4008                	lw	a0,0(s0)
    509a:	04800913          	li	s2,72
    509e:	004c                	addi	a1,sp,4
    50a0:	8264                	sh	s1,4(sp)
    50a2:	c426                	sw	s1,8(sp)
    50a4:	c64a                	sw	s2,12(sp)
    50a6:	60f010ef          	jal	ra,6eb4 <GPIO_Init>
    50aa:	4585                	li	a1,1
    50ac:	02000513          	li	a0,32
    50b0:	0d0020ef          	jal	ra,7180 <RCC_APB2PeriphClockCmd>
    50b4:	4008                	lw	a0,0(s0)
    50b6:	004c                	addi	a1,sp,4
    50b8:	4791                	li	a5,4
    50ba:	827c                	sh	a5,4(sp)
    50bc:	c426                	sw	s1,8(sp)
    50be:	c64a                	sw	s2,12(sp)
    50c0:	5f5010ef          	jal	ra,6eb4 <GPIO_Init>
    50c4:	000057b7          	lui	a5,0x5
    50c8:	f9878793          	addi	a5,a5,-104 # 4f98 <Generic_Input_Interrupt>
    50cc:	90f1a823          	sw	a5,-1776(gp) # 20000430 <Pot1_Interrupt_Handler>
    50d0:	90f1aa23          	sw	a5,-1772(gp) # 20000434 <Pot2_Interrupt_Handler>
    50d4:	90f1ac23          	sw	a5,-1768(gp) # 20000438 <Pot3_Interrupt_Handler>
    50d8:	90f1ae23          	sw	a5,-1764(gp) # 2000043c <Pot4_Interrupt_Handler>
    50dc:	90f1a423          	sw	a5,-1784(gp) # 20000428 <Button_Left_Interrupt_Handler>
    50e0:	90f1a623          	sw	a5,-1780(gp) # 2000042c <Button_Right_Interrupt_Handler>
    50e4:	ec9ff0ef          	jal	ra,4fac <Read_Potentiometers>
    50e8:	9221d703          	lhu	a4,-1758(gp) # 20000442 <pot1Val>
    50ec:	92e19023          	sh	a4,-1760(gp) # 20000440 <pot1PrevVal>
    50f0:	9261d703          	lhu	a4,-1754(gp) # 20000446 <pot2Val>
    50f4:	92e19223          	sh	a4,-1756(gp) # 20000444 <pot2PrevVal>
    50f8:	92a1d703          	lhu	a4,-1750(gp) # 2000044a <pot3Val>
    50fc:	92e19423          	sh	a4,-1752(gp) # 20000448 <pot3PrevVal>
    5100:	92e1d703          	lhu	a4,-1746(gp) # 2000044e <pot4Val>
    5104:	92e19623          	sh	a4,-1748(gp) # 2000044c <pot4PrevVal>
    5108:	0141                	addi	sp,sp,16
    510a:	afcfb06f          	j	406 <__riscv_restore_0>

0000510e <Read_Buttons>:
    510e:	ad4fb2ef          	jal	t0,3e2 <__riscv_save_0>
    5112:	81418413          	addi	s0,gp,-2028 # 20000334 <PORT_GPIO>
    5116:	4008                	lw	a0,0(s0)
    5118:	4589                	li	a1,2
    511a:	65b010ef          	jal	ra,6f74 <GPIO_ReadInputDataBit>
    511e:	80a18c23          	sb	a0,-2024(gp) # 20000338 <buttonLeft>
    5122:	4008                	lw	a0,0(s0)
    5124:	4591                	li	a1,4
    5126:	64f010ef          	jal	ra,6f74 <GPIO_ReadInputDataBit>
    512a:	80a18d23          	sb	a0,-2022(gp) # 2000033a <buttonRight>
    512e:	ad8fb06f          	j	406 <__riscv_restore_0>

00005132 <Poll_Inputs>:
    5132:	a96fb2ef          	jal	t0,3c8 <__riscv_save_4>
    5136:	e77ff0ef          	jal	ra,4fac <Read_Potentiometers>
    513a:	9221d583          	lhu	a1,-1758(gp) # 20000442 <pot1Val>
    513e:	9201d683          	lhu	a3,-1760(gp) # 20000440 <pot1PrevVal>
    5142:	4665                	li	a2,25
    5144:	92218493          	addi	s1,gp,-1758 # 20000442 <pot1Val>
    5148:	40d58533          	sub	a0,a1,a3
    514c:	92018413          	addi	s0,gp,-1760 # 20000440 <pot1PrevVal>
    5150:	00a64563          	blt	a2,a0,515a <Poll_Inputs+0x28>
    5154:	8e8d                	sub	a3,a3,a1
    5156:	00d65763          	bge	a2,a3,5164 <Poll_Inputs+0x32>
    515a:	9101a783          	lw	a5,-1776(gp) # 20000430 <Pot1_Interrupt_Handler>
    515e:	9782                	jalr	a5
    5160:	209e                	lhu	a5,0(s1)
    5162:	a01e                	sh	a5,0(s0)
    5164:	9261d583          	lhu	a1,-1754(gp) # 20000446 <pot2Val>
    5168:	9241d683          	lhu	a3,-1756(gp) # 20000444 <pot2PrevVal>
    516c:	4665                	li	a2,25
    516e:	92618493          	addi	s1,gp,-1754 # 20000446 <pot2Val>
    5172:	40d58533          	sub	a0,a1,a3
    5176:	92418413          	addi	s0,gp,-1756 # 20000444 <pot2PrevVal>
    517a:	00a64563          	blt	a2,a0,5184 <Poll_Inputs+0x52>
    517e:	8e8d                	sub	a3,a3,a1
    5180:	00d65763          	bge	a2,a3,518e <Poll_Inputs+0x5c>
    5184:	9141a783          	lw	a5,-1772(gp) # 20000434 <Pot2_Interrupt_Handler>
    5188:	9782                	jalr	a5
    518a:	209e                	lhu	a5,0(s1)
    518c:	a01e                	sh	a5,0(s0)
    518e:	92a1d583          	lhu	a1,-1750(gp) # 2000044a <pot3Val>
    5192:	9281d683          	lhu	a3,-1752(gp) # 20000448 <pot3PrevVal>
    5196:	4665                	li	a2,25
    5198:	92a18493          	addi	s1,gp,-1750 # 2000044a <pot3Val>
    519c:	40d58533          	sub	a0,a1,a3
    51a0:	92818413          	addi	s0,gp,-1752 # 20000448 <pot3PrevVal>
    51a4:	00a64563          	blt	a2,a0,51ae <Poll_Inputs+0x7c>
    51a8:	8e8d                	sub	a3,a3,a1
    51aa:	00d65763          	bge	a2,a3,51b8 <Poll_Inputs+0x86>
    51ae:	9181a783          	lw	a5,-1768(gp) # 20000438 <Pot3_Interrupt_Handler>
    51b2:	9782                	jalr	a5
    51b4:	209e                	lhu	a5,0(s1)
    51b6:	a01e                	sh	a5,0(s0)
    51b8:	92e1d583          	lhu	a1,-1746(gp) # 2000044e <pot4Val>
    51bc:	92c1d683          	lhu	a3,-1748(gp) # 2000044c <pot4PrevVal>
    51c0:	4665                	li	a2,25
    51c2:	92e18493          	addi	s1,gp,-1746 # 2000044e <pot4Val>
    51c6:	40d58533          	sub	a0,a1,a3
    51ca:	92c18413          	addi	s0,gp,-1748 # 2000044c <pot4PrevVal>
    51ce:	00a64563          	blt	a2,a0,51d8 <Poll_Inputs+0xa6>
    51d2:	8e8d                	sub	a3,a3,a1
    51d4:	00d65763          	bge	a2,a3,51e2 <Poll_Inputs+0xb0>
    51d8:	91c1a783          	lw	a5,-1764(gp) # 2000043c <Pot4_Interrupt_Handler>
    51dc:	9782                	jalr	a5
    51de:	209e                	lhu	a5,0(s1)
    51e0:	a01e                	sh	a5,0(s0)
    51e2:	f2dff0ef          	jal	ra,510e <Read_Buttons>
    51e6:	8191c683          	lbu	a3,-2023(gp) # 20000339 <buttonLeftPrev>
    51ea:	4705                	li	a4,1
    51ec:	81918993          	addi	s3,gp,-2023 # 20000339 <buttonLeftPrev>
    51f0:	81818913          	addi	s2,gp,-2024 # 20000338 <buttonLeft>
    51f4:	00e69863          	bne	a3,a4,5204 <Poll_Inputs+0xd2>
    51f8:	00094783          	lbu	a5,0(s2)
    51fc:	e781                	bnez	a5,5204 <Poll_Inputs+0xd2>
    51fe:	9081a783          	lw	a5,-1784(gp) # 20000428 <Button_Left_Interrupt_Handler>
    5202:	9782                	jalr	a5
    5204:	81b1c683          	lbu	a3,-2021(gp) # 2000033b <buttonRightPrev>
    5208:	4705                	li	a4,1
    520a:	81b18413          	addi	s0,gp,-2021 # 2000033b <buttonRightPrev>
    520e:	81a18493          	addi	s1,gp,-2022 # 2000033a <buttonRight>
    5212:	00e69763          	bne	a3,a4,5220 <Poll_Inputs+0xee>
    5216:	209c                	lbu	a5,0(s1)
    5218:	e781                	bnez	a5,5220 <Poll_Inputs+0xee>
    521a:	90c1a783          	lw	a5,-1780(gp) # 2000042c <Button_Right_Interrupt_Handler>
    521e:	9782                	jalr	a5
    5220:	00094783          	lbu	a5,0(s2)
    5224:	00f98023          	sb	a5,0(s3)
    5228:	209c                	lbu	a5,0(s1)
    522a:	a01c                	sb	a5,0(s0)
    522c:	9d0fb06f          	j	3fc <__riscv_restore_4>

00005230 <Read_Potentiometers_Debug>:
    5230:	9b2fb2ef          	jal	t0,3e2 <__riscv_save_0>
    5234:	d79ff0ef          	jal	ra,4fac <Read_Potentiometers>
    5238:	9221d583          	lhu	a1,-1758(gp) # 20000442 <pot1Val>
    523c:	0000d537          	lui	a0,0xd
    5240:	89050513          	addi	a0,a0,-1904 # c890 <Font7x10+0x7ec>
    5244:	7e6030ef          	jal	ra,8a2a <iprintf>
    5248:	9261d583          	lhu	a1,-1754(gp) # 20000446 <pot2Val>
    524c:	0000d537          	lui	a0,0xd
    5250:	8a850513          	addi	a0,a0,-1880 # c8a8 <Font7x10+0x804>
    5254:	7d6030ef          	jal	ra,8a2a <iprintf>
    5258:	92a1d583          	lhu	a1,-1750(gp) # 2000044a <pot3Val>
    525c:	0000d537          	lui	a0,0xd
    5260:	8c050513          	addi	a0,a0,-1856 # c8c0 <Font7x10+0x81c>
    5264:	7c6030ef          	jal	ra,8a2a <iprintf>
    5268:	92e1d583          	lhu	a1,-1746(gp) # 2000044e <pot4Val>
    526c:	0000d537          	lui	a0,0xd
    5270:	8d850513          	addi	a0,a0,-1832 # c8d8 <Font7x10+0x834>
    5274:	7b6030ef          	jal	ra,8a2a <iprintf>
    5278:	98efb06f          	j	406 <__riscv_restore_0>

0000527c <Read_Buttons_Debug>:
    527c:	966fb2ef          	jal	t0,3e2 <__riscv_save_0>
    5280:	8181c583          	lbu	a1,-2024(gp) # 20000338 <buttonLeft>
    5284:	0000d537          	lui	a0,0xd
    5288:	85c50513          	addi	a0,a0,-1956 # c85c <Font7x10+0x7b8>
    528c:	79e030ef          	jal	ra,8a2a <iprintf>
    5290:	81a1c583          	lbu	a1,-2022(gp) # 2000033a <buttonRight>
    5294:	0000d537          	lui	a0,0xd
    5298:	87450513          	addi	a0,a0,-1932 # c874 <Font7x10+0x7d0>
    529c:	78e030ef          	jal	ra,8a2a <iprintf>
    52a0:	966fb06f          	j	406 <__riscv_restore_0>

000052a4 <Do_Nothing>:
    52a4:	8082                	ret

000052a6 <Slider_Draw>:
    52a6:	914fb2ef          	jal	t0,3ba <__riscv_save_10>
    52aa:	1101                	addi	sp,sp,-32
    52ac:	89aa                	mv	s3,a0
    52ae:	8a2e                	mv	s4,a1
    52b0:	8532                	mv	a0,a2
    52b2:	85b6                	mv	a1,a3
    52b4:	4641                	li	a2,16
    52b6:	84b6                	mv	s1,a3
    52b8:	ca5ff0ef          	jal	ra,4f5c <Clamp>
    52bc:	0078                	addi	a4,sp,12
    52be:	8baa                	mv	s7,a0
    52c0:	0ff57593          	andi	a1,a0,255
    52c4:	4781                	li	a5,0
    52c6:	8aba                	mv	s5,a4
    52c8:	07800613          	li	a2,120
    52cc:	46c1                	li	a3,16
    52ce:	0785                	addi	a5,a5,1
    52d0:	a310                	sb	a2,0(a4)
    52d2:	0ff7f793          	andi	a5,a5,255
    52d6:	00d78563          	beq	a5,a3,52e0 <Slider_Draw+0x3a>
    52da:	0705                	addi	a4,a4,1
    52dc:	fef5f9e3          	bgeu	a1,a5,52ce <Slider_Draw+0x28>
    52e0:	20000437          	lui	s0,0x20000
    52e4:	1018                	addi	a4,sp,32
    52e6:	97ba                	add	a5,a5,a4
    52e8:	32840713          	addi	a4,s0,808 # 20000328 <Font_7x10>
    52ec:	3310                	lbu	a2,1(a4)
    52ee:	fe078623          	sb	zero,-20(a5)
    52f2:	32844783          	lbu	a5,808(s0)
    52f6:	46c5                	li	a3,17
    52f8:	02d606b3          	mul	a3,a2,a3
    52fc:	460d                	li	a2,3
    52fe:	40f98533          	sub	a0,s3,a5
    5302:	0542                	slli	a0,a0,0x10
    5304:	85d2                	mv	a1,s4
    5306:	8141                	srli	a0,a0,0x10
    5308:	4701                	li	a4,0
    530a:	32840913          	addi	s2,s0,808
    530e:	02c78633          	mul	a2,a5,a2
    5312:	913ff0ef          	jal	ra,4c24 <ILI9341_FillRectangle>
    5316:	4789                	li	a5,2
    5318:	32844503          	lbu	a0,808(s0)
    531c:	00194583          	lbu	a1,1(s2)
    5320:	0cf48363          	beq	s1,a5,53e6 <Slider_Draw+0x140>
    5324:	40a98533          	sub	a0,s3,a0
    5328:	01051b13          	slli	s6,a0,0x10
    532c:	0ffbf513          	andi	a0,s7,255
    5330:	00459493          	slli	s1,a1,0x4
    5334:	4629                	li	a2,10
    5336:	002c                	addi	a1,sp,8
    5338:	0505                	addi	a0,a0,1
    533a:	616030ef          	jal	ra,8950 <itoa>
    533e:	94d2                	add	s1,s1,s4
    5340:	04c2                	slli	s1,s1,0x10
    5342:	32842683          	lw	a3,808(s0)
    5346:	00492703          	lw	a4,4(s2)
    534a:	010b5b13          	srli	s6,s6,0x10
    534e:	80c1                	srli	s1,s1,0x10
    5350:	862a                	mv	a2,a0
    5352:	40000813          	li	a6,1024
    5356:	4781                	li	a5,0
    5358:	85a6                	mv	a1,s1
    535a:	855a                	mv	a0,s6
    535c:	f9aff0ef          	jal	ra,4af6 <ILI9341_WriteString>
    5360:	00194583          	lbu	a1,1(s2)
    5364:	44bd                	li	s1,15
    5366:	32844503          	lbu	a0,808(s0)
    536a:	029585b3          	mul	a1,a1,s1
    536e:	32842683          	lw	a3,808(s0)
    5372:	00492703          	lw	a4,4(s2)
    5376:	40a98533          	sub	a0,s3,a0
    537a:	0542                	slli	a0,a0,0x10
    537c:	8656                	mv	a2,s5
    537e:	4801                	li	a6,0
    5380:	40000793          	li	a5,1024
    5384:	8141                	srli	a0,a0,0x10
    5386:	95d2                	add	a1,a1,s4
    5388:	05c2                	slli	a1,a1,0x10
    538a:	81c1                	srli	a1,a1,0x10
    538c:	803ff0ef          	jal	ra,4b8e <ILI9341_WriteString_Horizontal_Backwards>
    5390:	00194583          	lbu	a1,1(s2)
    5394:	32842683          	lw	a3,808(s0)
    5398:	00492703          	lw	a4,4(s2)
    539c:	029585b3          	mul	a1,a1,s1
    53a0:	8656                	mv	a2,s5
    53a2:	854e                	mv	a0,s3
    53a4:	4801                	li	a6,0
    53a6:	40000793          	li	a5,1024
    53aa:	95d2                	add	a1,a1,s4
    53ac:	05c2                	slli	a1,a1,0x10
    53ae:	81c1                	srli	a1,a1,0x10
    53b0:	fdeff0ef          	jal	ra,4b8e <ILI9341_WriteString_Horizontal_Backwards>
    53b4:	00194583          	lbu	a1,1(s2)
    53b8:	32844503          	lbu	a0,808(s0)
    53bc:	32842683          	lw	a3,808(s0)
    53c0:	029585b3          	mul	a1,a1,s1
    53c4:	954e                	add	a0,a0,s3
    53c6:	00492703          	lw	a4,4(s2)
    53ca:	0542                	slli	a0,a0,0x10
    53cc:	4801                	li	a6,0
    53ce:	40000793          	li	a5,1024
    53d2:	8656                	mv	a2,s5
    53d4:	8141                	srli	a0,a0,0x10
    53d6:	95d2                	add	a1,a1,s4
    53d8:	05c2                	slli	a1,a1,0x10
    53da:	81c1                	srli	a1,a1,0x10
    53dc:	fb2ff0ef          	jal	ra,4b8e <ILI9341_WriteString_Horizontal_Backwards>
    53e0:	6105                	addi	sp,sp,32
    53e2:	810fb06f          	j	3f2 <__riscv_restore_10>
    53e6:	0592                	slli	a1,a1,0x4
    53e8:	95d2                	add	a1,a1,s4
    53ea:	40a98533          	sub	a0,s3,a0
    53ee:	0000d637          	lui	a2,0xd
    53f2:	05c2                	slli	a1,a1,0x10
    53f4:	0542                	slli	a0,a0,0x10
    53f6:	40000813          	li	a6,1024
    53fa:	4781                	li	a5,0
    53fc:	32842683          	lw	a3,808(s0)
    5400:	00492703          	lw	a4,4(s2)
    5404:	8f060613          	addi	a2,a2,-1808 # c8f0 <Font7x10+0x84c>
    5408:	81c1                	srli	a1,a1,0x10
    540a:	8141                	srli	a0,a0,0x10
    540c:	bf81                	j	535c <Slider_Draw+0xb6>

0000540e <Initialize_Menu>:
    540e:	200027b7          	lui	a5,0x20002
    5412:	9f878793          	addi	a5,a5,-1544 # 200019f8 <Main_Menu>
    5416:	00005737          	lui	a4,0x5
    541a:	0e078693          	addi	a3,a5,224
    541e:	2a470713          	addi	a4,a4,676 # 52a4 <Do_Nothing>
    5422:	c398                	sw	a4,0(a5)
    5424:	c3d8                	sw	a4,4(a5)
    5426:	c798                	sw	a4,8(a5)
    5428:	c7d8                	sw	a4,12(a5)
    542a:	cb98                	sw	a4,16(a5)
    542c:	cbd8                	sw	a4,20(a5)
    542e:	cf98                	sw	a4,24(a5)
    5430:	cfd8                	sw	a4,28(a5)
    5432:	02078793          	addi	a5,a5,32
    5436:	fed796e3          	bne	a5,a3,5422 <Initialize_Menu+0x14>
    543a:	8082                	ret

0000543c <NMI_Handler>:
    543c:	34011173          	csrrw	sp,mscratch,sp
    5440:	cf6fb0ef          	jal	ra,936 <rt_interrupt_enter>
    5444:	0000d537          	lui	a0,0xd
    5448:	90450513          	addi	a0,a0,-1788 # c904 <Font7x10+0x860>
    544c:	ba3fb0ef          	jal	ra,fee <rt_kprintf>
    5450:	d12fb0ef          	jal	ra,962 <rt_interrupt_leave>
    5454:	34011173          	csrrw	sp,mscratch,sp
    5458:	30200073          	mret

0000545c <HardFault_Handler>:
    545c:	34011173          	csrrw	sp,mscratch,sp
    5460:	cd6fb0ef          	jal	ra,936 <rt_interrupt_enter>
    5464:	0000d537          	lui	a0,0xd
    5468:	8f850513          	addi	a0,a0,-1800 # c8f8 <Font7x10+0x854>
    546c:	b83fb0ef          	jal	ra,fee <rt_kprintf>
    5470:	cf2fb0ef          	jal	ra,962 <rt_interrupt_leave>
    5474:	34011173          	csrrw	sp,mscratch,sp
    5478:	30200073          	mret

0000547c <Draw_Operator1_Attack>:
    547c:	f67fa2ef          	jal	t0,3e2 <__riscv_save_0>
    5480:	20000937          	lui	s2,0x20000
    5484:	32890413          	addi	s0,s2,808 # 20000328 <Font_7x10>
    5488:	3004                	lbu	s1,1(s0)
    548a:	4581                	li	a1,0
    548c:	4501                	li	a0,0
    548e:	bf1fe0ef          	jal	ra,407e <getAttack>
    5492:	03248493          	addi	s1,s1,50
    5496:	01051613          	slli	a2,a0,0x10
    549a:	85a6                	mv	a1,s1
    549c:	46c1                	li	a3,16
    549e:	8241                	srli	a2,a2,0x10
    54a0:	02800513          	li	a0,40
    54a4:	e03ff0ef          	jal	ra,52a6 <Slider_Draw>
    54a8:	301c                	lbu	a5,1(s0)
    54aa:	03200593          	li	a1,50
    54ae:	32892683          	lw	a3,808(s2)
    54b2:	8d9d                	sub	a1,a1,a5
    54b4:	4058                	lw	a4,4(s0)
    54b6:	0000d637          	lui	a2,0xd
    54ba:	05c2                	slli	a1,a1,0x10
    54bc:	4801                	li	a6,0
    54be:	7e000793          	li	a5,2016
    54c2:	94460613          	addi	a2,a2,-1724 # c944 <Font7x10+0x8a0>
    54c6:	81c1                	srli	a1,a1,0x10
    54c8:	4501                	li	a0,0
    54ca:	e2cff0ef          	jal	ra,4af6 <ILI9341_WriteString>
    54ce:	f39fa06f          	j	406 <__riscv_restore_0>

000054d2 <Draw_Operator2_Attack>:
    54d2:	f11fa2ef          	jal	t0,3e2 <__riscv_save_0>
    54d6:	20000937          	lui	s2,0x20000
    54da:	32890413          	addi	s0,s2,808 # 20000328 <Font_7x10>
    54de:	3004                	lbu	s1,1(s0)
    54e0:	4585                	li	a1,1
    54e2:	4501                	li	a0,0
    54e4:	b9bfe0ef          	jal	ra,407e <getAttack>
    54e8:	03248493          	addi	s1,s1,50
    54ec:	01051613          	slli	a2,a0,0x10
    54f0:	85a6                	mv	a1,s1
    54f2:	46c1                	li	a3,16
    54f4:	8241                	srli	a2,a2,0x10
    54f6:	02800513          	li	a0,40
    54fa:	dadff0ef          	jal	ra,52a6 <Slider_Draw>
    54fe:	301c                	lbu	a5,1(s0)
    5500:	03200593          	li	a1,50
    5504:	32892683          	lw	a3,808(s2)
    5508:	8d9d                	sub	a1,a1,a5
    550a:	4058                	lw	a4,4(s0)
    550c:	0000d637          	lui	a2,0xd
    5510:	05c2                	slli	a1,a1,0x10
    5512:	4801                	li	a6,0
    5514:	7e000793          	li	a5,2016
    5518:	9c860613          	addi	a2,a2,-1592 # c9c8 <Font7x10+0x924>
    551c:	81c1                	srli	a1,a1,0x10
    551e:	4501                	li	a0,0
    5520:	dd6ff0ef          	jal	ra,4af6 <ILI9341_WriteString>
    5524:	ee3fa06f          	j	406 <__riscv_restore_0>

00005528 <Change_Operator1_Attack>:
    5528:	ebbfa2ef          	jal	t0,3e2 <__riscv_save_0>
    552c:	9221d503          	lhu	a0,-1758(gp) # 20000442 <pot1Val>
    5530:	4641                	li	a2,16
    5532:	6585                	lui	a1,0x1
    5534:	a29ff0ef          	jal	ra,4f5c <Clamp>
    5538:	0ff57913          	andi	s2,a0,255
    553c:	4401                	li	s0,0
    553e:	44a5                	li	s1,9
    5540:	8522                	mv	a0,s0
    5542:	0405                	addi	s0,s0,1
    5544:	864a                	mv	a2,s2
    5546:	4581                	li	a1,0
    5548:	0ff47413          	andi	s0,s0,255
    554c:	b4dfe0ef          	jal	ra,4098 <setAttack>
    5550:	fe9418e3          	bne	s0,s1,5540 <Change_Operator1_Attack+0x18>
    5554:	f29ff0ef          	jal	ra,547c <Draw_Operator1_Attack>
    5558:	eaffa06f          	j	406 <__riscv_restore_0>

0000555c <Change_Operator2_Attack>:
    555c:	e87fa2ef          	jal	t0,3e2 <__riscv_save_0>
    5560:	9221d503          	lhu	a0,-1758(gp) # 20000442 <pot1Val>
    5564:	4641                	li	a2,16
    5566:	6585                	lui	a1,0x1
    5568:	9f5ff0ef          	jal	ra,4f5c <Clamp>
    556c:	0ff57913          	andi	s2,a0,255
    5570:	4401                	li	s0,0
    5572:	44a5                	li	s1,9
    5574:	8522                	mv	a0,s0
    5576:	0405                	addi	s0,s0,1
    5578:	864a                	mv	a2,s2
    557a:	4585                	li	a1,1
    557c:	0ff47413          	andi	s0,s0,255
    5580:	b19fe0ef          	jal	ra,4098 <setAttack>
    5584:	fe9418e3          	bne	s0,s1,5574 <Change_Operator2_Attack+0x18>
    5588:	f4bff0ef          	jal	ra,54d2 <Draw_Operator2_Attack>
    558c:	e7bfa06f          	j	406 <__riscv_restore_0>

00005590 <Draw_Operator1_Decay>:
    5590:	e53fa2ef          	jal	t0,3e2 <__riscv_save_0>
    5594:	20000937          	lui	s2,0x20000
    5598:	32890413          	addi	s0,s2,808 # 20000328 <Font_7x10>
    559c:	3004                	lbu	s1,1(s0)
    559e:	4581                	li	a1,0
    55a0:	4501                	li	a0,0
    55a2:	b27fe0ef          	jal	ra,40c8 <getDecay>
    55a6:	03248493          	addi	s1,s1,50
    55aa:	01051613          	slli	a2,a0,0x10
    55ae:	85a6                	mv	a1,s1
    55b0:	46c1                	li	a3,16
    55b2:	8241                	srli	a2,a2,0x10
    55b4:	07800513          	li	a0,120
    55b8:	cefff0ef          	jal	ra,52a6 <Slider_Draw>
    55bc:	301c                	lbu	a5,1(s0)
    55be:	03200593          	li	a1,50
    55c2:	32892683          	lw	a3,808(s2)
    55c6:	8d9d                	sub	a1,a1,a5
    55c8:	4058                	lw	a4,4(s0)
    55ca:	0000d637          	lui	a2,0xd
    55ce:	05c2                	slli	a1,a1,0x10
    55d0:	4801                	li	a6,0
    55d2:	7e000793          	li	a5,2016
    55d6:	95060613          	addi	a2,a2,-1712 # c950 <Font7x10+0x8ac>
    55da:	81c1                	srli	a1,a1,0x10
    55dc:	05000513          	li	a0,80
    55e0:	d16ff0ef          	jal	ra,4af6 <ILI9341_WriteString>
    55e4:	e23fa06f          	j	406 <__riscv_restore_0>

000055e8 <Draw_Operator2_Decay>:
    55e8:	dfbfa2ef          	jal	t0,3e2 <__riscv_save_0>
    55ec:	20000937          	lui	s2,0x20000
    55f0:	32890413          	addi	s0,s2,808 # 20000328 <Font_7x10>
    55f4:	3004                	lbu	s1,1(s0)
    55f6:	4585                	li	a1,1
    55f8:	4501                	li	a0,0
    55fa:	acffe0ef          	jal	ra,40c8 <getDecay>
    55fe:	03248493          	addi	s1,s1,50
    5602:	01051613          	slli	a2,a0,0x10
    5606:	85a6                	mv	a1,s1
    5608:	46c1                	li	a3,16
    560a:	8241                	srli	a2,a2,0x10
    560c:	07800513          	li	a0,120
    5610:	c97ff0ef          	jal	ra,52a6 <Slider_Draw>
    5614:	301c                	lbu	a5,1(s0)
    5616:	03200593          	li	a1,50
    561a:	32892683          	lw	a3,808(s2)
    561e:	8d9d                	sub	a1,a1,a5
    5620:	4058                	lw	a4,4(s0)
    5622:	0000d637          	lui	a2,0xd
    5626:	05c2                	slli	a1,a1,0x10
    5628:	4801                	li	a6,0
    562a:	7e000793          	li	a5,2016
    562e:	9d460613          	addi	a2,a2,-1580 # c9d4 <Font7x10+0x930>
    5632:	81c1                	srli	a1,a1,0x10
    5634:	05000513          	li	a0,80
    5638:	cbeff0ef          	jal	ra,4af6 <ILI9341_WriteString>
    563c:	dcbfa06f          	j	406 <__riscv_restore_0>

00005640 <Change_Operator1_Decay>:
    5640:	da3fa2ef          	jal	t0,3e2 <__riscv_save_0>
    5644:	9261d503          	lhu	a0,-1754(gp) # 20000446 <pot2Val>
    5648:	4641                	li	a2,16
    564a:	6585                	lui	a1,0x1
    564c:	911ff0ef          	jal	ra,4f5c <Clamp>
    5650:	0ff57913          	andi	s2,a0,255
    5654:	4401                	li	s0,0
    5656:	44a5                	li	s1,9
    5658:	8522                	mv	a0,s0
    565a:	0405                	addi	s0,s0,1
    565c:	864a                	mv	a2,s2
    565e:	4581                	li	a1,0
    5660:	0ff47413          	andi	s0,s0,255
    5664:	a7bfe0ef          	jal	ra,40de <setDecay>
    5668:	fe9418e3          	bne	s0,s1,5658 <Change_Operator1_Decay+0x18>
    566c:	f25ff0ef          	jal	ra,5590 <Draw_Operator1_Decay>
    5670:	d97fa06f          	j	406 <__riscv_restore_0>

00005674 <Change_Operator2_Decay>:
    5674:	d6ffa2ef          	jal	t0,3e2 <__riscv_save_0>
    5678:	9261d503          	lhu	a0,-1754(gp) # 20000446 <pot2Val>
    567c:	4641                	li	a2,16
    567e:	6585                	lui	a1,0x1
    5680:	8ddff0ef          	jal	ra,4f5c <Clamp>
    5684:	0ff57913          	andi	s2,a0,255
    5688:	4401                	li	s0,0
    568a:	44a5                	li	s1,9
    568c:	8522                	mv	a0,s0
    568e:	0405                	addi	s0,s0,1
    5690:	864a                	mv	a2,s2
    5692:	4585                	li	a1,1
    5694:	0ff47413          	andi	s0,s0,255
    5698:	a47fe0ef          	jal	ra,40de <setDecay>
    569c:	fe9418e3          	bne	s0,s1,568c <Change_Operator2_Decay+0x18>
    56a0:	f49ff0ef          	jal	ra,55e8 <Draw_Operator2_Decay>
    56a4:	d63fa06f          	j	406 <__riscv_restore_0>

000056a8 <Draw_Operator1_Sustain>:
    56a8:	d3bfa2ef          	jal	t0,3e2 <__riscv_save_0>
    56ac:	20000937          	lui	s2,0x20000
    56b0:	32890413          	addi	s0,s2,808 # 20000328 <Font_7x10>
    56b4:	3004                	lbu	s1,1(s0)
    56b6:	4581                	li	a1,0
    56b8:	4501                	li	a0,0
    56ba:	a53fe0ef          	jal	ra,410c <getSustain>
    56be:	03248493          	addi	s1,s1,50
    56c2:	01051613          	slli	a2,a0,0x10
    56c6:	85a6                	mv	a1,s1
    56c8:	46c1                	li	a3,16
    56ca:	8241                	srli	a2,a2,0x10
    56cc:	0c800513          	li	a0,200
    56d0:	bd7ff0ef          	jal	ra,52a6 <Slider_Draw>
    56d4:	301c                	lbu	a5,1(s0)
    56d6:	03200593          	li	a1,50
    56da:	32892683          	lw	a3,808(s2)
    56de:	8d9d                	sub	a1,a1,a5
    56e0:	4058                	lw	a4,4(s0)
    56e2:	0000d637          	lui	a2,0xd
    56e6:	05c2                	slli	a1,a1,0x10
    56e8:	4801                	li	a6,0
    56ea:	7e000793          	li	a5,2016
    56ee:	99860613          	addi	a2,a2,-1640 # c998 <Font7x10+0x8f4>
    56f2:	81c1                	srli	a1,a1,0x10
    56f4:	0a000513          	li	a0,160
    56f8:	bfeff0ef          	jal	ra,4af6 <ILI9341_WriteString>
    56fc:	d0bfa06f          	j	406 <__riscv_restore_0>

00005700 <Draw_Operator2_Sustain>:
    5700:	ce3fa2ef          	jal	t0,3e2 <__riscv_save_0>
    5704:	20000937          	lui	s2,0x20000
    5708:	32890413          	addi	s0,s2,808 # 20000328 <Font_7x10>
    570c:	3004                	lbu	s1,1(s0)
    570e:	4585                	li	a1,1
    5710:	4501                	li	a0,0
    5712:	9fbfe0ef          	jal	ra,410c <getSustain>
    5716:	03248493          	addi	s1,s1,50
    571a:	01051613          	slli	a2,a0,0x10
    571e:	85a6                	mv	a1,s1
    5720:	46c1                	li	a3,16
    5722:	8241                	srli	a2,a2,0x10
    5724:	0c800513          	li	a0,200
    5728:	b7fff0ef          	jal	ra,52a6 <Slider_Draw>
    572c:	301c                	lbu	a5,1(s0)
    572e:	03200593          	li	a1,50
    5732:	32892683          	lw	a3,808(s2)
    5736:	8d9d                	sub	a1,a1,a5
    5738:	4058                	lw	a4,4(s0)
    573a:	0000d637          	lui	a2,0xd
    573e:	05c2                	slli	a1,a1,0x10
    5740:	4801                	li	a6,0
    5742:	7e000793          	li	a5,2016
    5746:	a1c60613          	addi	a2,a2,-1508 # ca1c <Font7x10+0x978>
    574a:	81c1                	srli	a1,a1,0x10
    574c:	0a000513          	li	a0,160
    5750:	ba6ff0ef          	jal	ra,4af6 <ILI9341_WriteString>
    5754:	cb3fa06f          	j	406 <__riscv_restore_0>

00005758 <Change_Operator1_Sustain>:
    5758:	c8bfa2ef          	jal	t0,3e2 <__riscv_save_0>
    575c:	92a1d503          	lhu	a0,-1750(gp) # 2000044a <pot3Val>
    5760:	4641                	li	a2,16
    5762:	6585                	lui	a1,0x1
    5764:	ff8ff0ef          	jal	ra,4f5c <Clamp>
    5768:	0ff57913          	andi	s2,a0,255
    576c:	4401                	li	s0,0
    576e:	44a5                	li	s1,9
    5770:	8522                	mv	a0,s0
    5772:	0405                	addi	s0,s0,1
    5774:	864a                	mv	a2,s2
    5776:	4581                	li	a1,0
    5778:	0ff47413          	andi	s0,s0,255
    577c:	9abfe0ef          	jal	ra,4126 <setSustain>
    5780:	fe9418e3          	bne	s0,s1,5770 <Change_Operator1_Sustain+0x18>
    5784:	f25ff0ef          	jal	ra,56a8 <Draw_Operator1_Sustain>
    5788:	c7ffa06f          	j	406 <__riscv_restore_0>

0000578c <Change_Operator2_Sustain>:
    578c:	c57fa2ef          	jal	t0,3e2 <__riscv_save_0>
    5790:	92a1d503          	lhu	a0,-1750(gp) # 2000044a <pot3Val>
    5794:	4641                	li	a2,16
    5796:	6585                	lui	a1,0x1
    5798:	fc4ff0ef          	jal	ra,4f5c <Clamp>
    579c:	0ff57913          	andi	s2,a0,255
    57a0:	4401                	li	s0,0
    57a2:	44a5                	li	s1,9
    57a4:	8522                	mv	a0,s0
    57a6:	0405                	addi	s0,s0,1
    57a8:	864a                	mv	a2,s2
    57aa:	4585                	li	a1,1
    57ac:	0ff47413          	andi	s0,s0,255
    57b0:	977fe0ef          	jal	ra,4126 <setSustain>
    57b4:	fe9418e3          	bne	s0,s1,57a4 <Change_Operator2_Sustain+0x18>
    57b8:	f49ff0ef          	jal	ra,5700 <Draw_Operator2_Sustain>
    57bc:	c4bfa06f          	j	406 <__riscv_restore_0>

000057c0 <Draw_Operator1_Release>:
    57c0:	c23fa2ef          	jal	t0,3e2 <__riscv_save_0>
    57c4:	20000937          	lui	s2,0x20000
    57c8:	32890413          	addi	s0,s2,808 # 20000328 <Font_7x10>
    57cc:	3004                	lbu	s1,1(s0)
    57ce:	4581                	li	a1,0
    57d0:	4501                	li	a0,0
    57d2:	985fe0ef          	jal	ra,4156 <getRelease>
    57d6:	03248493          	addi	s1,s1,50
    57da:	01051613          	slli	a2,a0,0x10
    57de:	85a6                	mv	a1,s1
    57e0:	46c1                	li	a3,16
    57e2:	8241                	srli	a2,a2,0x10
    57e4:	11800513          	li	a0,280
    57e8:	abfff0ef          	jal	ra,52a6 <Slider_Draw>
    57ec:	301c                	lbu	a5,1(s0)
    57ee:	03200593          	li	a1,50
    57f2:	32892683          	lw	a3,808(s2)
    57f6:	8d9d                	sub	a1,a1,a5
    57f8:	4058                	lw	a4,4(s0)
    57fa:	0000d637          	lui	a2,0xd
    57fe:	05c2                	slli	a1,a1,0x10
    5800:	4801                	li	a6,0
    5802:	7e000793          	li	a5,2016
    5806:	98060613          	addi	a2,a2,-1664 # c980 <Font7x10+0x8dc>
    580a:	81c1                	srli	a1,a1,0x10
    580c:	0f000513          	li	a0,240
    5810:	ae6ff0ef          	jal	ra,4af6 <ILI9341_WriteString>
    5814:	bf3fa06f          	j	406 <__riscv_restore_0>

00005818 <Change_Operator1_Blank>:
    5818:	bcbfa2ef          	jal	t0,3e2 <__riscv_save_0>
    581c:	fa5ff0ef          	jal	ra,57c0 <Draw_Operator1_Release>
    5820:	be7fa06f          	j	406 <__riscv_restore_0>

00005824 <Draw_Operator2_Release>:
    5824:	bbffa2ef          	jal	t0,3e2 <__riscv_save_0>
    5828:	20000937          	lui	s2,0x20000
    582c:	32890413          	addi	s0,s2,808 # 20000328 <Font_7x10>
    5830:	3004                	lbu	s1,1(s0)
    5832:	4585                	li	a1,1
    5834:	4501                	li	a0,0
    5836:	921fe0ef          	jal	ra,4156 <getRelease>
    583a:	03248493          	addi	s1,s1,50
    583e:	01051613          	slli	a2,a0,0x10
    5842:	85a6                	mv	a1,s1
    5844:	46c1                	li	a3,16
    5846:	8241                	srli	a2,a2,0x10
    5848:	11800513          	li	a0,280
    584c:	a5bff0ef          	jal	ra,52a6 <Slider_Draw>
    5850:	301c                	lbu	a5,1(s0)
    5852:	03200593          	li	a1,50
    5856:	32892683          	lw	a3,808(s2)
    585a:	8d9d                	sub	a1,a1,a5
    585c:	4058                	lw	a4,4(s0)
    585e:	0000d637          	lui	a2,0xd
    5862:	05c2                	slli	a1,a1,0x10
    5864:	4801                	li	a6,0
    5866:	7e000793          	li	a5,2016
    586a:	a0460613          	addi	a2,a2,-1532 # ca04 <Font7x10+0x960>
    586e:	81c1                	srli	a1,a1,0x10
    5870:	0f000513          	li	a0,240
    5874:	a82ff0ef          	jal	ra,4af6 <ILI9341_WriteString>
    5878:	b8ffa06f          	j	406 <__riscv_restore_0>

0000587c <Change_Operator2_Blank>:
    587c:	b67fa2ef          	jal	t0,3e2 <__riscv_save_0>
    5880:	fa5ff0ef          	jal	ra,5824 <Draw_Operator2_Release>
    5884:	b83fa06f          	j	406 <__riscv_restore_0>

00005888 <Change_Operator1_Release>:
    5888:	b5bfa2ef          	jal	t0,3e2 <__riscv_save_0>
    588c:	92e1d503          	lhu	a0,-1746(gp) # 2000044e <pot4Val>
    5890:	4641                	li	a2,16
    5892:	6585                	lui	a1,0x1
    5894:	ec8ff0ef          	jal	ra,4f5c <Clamp>
    5898:	0ff57913          	andi	s2,a0,255
    589c:	4401                	li	s0,0
    589e:	44a5                	li	s1,9
    58a0:	8522                	mv	a0,s0
    58a2:	0405                	addi	s0,s0,1
    58a4:	864a                	mv	a2,s2
    58a6:	4581                	li	a1,0
    58a8:	0ff47413          	andi	s0,s0,255
    58ac:	8c1fe0ef          	jal	ra,416c <setRelease>
    58b0:	fe9418e3          	bne	s0,s1,58a0 <Change_Operator1_Release+0x18>
    58b4:	f0dff0ef          	jal	ra,57c0 <Draw_Operator1_Release>
    58b8:	b4ffa06f          	j	406 <__riscv_restore_0>

000058bc <Change_Operator2_Release>:
    58bc:	b27fa2ef          	jal	t0,3e2 <__riscv_save_0>
    58c0:	92e1d503          	lhu	a0,-1746(gp) # 2000044e <pot4Val>
    58c4:	4641                	li	a2,16
    58c6:	6585                	lui	a1,0x1
    58c8:	e94ff0ef          	jal	ra,4f5c <Clamp>
    58cc:	0ff57913          	andi	s2,a0,255
    58d0:	4401                	li	s0,0
    58d2:	44a5                	li	s1,9
    58d4:	8522                	mv	a0,s0
    58d6:	0405                	addi	s0,s0,1
    58d8:	864a                	mv	a2,s2
    58da:	4585                	li	a1,1
    58dc:	0ff47413          	andi	s0,s0,255
    58e0:	88dfe0ef          	jal	ra,416c <setRelease>
    58e4:	fe9418e3          	bne	s0,s1,58d4 <Change_Operator2_Release+0x18>
    58e8:	f3dff0ef          	jal	ra,5824 <Draw_Operator2_Release>
    58ec:	b1bfa06f          	j	406 <__riscv_restore_0>

000058f0 <Draw_Operator1_Multiplier>:
    58f0:	af3fa2ef          	jal	t0,3e2 <__riscv_save_0>
    58f4:	20000937          	lui	s2,0x20000
    58f8:	32890413          	addi	s0,s2,808 # 20000328 <Font_7x10>
    58fc:	3004                	lbu	s1,1(s0)
    58fe:	4581                	li	a1,0
    5900:	4501                	li	a0,0
    5902:	eecfe0ef          	jal	ra,3fee <getMultiplier>
    5906:	03248493          	addi	s1,s1,50
    590a:	01051613          	slli	a2,a0,0x10
    590e:	85a6                	mv	a1,s1
    5910:	46c1                	li	a3,16
    5912:	8241                	srli	a2,a2,0x10
    5914:	02800513          	li	a0,40
    5918:	98fff0ef          	jal	ra,52a6 <Slider_Draw>
    591c:	301c                	lbu	a5,1(s0)
    591e:	03200593          	li	a1,50
    5922:	32892683          	lw	a3,808(s2)
    5926:	8d9d                	sub	a1,a1,a5
    5928:	4058                	lw	a4,4(s0)
    592a:	0000d637          	lui	a2,0xd
    592e:	05c2                	slli	a1,a1,0x10
    5930:	4801                	li	a6,0
    5932:	7e000793          	li	a5,2016
    5936:	97460613          	addi	a2,a2,-1676 # c974 <Font7x10+0x8d0>
    593a:	81c1                	srli	a1,a1,0x10
    593c:	4501                	li	a0,0
    593e:	9b8ff0ef          	jal	ra,4af6 <ILI9341_WriteString>
    5942:	ac5fa06f          	j	406 <__riscv_restore_0>

00005946 <Draw_Operator2_Multiplier>:
    5946:	a9dfa2ef          	jal	t0,3e2 <__riscv_save_0>
    594a:	20000937          	lui	s2,0x20000
    594e:	32890413          	addi	s0,s2,808 # 20000328 <Font_7x10>
    5952:	3004                	lbu	s1,1(s0)
    5954:	4585                	li	a1,1
    5956:	4501                	li	a0,0
    5958:	e96fe0ef          	jal	ra,3fee <getMultiplier>
    595c:	03248493          	addi	s1,s1,50
    5960:	01051613          	slli	a2,a0,0x10
    5964:	85a6                	mv	a1,s1
    5966:	46c1                	li	a3,16
    5968:	8241                	srli	a2,a2,0x10
    596a:	02800513          	li	a0,40
    596e:	939ff0ef          	jal	ra,52a6 <Slider_Draw>
    5972:	301c                	lbu	a5,1(s0)
    5974:	03200593          	li	a1,50
    5978:	32892683          	lw	a3,808(s2)
    597c:	8d9d                	sub	a1,a1,a5
    597e:	4058                	lw	a4,4(s0)
    5980:	0000d637          	lui	a2,0xd
    5984:	05c2                	slli	a1,a1,0x10
    5986:	4801                	li	a6,0
    5988:	7e000793          	li	a5,2016
    598c:	9f860613          	addi	a2,a2,-1544 # c9f8 <Font7x10+0x954>
    5990:	81c1                	srli	a1,a1,0x10
    5992:	4501                	li	a0,0
    5994:	962ff0ef          	jal	ra,4af6 <ILI9341_WriteString>
    5998:	a6ffa06f          	j	406 <__riscv_restore_0>

0000599c <Change_Operator1_Multiplier>:
    599c:	a47fa2ef          	jal	t0,3e2 <__riscv_save_0>
    59a0:	9221d503          	lhu	a0,-1758(gp) # 20000442 <pot1Val>
    59a4:	4641                	li	a2,16
    59a6:	6585                	lui	a1,0x1
    59a8:	db4ff0ef          	jal	ra,4f5c <Clamp>
    59ac:	0ff57913          	andi	s2,a0,255
    59b0:	4401                	li	s0,0
    59b2:	44a5                	li	s1,9
    59b4:	8522                	mv	a0,s0
    59b6:	0405                	addi	s0,s0,1
    59b8:	864a                	mv	a2,s2
    59ba:	4581                	li	a1,0
    59bc:	0ff47413          	andi	s0,s0,255
    59c0:	e44fe0ef          	jal	ra,4004 <setMultiplier>
    59c4:	fe9418e3          	bne	s0,s1,59b4 <Change_Operator1_Multiplier+0x18>
    59c8:	f29ff0ef          	jal	ra,58f0 <Draw_Operator1_Multiplier>
    59cc:	a3bfa06f          	j	406 <__riscv_restore_0>

000059d0 <Change_Operator2_Multiplier>:
    59d0:	a13fa2ef          	jal	t0,3e2 <__riscv_save_0>
    59d4:	9221d503          	lhu	a0,-1758(gp) # 20000442 <pot1Val>
    59d8:	4641                	li	a2,16
    59da:	6585                	lui	a1,0x1
    59dc:	d80ff0ef          	jal	ra,4f5c <Clamp>
    59e0:	0ff57913          	andi	s2,a0,255
    59e4:	4401                	li	s0,0
    59e6:	44a5                	li	s1,9
    59e8:	8522                	mv	a0,s0
    59ea:	0405                	addi	s0,s0,1
    59ec:	864a                	mv	a2,s2
    59ee:	4585                	li	a1,1
    59f0:	0ff47413          	andi	s0,s0,255
    59f4:	e10fe0ef          	jal	ra,4004 <setMultiplier>
    59f8:	fe9418e3          	bne	s0,s1,59e8 <Change_Operator2_Multiplier+0x18>
    59fc:	f4bff0ef          	jal	ra,5946 <Draw_Operator2_Multiplier>
    5a00:	a07fa06f          	j	406 <__riscv_restore_0>

00005a04 <Draw_Operator1_ScalingLevel>:
    5a04:	9dffa2ef          	jal	t0,3e2 <__riscv_save_0>
    5a08:	20000937          	lui	s2,0x20000
    5a0c:	32890413          	addi	s0,s2,808 # 20000328 <Font_7x10>
    5a10:	3004                	lbu	s1,1(s0)
    5a12:	4581                	li	a1,0
    5a14:	4501                	li	a0,0
    5a16:	e1cfe0ef          	jal	ra,4032 <getScalingLevel>
    5a1a:	03248493          	addi	s1,s1,50
    5a1e:	01051613          	slli	a2,a0,0x10
    5a22:	85a6                	mv	a1,s1
    5a24:	46c1                	li	a3,16
    5a26:	8241                	srli	a2,a2,0x10
    5a28:	07800513          	li	a0,120
    5a2c:	87bff0ef          	jal	ra,52a6 <Slider_Draw>
    5a30:	301c                	lbu	a5,1(s0)
    5a32:	03200593          	li	a1,50
    5a36:	32892683          	lw	a3,808(s2)
    5a3a:	8d9d                	sub	a1,a1,a5
    5a3c:	4058                	lw	a4,4(s0)
    5a3e:	0000d637          	lui	a2,0xd
    5a42:	05c2                	slli	a1,a1,0x10
    5a44:	4801                	li	a6,0
    5a46:	7e000793          	li	a5,2016
    5a4a:	98c60613          	addi	a2,a2,-1652 # c98c <Font7x10+0x8e8>
    5a4e:	81c1                	srli	a1,a1,0x10
    5a50:	05000513          	li	a0,80
    5a54:	8a2ff0ef          	jal	ra,4af6 <ILI9341_WriteString>
    5a58:	9affa06f          	j	406 <__riscv_restore_0>

00005a5c <Draw_Operator2_ScalingLevel>:
    5a5c:	987fa2ef          	jal	t0,3e2 <__riscv_save_0>
    5a60:	20000937          	lui	s2,0x20000
    5a64:	32890413          	addi	s0,s2,808 # 20000328 <Font_7x10>
    5a68:	3004                	lbu	s1,1(s0)
    5a6a:	4585                	li	a1,1
    5a6c:	4501                	li	a0,0
    5a6e:	dc4fe0ef          	jal	ra,4032 <getScalingLevel>
    5a72:	03248493          	addi	s1,s1,50
    5a76:	01051613          	slli	a2,a0,0x10
    5a7a:	85a6                	mv	a1,s1
    5a7c:	46c1                	li	a3,16
    5a7e:	8241                	srli	a2,a2,0x10
    5a80:	07800513          	li	a0,120
    5a84:	823ff0ef          	jal	ra,52a6 <Slider_Draw>
    5a88:	301c                	lbu	a5,1(s0)
    5a8a:	03200593          	li	a1,50
    5a8e:	32892683          	lw	a3,808(s2)
    5a92:	8d9d                	sub	a1,a1,a5
    5a94:	4058                	lw	a4,4(s0)
    5a96:	0000d637          	lui	a2,0xd
    5a9a:	05c2                	slli	a1,a1,0x10
    5a9c:	4801                	li	a6,0
    5a9e:	7e000793          	li	a5,2016
    5aa2:	a1060613          	addi	a2,a2,-1520 # ca10 <Font7x10+0x96c>
    5aa6:	81c1                	srli	a1,a1,0x10
    5aa8:	05000513          	li	a0,80
    5aac:	84aff0ef          	jal	ra,4af6 <ILI9341_WriteString>
    5ab0:	957fa06f          	j	406 <__riscv_restore_0>

00005ab4 <Change_Operator1_ScalingLevel>:
    5ab4:	92ffa2ef          	jal	t0,3e2 <__riscv_save_0>
    5ab8:	9261d503          	lhu	a0,-1754(gp) # 20000446 <pot2Val>
    5abc:	4611                	li	a2,4
    5abe:	6585                	lui	a1,0x1
    5ac0:	c9cff0ef          	jal	ra,4f5c <Clamp>
    5ac4:	0ff57913          	andi	s2,a0,255
    5ac8:	4401                	li	s0,0
    5aca:	44a5                	li	s1,9
    5acc:	8522                	mv	a0,s0
    5ace:	0405                	addi	s0,s0,1
    5ad0:	864a                	mv	a2,s2
    5ad2:	4581                	li	a1,0
    5ad4:	0ff47413          	andi	s0,s0,255
    5ad8:	d74fe0ef          	jal	ra,404c <setScalingLevel>
    5adc:	fe9418e3          	bne	s0,s1,5acc <Change_Operator1_ScalingLevel+0x18>
    5ae0:	f25ff0ef          	jal	ra,5a04 <Draw_Operator1_ScalingLevel>
    5ae4:	923fa06f          	j	406 <__riscv_restore_0>

00005ae8 <Change_Operator2_ScalingLevel>:
    5ae8:	8fbfa2ef          	jal	t0,3e2 <__riscv_save_0>
    5aec:	9261d503          	lhu	a0,-1754(gp) # 20000446 <pot2Val>
    5af0:	4611                	li	a2,4
    5af2:	6585                	lui	a1,0x1
    5af4:	c68ff0ef          	jal	ra,4f5c <Clamp>
    5af8:	0ff57913          	andi	s2,a0,255
    5afc:	4401                	li	s0,0
    5afe:	44a5                	li	s1,9
    5b00:	8522                	mv	a0,s0
    5b02:	0405                	addi	s0,s0,1
    5b04:	864a                	mv	a2,s2
    5b06:	4585                	li	a1,1
    5b08:	0ff47413          	andi	s0,s0,255
    5b0c:	d40fe0ef          	jal	ra,404c <setScalingLevel>
    5b10:	fe9418e3          	bne	s0,s1,5b00 <Change_Operator2_ScalingLevel+0x18>
    5b14:	f49ff0ef          	jal	ra,5a5c <Draw_Operator2_ScalingLevel>
    5b18:	8effa06f          	j	406 <__riscv_restore_0>

00005b1c <Draw_Operator1_MaintainSustain>:
    5b1c:	8c7fa2ef          	jal	t0,3e2 <__riscv_save_0>
    5b20:	20000937          	lui	s2,0x20000
    5b24:	32890413          	addi	s0,s2,808 # 20000328 <Font_7x10>
    5b28:	3004                	lbu	s1,1(s0)
    5b2a:	4581                	li	a1,0
    5b2c:	4501                	li	a0,0
    5b2e:	c20fe0ef          	jal	ra,3f4e <getMaintainSustain>
    5b32:	03248493          	addi	s1,s1,50
    5b36:	01051613          	slli	a2,a0,0x10
    5b3a:	85a6                	mv	a1,s1
    5b3c:	46c1                	li	a3,16
    5b3e:	8241                	srli	a2,a2,0x10
    5b40:	0c800513          	li	a0,200
    5b44:	f62ff0ef          	jal	ra,52a6 <Slider_Draw>
    5b48:	301c                	lbu	a5,1(s0)
    5b4a:	03200593          	li	a1,50
    5b4e:	32892683          	lw	a3,808(s2)
    5b52:	8d9d                	sub	a1,a1,a5
    5b54:	4058                	lw	a4,4(s0)
    5b56:	0000d637          	lui	a2,0xd
    5b5a:	05c2                	slli	a1,a1,0x10
    5b5c:	4801                	li	a6,0
    5b5e:	7e000793          	li	a5,2016
    5b62:	96860613          	addi	a2,a2,-1688 # c968 <Font7x10+0x8c4>
    5b66:	81c1                	srli	a1,a1,0x10
    5b68:	0a000513          	li	a0,160
    5b6c:	f8bfe0ef          	jal	ra,4af6 <ILI9341_WriteString>
    5b70:	897fa06f          	j	406 <__riscv_restore_0>

00005b74 <Draw_Operator2_MaintainSustain>:
    5b74:	86ffa2ef          	jal	t0,3e2 <__riscv_save_0>
    5b78:	20000937          	lui	s2,0x20000
    5b7c:	32890413          	addi	s0,s2,808 # 20000328 <Font_7x10>
    5b80:	3004                	lbu	s1,1(s0)
    5b82:	4585                	li	a1,1
    5b84:	4501                	li	a0,0
    5b86:	bc8fe0ef          	jal	ra,3f4e <getMaintainSustain>
    5b8a:	03248493          	addi	s1,s1,50
    5b8e:	01051613          	slli	a2,a0,0x10
    5b92:	85a6                	mv	a1,s1
    5b94:	46c1                	li	a3,16
    5b96:	8241                	srli	a2,a2,0x10
    5b98:	0c800513          	li	a0,200
    5b9c:	f0aff0ef          	jal	ra,52a6 <Slider_Draw>
    5ba0:	301c                	lbu	a5,1(s0)
    5ba2:	03200593          	li	a1,50
    5ba6:	32892683          	lw	a3,808(s2)
    5baa:	8d9d                	sub	a1,a1,a5
    5bac:	4058                	lw	a4,4(s0)
    5bae:	0000d637          	lui	a2,0xd
    5bb2:	05c2                	slli	a1,a1,0x10
    5bb4:	4801                	li	a6,0
    5bb6:	7e000793          	li	a5,2016
    5bba:	9ec60613          	addi	a2,a2,-1556 # c9ec <Font7x10+0x948>
    5bbe:	81c1                	srli	a1,a1,0x10
    5bc0:	0a000513          	li	a0,160
    5bc4:	f33fe0ef          	jal	ra,4af6 <ILI9341_WriteString>
    5bc8:	83ffa06f          	j	406 <__riscv_restore_0>

00005bcc <Change_Operator1_MaintainSustain>:
    5bcc:	817fa2ef          	jal	t0,3e2 <__riscv_save_0>
    5bd0:	92a1d503          	lhu	a0,-1750(gp) # 2000044a <pot3Val>
    5bd4:	4609                	li	a2,2
    5bd6:	6585                	lui	a1,0x1
    5bd8:	b84ff0ef          	jal	ra,4f5c <Clamp>
    5bdc:	0ff57513          	andi	a0,a0,255
    5be0:	4401                	li	s0,0
    5be2:	00a034b3          	snez	s1,a0
    5be6:	4925                	li	s2,9
    5be8:	8522                	mv	a0,s0
    5bea:	0405                	addi	s0,s0,1
    5bec:	8626                	mv	a2,s1
    5bee:	4581                	li	a1,0
    5bf0:	0ff47413          	andi	s0,s0,255
    5bf4:	b72fe0ef          	jal	ra,3f66 <setMaintainSustain>
    5bf8:	ff2418e3          	bne	s0,s2,5be8 <Change_Operator1_MaintainSustain+0x1c>
    5bfc:	f21ff0ef          	jal	ra,5b1c <Draw_Operator1_MaintainSustain>
    5c00:	807fa06f          	j	406 <__riscv_restore_0>

00005c04 <Change_Operator2_MaintainSustain>:
    5c04:	fdefa2ef          	jal	t0,3e2 <__riscv_save_0>
    5c08:	92a1d503          	lhu	a0,-1750(gp) # 2000044a <pot3Val>
    5c0c:	4609                	li	a2,2
    5c0e:	6585                	lui	a1,0x1
    5c10:	b4cff0ef          	jal	ra,4f5c <Clamp>
    5c14:	0ff57513          	andi	a0,a0,255
    5c18:	4401                	li	s0,0
    5c1a:	00a034b3          	snez	s1,a0
    5c1e:	4925                	li	s2,9
    5c20:	8522                	mv	a0,s0
    5c22:	0405                	addi	s0,s0,1
    5c24:	8626                	mv	a2,s1
    5c26:	4585                	li	a1,1
    5c28:	0ff47413          	andi	s0,s0,255
    5c2c:	b3afe0ef          	jal	ra,3f66 <setMaintainSustain>
    5c30:	ff2418e3          	bne	s0,s2,5c20 <Change_Operator2_MaintainSustain+0x1c>
    5c34:	f41ff0ef          	jal	ra,5b74 <Draw_Operator2_MaintainSustain>
    5c38:	fcefa06f          	j	406 <__riscv_restore_0>

00005c3c <Draw_Operator1_WaveForm>:
    5c3c:	fa6fa2ef          	jal	t0,3e2 <__riscv_save_0>
    5c40:	20000937          	lui	s2,0x20000
    5c44:	32890413          	addi	s0,s2,808 # 20000328 <Font_7x10>
    5c48:	3004                	lbu	s1,1(s0)
    5c4a:	4581                	li	a1,0
    5c4c:	4501                	li	a0,0
    5c4e:	f42fe0ef          	jal	ra,4390 <getWaveForm>
    5c52:	03248493          	addi	s1,s1,50
    5c56:	01051613          	slli	a2,a0,0x10
    5c5a:	85a6                	mv	a1,s1
    5c5c:	46c1                	li	a3,16
    5c5e:	8241                	srli	a2,a2,0x10
    5c60:	11800513          	li	a0,280
    5c64:	e42ff0ef          	jal	ra,52a6 <Slider_Draw>
    5c68:	301c                	lbu	a5,1(s0)
    5c6a:	03200593          	li	a1,50
    5c6e:	32892683          	lw	a3,808(s2)
    5c72:	8d9d                	sub	a1,a1,a5
    5c74:	4058                	lw	a4,4(s0)
    5c76:	0000d637          	lui	a2,0xd
    5c7a:	05c2                	slli	a1,a1,0x10
    5c7c:	4801                	li	a6,0
    5c7e:	7e000793          	li	a5,2016
    5c82:	9bc60613          	addi	a2,a2,-1604 # c9bc <Font7x10+0x918>
    5c86:	81c1                	srli	a1,a1,0x10
    5c88:	0f000513          	li	a0,240
    5c8c:	e6bfe0ef          	jal	ra,4af6 <ILI9341_WriteString>
    5c90:	f76fa06f          	j	406 <__riscv_restore_0>

00005c94 <Draw_Operator2_WaveForm>:
    5c94:	f4efa2ef          	jal	t0,3e2 <__riscv_save_0>
    5c98:	20000937          	lui	s2,0x20000
    5c9c:	32890413          	addi	s0,s2,808 # 20000328 <Font_7x10>
    5ca0:	3004                	lbu	s1,1(s0)
    5ca2:	4585                	li	a1,1
    5ca4:	4501                	li	a0,0
    5ca6:	eeafe0ef          	jal	ra,4390 <getWaveForm>
    5caa:	03248493          	addi	s1,s1,50
    5cae:	01051613          	slli	a2,a0,0x10
    5cb2:	85a6                	mv	a1,s1
    5cb4:	46c1                	li	a3,16
    5cb6:	8241                	srli	a2,a2,0x10
    5cb8:	11800513          	li	a0,280
    5cbc:	deaff0ef          	jal	ra,52a6 <Slider_Draw>
    5cc0:	301c                	lbu	a5,1(s0)
    5cc2:	03200593          	li	a1,50
    5cc6:	32892683          	lw	a3,808(s2)
    5cca:	8d9d                	sub	a1,a1,a5
    5ccc:	4058                	lw	a4,4(s0)
    5cce:	0000d637          	lui	a2,0xd
    5cd2:	05c2                	slli	a1,a1,0x10
    5cd4:	4801                	li	a6,0
    5cd6:	7e000793          	li	a5,2016
    5cda:	a4060613          	addi	a2,a2,-1472 # ca40 <Font7x10+0x99c>
    5cde:	81c1                	srli	a1,a1,0x10
    5ce0:	0f000513          	li	a0,240
    5ce4:	e13fe0ef          	jal	ra,4af6 <ILI9341_WriteString>
    5ce8:	f1efa06f          	j	406 <__riscv_restore_0>

00005cec <Change_Operator1_WaveForm>:
    5cec:	ef6fa2ef          	jal	t0,3e2 <__riscv_save_0>
    5cf0:	92e1d503          	lhu	a0,-1746(gp) # 2000044e <pot4Val>
    5cf4:	4641                	li	a2,16
    5cf6:	6585                	lui	a1,0x1
    5cf8:	a64ff0ef          	jal	ra,4f5c <Clamp>
    5cfc:	0ff57913          	andi	s2,a0,255
    5d00:	4401                	li	s0,0
    5d02:	44a5                	li	s1,9
    5d04:	8522                	mv	a0,s0
    5d06:	0405                	addi	s0,s0,1
    5d08:	864a                	mv	a2,s2
    5d0a:	4581                	li	a1,0
    5d0c:	0ff47413          	andi	s0,s0,255
    5d10:	e96fe0ef          	jal	ra,43a6 <setWaveForm>
    5d14:	fe9418e3          	bne	s0,s1,5d04 <Change_Operator1_WaveForm+0x18>
    5d18:	f25ff0ef          	jal	ra,5c3c <Draw_Operator1_WaveForm>
    5d1c:	eeafa06f          	j	406 <__riscv_restore_0>

00005d20 <Change_Operator2_WaveForm>:
    5d20:	ec2fa2ef          	jal	t0,3e2 <__riscv_save_0>
    5d24:	92e1d503          	lhu	a0,-1746(gp) # 2000044e <pot4Val>
    5d28:	4641                	li	a2,16
    5d2a:	6585                	lui	a1,0x1
    5d2c:	a30ff0ef          	jal	ra,4f5c <Clamp>
    5d30:	0ff57913          	andi	s2,a0,255
    5d34:	4401                	li	s0,0
    5d36:	44a5                	li	s1,9
    5d38:	8522                	mv	a0,s0
    5d3a:	0405                	addi	s0,s0,1
    5d3c:	864a                	mv	a2,s2
    5d3e:	4585                	li	a1,1
    5d40:	0ff47413          	andi	s0,s0,255
    5d44:	e62fe0ef          	jal	ra,43a6 <setWaveForm>
    5d48:	fe9418e3          	bne	s0,s1,5d38 <Change_Operator2_WaveForm+0x18>
    5d4c:	f49ff0ef          	jal	ra,5c94 <Draw_Operator2_WaveForm>
    5d50:	eb6fa06f          	j	406 <__riscv_restore_0>

00005d54 <Draw_Operator1_Tremolo>:
    5d54:	e8efa2ef          	jal	t0,3e2 <__riscv_save_0>
    5d58:	20000937          	lui	s2,0x20000
    5d5c:	32890413          	addi	s0,s2,808 # 20000328 <Font_7x10>
    5d60:	3004                	lbu	s1,1(s0)
    5d62:	4581                	li	a1,0
    5d64:	4501                	li	a0,0
    5d66:	946fe0ef          	jal	ra,3eac <getTremolo>
    5d6a:	03248493          	addi	s1,s1,50
    5d6e:	01051613          	slli	a2,a0,0x10
    5d72:	85a6                	mv	a1,s1
    5d74:	46c1                	li	a3,16
    5d76:	8241                	srli	a2,a2,0x10
    5d78:	02800513          	li	a0,40
    5d7c:	d2aff0ef          	jal	ra,52a6 <Slider_Draw>
    5d80:	301c                	lbu	a5,1(s0)
    5d82:	03200593          	li	a1,50
    5d86:	32892683          	lw	a3,808(s2)
    5d8a:	8d9d                	sub	a1,a1,a5
    5d8c:	4058                	lw	a4,4(s0)
    5d8e:	0000d637          	lui	a2,0xd
    5d92:	05c2                	slli	a1,a1,0x10
    5d94:	4801                	li	a6,0
    5d96:	7e000793          	li	a5,2016
    5d9a:	9a460613          	addi	a2,a2,-1628 # c9a4 <Font7x10+0x900>
    5d9e:	81c1                	srli	a1,a1,0x10
    5da0:	4501                	li	a0,0
    5da2:	d55fe0ef          	jal	ra,4af6 <ILI9341_WriteString>
    5da6:	e60fa06f          	j	406 <__riscv_restore_0>

00005daa <Draw_Operator2_Tremolo>:
    5daa:	e38fa2ef          	jal	t0,3e2 <__riscv_save_0>
    5dae:	20000937          	lui	s2,0x20000
    5db2:	32890413          	addi	s0,s2,808 # 20000328 <Font_7x10>
    5db6:	3004                	lbu	s1,1(s0)
    5db8:	4585                	li	a1,1
    5dba:	4501                	li	a0,0
    5dbc:	8f0fe0ef          	jal	ra,3eac <getTremolo>
    5dc0:	03248493          	addi	s1,s1,50
    5dc4:	01051613          	slli	a2,a0,0x10
    5dc8:	85a6                	mv	a1,s1
    5dca:	46c1                	li	a3,16
    5dcc:	8241                	srli	a2,a2,0x10
    5dce:	02800513          	li	a0,40
    5dd2:	cd4ff0ef          	jal	ra,52a6 <Slider_Draw>
    5dd6:	301c                	lbu	a5,1(s0)
    5dd8:	03200593          	li	a1,50
    5ddc:	32892683          	lw	a3,808(s2)
    5de0:	8d9d                	sub	a1,a1,a5
    5de2:	4058                	lw	a4,4(s0)
    5de4:	0000d637          	lui	a2,0xd
    5de8:	05c2                	slli	a1,a1,0x10
    5dea:	4801                	li	a6,0
    5dec:	7e000793          	li	a5,2016
    5df0:	a2860613          	addi	a2,a2,-1496 # ca28 <Font7x10+0x984>
    5df4:	81c1                	srli	a1,a1,0x10
    5df6:	4501                	li	a0,0
    5df8:	cfffe0ef          	jal	ra,4af6 <ILI9341_WriteString>
    5dfc:	e0afa06f          	j	406 <__riscv_restore_0>

00005e00 <Change_Operator1_Tremolo>:
    5e00:	de2fa2ef          	jal	t0,3e2 <__riscv_save_0>
    5e04:	9221d503          	lhu	a0,-1758(gp) # 20000442 <pot1Val>
    5e08:	4609                	li	a2,2
    5e0a:	6585                	lui	a1,0x1
    5e0c:	950ff0ef          	jal	ra,4f5c <Clamp>
    5e10:	0ff57513          	andi	a0,a0,255
    5e14:	4401                	li	s0,0
    5e16:	00a034b3          	snez	s1,a0
    5e1a:	4925                	li	s2,9
    5e1c:	8522                	mv	a0,s0
    5e1e:	0405                	addi	s0,s0,1
    5e20:	8626                	mv	a2,s1
    5e22:	4581                	li	a1,0
    5e24:	0ff47413          	andi	s0,s0,255
    5e28:	89efe0ef          	jal	ra,3ec6 <setTremolo>
    5e2c:	ff2418e3          	bne	s0,s2,5e1c <Change_Operator1_Tremolo+0x1c>
    5e30:	f25ff0ef          	jal	ra,5d54 <Draw_Operator1_Tremolo>
    5e34:	dd2fa06f          	j	406 <__riscv_restore_0>

00005e38 <Change_Operator2_Tremolo>:
    5e38:	daafa2ef          	jal	t0,3e2 <__riscv_save_0>
    5e3c:	9221d503          	lhu	a0,-1758(gp) # 20000442 <pot1Val>
    5e40:	4609                	li	a2,2
    5e42:	6585                	lui	a1,0x1
    5e44:	918ff0ef          	jal	ra,4f5c <Clamp>
    5e48:	0ff57513          	andi	a0,a0,255
    5e4c:	4401                	li	s0,0
    5e4e:	00a034b3          	snez	s1,a0
    5e52:	4925                	li	s2,9
    5e54:	8522                	mv	a0,s0
    5e56:	0405                	addi	s0,s0,1
    5e58:	8626                	mv	a2,s1
    5e5a:	4585                	li	a1,1
    5e5c:	0ff47413          	andi	s0,s0,255
    5e60:	866fe0ef          	jal	ra,3ec6 <setTremolo>
    5e64:	ff2418e3          	bne	s0,s2,5e54 <Change_Operator2_Tremolo+0x1c>
    5e68:	f43ff0ef          	jal	ra,5daa <Draw_Operator2_Tremolo>
    5e6c:	d9afa06f          	j	406 <__riscv_restore_0>

00005e70 <Draw_Operator1_Vibrato>:
    5e70:	d72fa2ef          	jal	t0,3e2 <__riscv_save_0>
    5e74:	20000937          	lui	s2,0x20000
    5e78:	32890413          	addi	s0,s2,808 # 20000328 <Font_7x10>
    5e7c:	3004                	lbu	s1,1(s0)
    5e7e:	4581                	li	a1,0
    5e80:	4501                	li	a0,0
    5e82:	87cfe0ef          	jal	ra,3efe <getVibrato>
    5e86:	03248493          	addi	s1,s1,50
    5e8a:	01051613          	slli	a2,a0,0x10
    5e8e:	85a6                	mv	a1,s1
    5e90:	46c1                	li	a3,16
    5e92:	8241                	srli	a2,a2,0x10
    5e94:	07800513          	li	a0,120
    5e98:	c0eff0ef          	jal	ra,52a6 <Slider_Draw>
    5e9c:	301c                	lbu	a5,1(s0)
    5e9e:	03200593          	li	a1,50
    5ea2:	32892683          	lw	a3,808(s2)
    5ea6:	8d9d                	sub	a1,a1,a5
    5ea8:	4058                	lw	a4,4(s0)
    5eaa:	0000d637          	lui	a2,0xd
    5eae:	05c2                	slli	a1,a1,0x10
    5eb0:	4801                	li	a6,0
    5eb2:	7e000793          	li	a5,2016
    5eb6:	9b060613          	addi	a2,a2,-1616 # c9b0 <Font7x10+0x90c>
    5eba:	81c1                	srli	a1,a1,0x10
    5ebc:	05000513          	li	a0,80
    5ec0:	c37fe0ef          	jal	ra,4af6 <ILI9341_WriteString>
    5ec4:	d42fa06f          	j	406 <__riscv_restore_0>

00005ec8 <Draw_Operator2_Vibrato>:
    5ec8:	d1afa2ef          	jal	t0,3e2 <__riscv_save_0>
    5ecc:	20000937          	lui	s2,0x20000
    5ed0:	32890413          	addi	s0,s2,808 # 20000328 <Font_7x10>
    5ed4:	3004                	lbu	s1,1(s0)
    5ed6:	4585                	li	a1,1
    5ed8:	4501                	li	a0,0
    5eda:	824fe0ef          	jal	ra,3efe <getVibrato>
    5ede:	03248493          	addi	s1,s1,50
    5ee2:	01051613          	slli	a2,a0,0x10
    5ee6:	85a6                	mv	a1,s1
    5ee8:	46c1                	li	a3,16
    5eea:	8241                	srli	a2,a2,0x10
    5eec:	07800513          	li	a0,120
    5ef0:	bb6ff0ef          	jal	ra,52a6 <Slider_Draw>
    5ef4:	301c                	lbu	a5,1(s0)
    5ef6:	03200593          	li	a1,50
    5efa:	32892683          	lw	a3,808(s2)
    5efe:	8d9d                	sub	a1,a1,a5
    5f00:	4058                	lw	a4,4(s0)
    5f02:	0000d637          	lui	a2,0xd
    5f06:	05c2                	slli	a1,a1,0x10
    5f08:	4801                	li	a6,0
    5f0a:	7e000793          	li	a5,2016
    5f0e:	a3460613          	addi	a2,a2,-1484 # ca34 <Font7x10+0x990>
    5f12:	81c1                	srli	a1,a1,0x10
    5f14:	05000513          	li	a0,80
    5f18:	bdffe0ef          	jal	ra,4af6 <ILI9341_WriteString>
    5f1c:	ceafa06f          	j	406 <__riscv_restore_0>

00005f20 <Change_Operator1_Vibrato>:
    5f20:	cc2fa2ef          	jal	t0,3e2 <__riscv_save_0>
    5f24:	9261d503          	lhu	a0,-1754(gp) # 20000446 <pot2Val>
    5f28:	4609                	li	a2,2
    5f2a:	6585                	lui	a1,0x1
    5f2c:	830ff0ef          	jal	ra,4f5c <Clamp>
    5f30:	0ff57513          	andi	a0,a0,255
    5f34:	4401                	li	s0,0
    5f36:	00a034b3          	snez	s1,a0
    5f3a:	4925                	li	s2,9
    5f3c:	8522                	mv	a0,s0
    5f3e:	0405                	addi	s0,s0,1
    5f40:	8626                	mv	a2,s1
    5f42:	4581                	li	a1,0
    5f44:	0ff47413          	andi	s0,s0,255
    5f48:	fcffd0ef          	jal	ra,3f16 <setVibrato>
    5f4c:	ff2418e3          	bne	s0,s2,5f3c <Change_Operator1_Vibrato+0x1c>
    5f50:	f21ff0ef          	jal	ra,5e70 <Draw_Operator1_Vibrato>
    5f54:	cb2fa06f          	j	406 <__riscv_restore_0>

00005f58 <Change_Operator2_Vibrato>:
    5f58:	c8afa2ef          	jal	t0,3e2 <__riscv_save_0>
    5f5c:	9261d503          	lhu	a0,-1754(gp) # 20000446 <pot2Val>
    5f60:	4609                	li	a2,2
    5f62:	6585                	lui	a1,0x1
    5f64:	ff9fe0ef          	jal	ra,4f5c <Clamp>
    5f68:	0ff57513          	andi	a0,a0,255
    5f6c:	4401                	li	s0,0
    5f6e:	00a034b3          	snez	s1,a0
    5f72:	4925                	li	s2,9
    5f74:	8522                	mv	a0,s0
    5f76:	0405                	addi	s0,s0,1
    5f78:	8626                	mv	a2,s1
    5f7a:	4585                	li	a1,1
    5f7c:	0ff47413          	andi	s0,s0,255
    5f80:	f97fd0ef          	jal	ra,3f16 <setVibrato>
    5f84:	ff2418e3          	bne	s0,s2,5f74 <Change_Operator2_Vibrato+0x1c>
    5f88:	f41ff0ef          	jal	ra,5ec8 <Draw_Operator2_Vibrato>
    5f8c:	c7afa06f          	j	406 <__riscv_restore_0>

00005f90 <Draw_Operator1_EnvelopeScaling>:
    5f90:	c52fa2ef          	jal	t0,3e2 <__riscv_save_0>
    5f94:	20000937          	lui	s2,0x20000
    5f98:	32890413          	addi	s0,s2,808 # 20000328 <Font_7x10>
    5f9c:	3004                	lbu	s1,1(s0)
    5f9e:	4581                	li	a1,0
    5fa0:	4501                	li	a0,0
    5fa2:	ffdfd0ef          	jal	ra,3f9e <getEnvelopeScaling>
    5fa6:	03248493          	addi	s1,s1,50
    5faa:	01051613          	slli	a2,a0,0x10
    5fae:	85a6                	mv	a1,s1
    5fb0:	46c1                	li	a3,16
    5fb2:	8241                	srli	a2,a2,0x10
    5fb4:	0c800513          	li	a0,200
    5fb8:	aeeff0ef          	jal	ra,52a6 <Slider_Draw>
    5fbc:	301c                	lbu	a5,1(s0)
    5fbe:	03200593          	li	a1,50
    5fc2:	32892683          	lw	a3,808(s2)
    5fc6:	8d9d                	sub	a1,a1,a5
    5fc8:	4058                	lw	a4,4(s0)
    5fca:	0000d637          	lui	a2,0xd
    5fce:	05c2                	slli	a1,a1,0x10
    5fd0:	4801                	li	a6,0
    5fd2:	7e000793          	li	a5,2016
    5fd6:	95c60613          	addi	a2,a2,-1700 # c95c <Font7x10+0x8b8>
    5fda:	81c1                	srli	a1,a1,0x10
    5fdc:	0a000513          	li	a0,160
    5fe0:	b17fe0ef          	jal	ra,4af6 <ILI9341_WriteString>
    5fe4:	c22fa06f          	j	406 <__riscv_restore_0>

00005fe8 <Draw_Operator2_EnvelopeScaling>:
    5fe8:	bfafa2ef          	jal	t0,3e2 <__riscv_save_0>
    5fec:	20000937          	lui	s2,0x20000
    5ff0:	32890413          	addi	s0,s2,808 # 20000328 <Font_7x10>
    5ff4:	3004                	lbu	s1,1(s0)
    5ff6:	4585                	li	a1,1
    5ff8:	4501                	li	a0,0
    5ffa:	fa5fd0ef          	jal	ra,3f9e <getEnvelopeScaling>
    5ffe:	03248493          	addi	s1,s1,50
    6002:	01051613          	slli	a2,a0,0x10
    6006:	85a6                	mv	a1,s1
    6008:	46c1                	li	a3,16
    600a:	8241                	srli	a2,a2,0x10
    600c:	0c800513          	li	a0,200
    6010:	a96ff0ef          	jal	ra,52a6 <Slider_Draw>
    6014:	301c                	lbu	a5,1(s0)
    6016:	03200593          	li	a1,50
    601a:	32892683          	lw	a3,808(s2)
    601e:	8d9d                	sub	a1,a1,a5
    6020:	4058                	lw	a4,4(s0)
    6022:	0000d637          	lui	a2,0xd
    6026:	05c2                	slli	a1,a1,0x10
    6028:	4801                	li	a6,0
    602a:	7e000793          	li	a5,2016
    602e:	9e060613          	addi	a2,a2,-1568 # c9e0 <Font7x10+0x93c>
    6032:	81c1                	srli	a1,a1,0x10
    6034:	0a000513          	li	a0,160
    6038:	abffe0ef          	jal	ra,4af6 <ILI9341_WriteString>
    603c:	bcafa06f          	j	406 <__riscv_restore_0>

00006040 <Change_Operator1_EnvelopeScaling>:
    6040:	ba2fa2ef          	jal	t0,3e2 <__riscv_save_0>
    6044:	92a1d503          	lhu	a0,-1750(gp) # 2000044a <pot3Val>
    6048:	4609                	li	a2,2
    604a:	6585                	lui	a1,0x1
    604c:	f11fe0ef          	jal	ra,4f5c <Clamp>
    6050:	0ff57513          	andi	a0,a0,255
    6054:	4401                	li	s0,0
    6056:	00a034b3          	snez	s1,a0
    605a:	4925                	li	s2,9
    605c:	8522                	mv	a0,s0
    605e:	0405                	addi	s0,s0,1
    6060:	8626                	mv	a2,s1
    6062:	4581                	li	a1,0
    6064:	0ff47413          	andi	s0,s0,255
    6068:	f4ffd0ef          	jal	ra,3fb6 <setEnvelopeScaling>
    606c:	ff2418e3          	bne	s0,s2,605c <Change_Operator1_EnvelopeScaling+0x1c>
    6070:	f21ff0ef          	jal	ra,5f90 <Draw_Operator1_EnvelopeScaling>
    6074:	b92fa06f          	j	406 <__riscv_restore_0>

00006078 <Change_Operator2_EnvelopeScaling>:
    6078:	b6afa2ef          	jal	t0,3e2 <__riscv_save_0>
    607c:	92a1d503          	lhu	a0,-1750(gp) # 2000044a <pot3Val>
    6080:	4609                	li	a2,2
    6082:	6585                	lui	a1,0x1
    6084:	ed9fe0ef          	jal	ra,4f5c <Clamp>
    6088:	0ff57513          	andi	a0,a0,255
    608c:	4401                	li	s0,0
    608e:	00a034b3          	snez	s1,a0
    6092:	4925                	li	s2,9
    6094:	8522                	mv	a0,s0
    6096:	0405                	addi	s0,s0,1
    6098:	8626                	mv	a2,s1
    609a:	4585                	li	a1,1
    609c:	0ff47413          	andi	s0,s0,255
    60a0:	f17fd0ef          	jal	ra,3fb6 <setEnvelopeScaling>
    60a4:	ff2418e3          	bne	s0,s2,6094 <Change_Operator2_EnvelopeScaling+0x1c>
    60a8:	f41ff0ef          	jal	ra,5fe8 <Draw_Operator2_EnvelopeScaling>
    60ac:	b5afa06f          	j	406 <__riscv_restore_0>

000060b0 <Draw_Operator1_Blank>:
    60b0:	b32fa2ef          	jal	t0,3e2 <__riscv_save_0>
    60b4:	200007b7          	lui	a5,0x20000
    60b8:	3297c783          	lbu	a5,809(a5) # 20000329 <Font_7x10+0x1>
    60bc:	46d1                	li	a3,20
    60be:	03200593          	li	a1,50
    60c2:	02d786b3          	mul	a3,a5,a3
    60c6:	8d9d                	sub	a1,a1,a5
    60c8:	05c2                	slli	a1,a1,0x10
    60ca:	4701                	li	a4,0
    60cc:	05000613          	li	a2,80
    60d0:	81c1                	srli	a1,a1,0x10
    60d2:	0f000513          	li	a0,240
    60d6:	b4ffe0ef          	jal	ra,4c24 <ILI9341_FillRectangle>
    60da:	b2cfa06f          	j	406 <__riscv_restore_0>

000060de <Draw_Operator2_Blank>:
    60de:	b04fa2ef          	jal	t0,3e2 <__riscv_save_0>
    60e2:	fcfff0ef          	jal	ra,60b0 <Draw_Operator1_Blank>
    60e6:	b20fa06f          	j	406 <__riscv_restore_0>

000060ea <Handle_Button_Left>:
    60ea:	adefa2ef          	jal	t0,3c8 <__riscv_save_4>
    60ee:	9301c703          	lbu	a4,-1744(gp) # 20000450 <Menu_Index>
    60f2:	1141                	addi	sp,sp,-16
    60f4:	4799                	li	a5,6
    60f6:	c709                	beqz	a4,6100 <Handle_Button_Left+0x16>
    60f8:	fff70793          	addi	a5,a4,-1
    60fc:	0ff7f793          	andi	a5,a5,255
    6100:	200024b7          	lui	s1,0x20002
    6104:	92f18823          	sb	a5,-1744(gp) # 20000450 <Menu_Index>
    6108:	9f848493          	addi	s1,s1,-1544 # 200019f8 <Main_Menu>
    610c:	0796                	slli	a5,a5,0x5
    610e:	97a6                	add	a5,a5,s1
    6110:	4394                	lw	a3,0(a5)
    6112:	200009b7          	lui	s3,0x20000
    6116:	90d1a823          	sw	a3,-1776(gp) # 20000430 <Pot1_Interrupt_Handler>
    611a:	43d4                	lw	a3,4(a5)
    611c:	32898913          	addi	s2,s3,808 # 20000328 <Font_7x10>
    6120:	90d1aa23          	sw	a3,-1772(gp) # 20000434 <Pot2_Interrupt_Handler>
    6124:	4794                	lw	a3,8(a5)
    6126:	03200593          	li	a1,50
    612a:	90d1ac23          	sw	a3,-1768(gp) # 20000438 <Pot3_Interrupt_Handler>
    612e:	00194683          	lbu	a3,1(s2)
    6132:	47d8                	lw	a4,12(a5)
    6134:	8d95                	sub	a1,a1,a3
    6136:	05c2                	slli	a1,a1,0x10
    6138:	14000613          	li	a2,320
    613c:	81c1                	srli	a1,a1,0x10
    613e:	4501                	li	a0,0
    6140:	90e1ae23          	sw	a4,-1764(gp) # 2000043c <Pot4_Interrupt_Handler>
    6144:	4701                	li	a4,0
    6146:	adffe0ef          	jal	ra,4c24 <ILI9341_FillRectangle>
    614a:	9301c783          	lbu	a5,-1744(gp) # 20000450 <Menu_Index>
    614e:	0796                	slli	a5,a5,0x5
    6150:	97a6                	add	a5,a5,s1
    6152:	4b9c                	lw	a5,16(a5)
    6154:	9782                	jalr	a5
    6156:	9301c783          	lbu	a5,-1744(gp) # 20000450 <Menu_Index>
    615a:	0796                	slli	a5,a5,0x5
    615c:	97a6                	add	a5,a5,s1
    615e:	4bdc                	lw	a5,20(a5)
    6160:	9782                	jalr	a5
    6162:	9301c783          	lbu	a5,-1744(gp) # 20000450 <Menu_Index>
    6166:	0796                	slli	a5,a5,0x5
    6168:	97a6                	add	a5,a5,s1
    616a:	4f9c                	lw	a5,24(a5)
    616c:	9782                	jalr	a5
    616e:	9301c783          	lbu	a5,-1744(gp) # 20000450 <Menu_Index>
    6172:	0796                	slli	a5,a5,0x5
    6174:	94be                	add	s1,s1,a5
    6176:	4cdc                	lw	a5,28(s1)
    6178:	9782                	jalr	a5
    617a:	756e67b7          	lui	a5,0x756e6
    617e:	54d78793          	addi	a5,a5,1357 # 756e654d <_eusrstack+0x556d654d>
    6182:	c23e                	sw	a5,4(sp)
    6184:	676157b7          	lui	a5,0x67615
    6188:	02078793          	addi	a5,a5,32 # 67615020 <_eusrstack+0x47605020>
    618c:	c43e                	sw	a5,8(sp)
    618e:	6789                	lui	a5,0x2
    6190:	06578793          	addi	a5,a5,101 # 2065 <list_msgqueue+0x1d>
    6194:	867c                	sh	a5,12(sp)
    6196:	9301c783          	lbu	a5,-1744(gp) # 20000450 <Menu_Index>
    619a:	3289a683          	lw	a3,808(s3)
    619e:	00492703          	lw	a4,4(s2)
    61a2:	03178793          	addi	a5,a5,49
    61a6:	875c                	sb	a5,14(sp)
    61a8:	200007b7          	lui	a5,0x20000
    61ac:	3217c583          	lbu	a1,801(a5) # 20000321 <Font_11x18+0x1>
    61b0:	0050                	addi	a2,sp,4
    61b2:	4801                	li	a6,0
    61b4:	7e000793          	li	a5,2016
    61b8:	0595                	addi	a1,a1,5
    61ba:	4501                	li	a0,0
    61bc:	000107a3          	sb	zero,15(sp)
    61c0:	937fe0ef          	jal	ra,4af6 <ILI9341_WriteString>
    61c4:	0141                	addi	sp,sp,16
    61c6:	a36fa06f          	j	3fc <__riscv_restore_4>

000061ca <Handle_Button_Right>:
    61ca:	9fefa2ef          	jal	t0,3c8 <__riscv_save_4>
    61ce:	9301c703          	lbu	a4,-1744(gp) # 20000450 <Menu_Index>
    61d2:	4699                	li	a3,6
    61d4:	1141                	addi	sp,sp,-16
    61d6:	4781                	li	a5,0
    61d8:	00d70663          	beq	a4,a3,61e4 <Handle_Button_Right+0x1a>
    61dc:	00170793          	addi	a5,a4,1
    61e0:	0ff7f793          	andi	a5,a5,255
    61e4:	200024b7          	lui	s1,0x20002
    61e8:	92f18823          	sb	a5,-1744(gp) # 20000450 <Menu_Index>
    61ec:	9f848493          	addi	s1,s1,-1544 # 200019f8 <Main_Menu>
    61f0:	0796                	slli	a5,a5,0x5
    61f2:	97a6                	add	a5,a5,s1
    61f4:	4394                	lw	a3,0(a5)
    61f6:	200009b7          	lui	s3,0x20000
    61fa:	90d1a823          	sw	a3,-1776(gp) # 20000430 <Pot1_Interrupt_Handler>
    61fe:	43d4                	lw	a3,4(a5)
    6200:	32898913          	addi	s2,s3,808 # 20000328 <Font_7x10>
    6204:	90d1aa23          	sw	a3,-1772(gp) # 20000434 <Pot2_Interrupt_Handler>
    6208:	4794                	lw	a3,8(a5)
    620a:	03200593          	li	a1,50
    620e:	90d1ac23          	sw	a3,-1768(gp) # 20000438 <Pot3_Interrupt_Handler>
    6212:	00194683          	lbu	a3,1(s2)
    6216:	47d8                	lw	a4,12(a5)
    6218:	8d95                	sub	a1,a1,a3
    621a:	05c2                	slli	a1,a1,0x10
    621c:	14000613          	li	a2,320
    6220:	81c1                	srli	a1,a1,0x10
    6222:	4501                	li	a0,0
    6224:	90e1ae23          	sw	a4,-1764(gp) # 2000043c <Pot4_Interrupt_Handler>
    6228:	4701                	li	a4,0
    622a:	9fbfe0ef          	jal	ra,4c24 <ILI9341_FillRectangle>
    622e:	9301c783          	lbu	a5,-1744(gp) # 20000450 <Menu_Index>
    6232:	0796                	slli	a5,a5,0x5
    6234:	97a6                	add	a5,a5,s1
    6236:	4b9c                	lw	a5,16(a5)
    6238:	9782                	jalr	a5
    623a:	9301c783          	lbu	a5,-1744(gp) # 20000450 <Menu_Index>
    623e:	0796                	slli	a5,a5,0x5
    6240:	97a6                	add	a5,a5,s1
    6242:	4bdc                	lw	a5,20(a5)
    6244:	9782                	jalr	a5
    6246:	9301c783          	lbu	a5,-1744(gp) # 20000450 <Menu_Index>
    624a:	0796                	slli	a5,a5,0x5
    624c:	97a6                	add	a5,a5,s1
    624e:	4f9c                	lw	a5,24(a5)
    6250:	9782                	jalr	a5
    6252:	9301c783          	lbu	a5,-1744(gp) # 20000450 <Menu_Index>
    6256:	0796                	slli	a5,a5,0x5
    6258:	94be                	add	s1,s1,a5
    625a:	4cdc                	lw	a5,28(s1)
    625c:	9782                	jalr	a5
    625e:	756e67b7          	lui	a5,0x756e6
    6262:	54d78793          	addi	a5,a5,1357 # 756e654d <_eusrstack+0x556d654d>
    6266:	c23e                	sw	a5,4(sp)
    6268:	676157b7          	lui	a5,0x67615
    626c:	02078793          	addi	a5,a5,32 # 67615020 <_eusrstack+0x47605020>
    6270:	c43e                	sw	a5,8(sp)
    6272:	6789                	lui	a5,0x2
    6274:	06578793          	addi	a5,a5,101 # 2065 <list_msgqueue+0x1d>
    6278:	867c                	sh	a5,12(sp)
    627a:	9301c783          	lbu	a5,-1744(gp) # 20000450 <Menu_Index>
    627e:	3289a683          	lw	a3,808(s3)
    6282:	00492703          	lw	a4,4(s2)
    6286:	03178793          	addi	a5,a5,49
    628a:	875c                	sb	a5,14(sp)
    628c:	200007b7          	lui	a5,0x20000
    6290:	3217c583          	lbu	a1,801(a5) # 20000321 <Font_11x18+0x1>
    6294:	0050                	addi	a2,sp,4
    6296:	4801                	li	a6,0
    6298:	7e000793          	li	a5,2016
    629c:	0595                	addi	a1,a1,5
    629e:	4501                	li	a0,0
    62a0:	000107a3          	sb	zero,15(sp)
    62a4:	853fe0ef          	jal	ra,4af6 <ILI9341_WriteString>
    62a8:	0141                	addi	sp,sp,16
    62aa:	952fa06f          	j	3fc <__riscv_restore_4>

000062ae <Draw_Global_DeepTremolo>:
    62ae:	934fa2ef          	jal	t0,3e2 <__riscv_save_0>
    62b2:	200004b7          	lui	s1,0x20000
    62b6:	32848413          	addi	s0,s1,808 # 20000328 <Font_7x10>
    62ba:	300c                	lbu	a1,1(s0)
    62bc:	1141                	addi	sp,sp,-16
    62be:	03258593          	addi	a1,a1,50 # 1032 <rt_kprintf+0x44>
    62c2:	c62e                	sw	a1,12(sp)
    62c4:	84efe0ef          	jal	ra,4312 <getDeepTremolo>
    62c8:	45b2                	lw	a1,12(sp)
    62ca:	01051613          	slli	a2,a0,0x10
    62ce:	46c1                	li	a3,16
    62d0:	8241                	srli	a2,a2,0x10
    62d2:	02800513          	li	a0,40
    62d6:	fd1fe0ef          	jal	ra,52a6 <Slider_Draw>
    62da:	301c                	lbu	a5,1(s0)
    62dc:	03200593          	li	a1,50
    62e0:	3284a683          	lw	a3,808(s1)
    62e4:	8d9d                	sub	a1,a1,a5
    62e6:	4058                	lw	a4,4(s0)
    62e8:	0000d637          	lui	a2,0xd
    62ec:	05c2                	slli	a1,a1,0x10
    62ee:	4801                	li	a6,0
    62f0:	7e000793          	li	a5,2016
    62f4:	91460613          	addi	a2,a2,-1772 # c914 <Font7x10+0x870>
    62f8:	81c1                	srli	a1,a1,0x10
    62fa:	4501                	li	a0,0
    62fc:	ffafe0ef          	jal	ra,4af6 <ILI9341_WriteString>
    6300:	0141                	addi	sp,sp,16
    6302:	904fa06f          	j	406 <__riscv_restore_0>

00006306 <Change_Global_DeepTremolo>:
    6306:	8dcfa2ef          	jal	t0,3e2 <__riscv_save_0>
    630a:	9221d503          	lhu	a0,-1758(gp) # 20000442 <pot1Val>
    630e:	4609                	li	a2,2
    6310:	6585                	lui	a1,0x1
    6312:	c4bfe0ef          	jal	ra,4f5c <Clamp>
    6316:	0ff57513          	andi	a0,a0,255
    631a:	00a03533          	snez	a0,a0
    631e:	80afe0ef          	jal	ra,4328 <setDeepTremolo>
    6322:	f8dff0ef          	jal	ra,62ae <Draw_Global_DeepTremolo>
    6326:	8e0fa06f          	j	406 <__riscv_restore_0>

0000632a <Draw_Global_DeepVibrato>:
    632a:	8b8fa2ef          	jal	t0,3e2 <__riscv_save_0>
    632e:	200004b7          	lui	s1,0x20000
    6332:	32848413          	addi	s0,s1,808 # 20000328 <Font_7x10>
    6336:	300c                	lbu	a1,1(s0)
    6338:	1141                	addi	sp,sp,-16
    633a:	03258593          	addi	a1,a1,50 # 1032 <rt_kprintf+0x44>
    633e:	c62e                	sw	a1,12(sp)
    6340:	812fe0ef          	jal	ra,4352 <getDeepVibrato>
    6344:	45b2                	lw	a1,12(sp)
    6346:	01051613          	slli	a2,a0,0x10
    634a:	46c1                	li	a3,16
    634c:	8241                	srli	a2,a2,0x10
    634e:	07800513          	li	a0,120
    6352:	f55fe0ef          	jal	ra,52a6 <Slider_Draw>
    6356:	301c                	lbu	a5,1(s0)
    6358:	03200593          	li	a1,50
    635c:	3284a683          	lw	a3,808(s1)
    6360:	8d9d                	sub	a1,a1,a5
    6362:	4058                	lw	a4,4(s0)
    6364:	0000d637          	lui	a2,0xd
    6368:	05c2                	slli	a1,a1,0x10
    636a:	4801                	li	a6,0
    636c:	7e000793          	li	a5,2016
    6370:	92060613          	addi	a2,a2,-1760 # c920 <Font7x10+0x87c>
    6374:	81c1                	srli	a1,a1,0x10
    6376:	05000513          	li	a0,80
    637a:	f7cfe0ef          	jal	ra,4af6 <ILI9341_WriteString>
    637e:	0141                	addi	sp,sp,16
    6380:	886fa06f          	j	406 <__riscv_restore_0>

00006384 <Change_Global_DeepVibrato>:
    6384:	85efa2ef          	jal	t0,3e2 <__riscv_save_0>
    6388:	9261d503          	lhu	a0,-1754(gp) # 20000446 <pot2Val>
    638c:	4609                	li	a2,2
    638e:	6585                	lui	a1,0x1
    6390:	bcdfe0ef          	jal	ra,4f5c <Clamp>
    6394:	0ff57513          	andi	a0,a0,255
    6398:	00a03533          	snez	a0,a0
    639c:	fcbfd0ef          	jal	ra,4366 <setDeepVibrato>
    63a0:	f8bff0ef          	jal	ra,632a <Draw_Global_DeepVibrato>
    63a4:	862fa06f          	j	406 <__riscv_restore_0>

000063a8 <Draw_Global_SynthMode>:
    63a8:	83afa2ef          	jal	t0,3e2 <__riscv_save_0>
    63ac:	200004b7          	lui	s1,0x20000
    63b0:	32848413          	addi	s0,s1,808 # 20000328 <Font_7x10>
    63b4:	300c                	lbu	a1,1(s0)
    63b6:	1141                	addi	sp,sp,-16
    63b8:	4501                	li	a0,0
    63ba:	03258593          	addi	a1,a1,50 # 1032 <rt_kprintf+0x44>
    63be:	c62e                	sw	a1,12(sp)
    63c0:	f17fd0ef          	jal	ra,42d6 <getSynthMode>
    63c4:	45b2                	lw	a1,12(sp)
    63c6:	01051613          	slli	a2,a0,0x10
    63ca:	46c1                	li	a3,16
    63cc:	8241                	srli	a2,a2,0x10
    63ce:	0c800513          	li	a0,200
    63d2:	ed5fe0ef          	jal	ra,52a6 <Slider_Draw>
    63d6:	301c                	lbu	a5,1(s0)
    63d8:	03200593          	li	a1,50
    63dc:	3284a683          	lw	a3,808(s1)
    63e0:	8d9d                	sub	a1,a1,a5
    63e2:	4058                	lw	a4,4(s0)
    63e4:	0000d637          	lui	a2,0xd
    63e8:	05c2                	slli	a1,a1,0x10
    63ea:	4801                	li	a6,0
    63ec:	7e000793          	li	a5,2016
    63f0:	93860613          	addi	a2,a2,-1736 # c938 <Font7x10+0x894>
    63f4:	81c1                	srli	a1,a1,0x10
    63f6:	0a000513          	li	a0,160
    63fa:	efcfe0ef          	jal	ra,4af6 <ILI9341_WriteString>
    63fe:	0141                	addi	sp,sp,16
    6400:	806fa06f          	j	406 <__riscv_restore_0>

00006404 <Change_Global_SynthMode>:
    6404:	fdff92ef          	jal	t0,3e2 <__riscv_save_0>
    6408:	92a1d503          	lhu	a0,-1750(gp) # 2000044a <pot3Val>
    640c:	4609                	li	a2,2
    640e:	6585                	lui	a1,0x1
    6410:	b4dfe0ef          	jal	ra,4f5c <Clamp>
    6414:	0ff57913          	andi	s2,a0,255
    6418:	4401                	li	s0,0
    641a:	44a5                	li	s1,9
    641c:	8522                	mv	a0,s0
    641e:	0405                	addi	s0,s0,1
    6420:	85ca                	mv	a1,s2
    6422:	0ff47413          	andi	s0,s0,255
    6426:	ec5fd0ef          	jal	ra,42ea <setSynthMode>
    642a:	fe9419e3          	bne	s0,s1,641c <Change_Global_SynthMode+0x18>
    642e:	f7bff0ef          	jal	ra,63a8 <Draw_Global_SynthMode>
    6432:	fd5f906f          	j	406 <__riscv_restore_0>

00006436 <Draw_Global_Feedback>:
    6436:	fadf92ef          	jal	t0,3e2 <__riscv_save_0>
    643a:	200004b7          	lui	s1,0x20000
    643e:	32848413          	addi	s0,s1,808 # 20000328 <Font_7x10>
    6442:	300c                	lbu	a1,1(s0)
    6444:	1141                	addi	sp,sp,-16
    6446:	4501                	li	a0,0
    6448:	03258593          	addi	a1,a1,50 # 1032 <rt_kprintf+0x44>
    644c:	c62e                	sw	a1,12(sp)
    644e:	e49fd0ef          	jal	ra,4296 <getFeedback>
    6452:	45b2                	lw	a1,12(sp)
    6454:	01051613          	slli	a2,a0,0x10
    6458:	46c1                	li	a3,16
    645a:	8241                	srli	a2,a2,0x10
    645c:	11800513          	li	a0,280
    6460:	e47fe0ef          	jal	ra,52a6 <Slider_Draw>
    6464:	301c                	lbu	a5,1(s0)
    6466:	03200593          	li	a1,50
    646a:	3284a683          	lw	a3,808(s1)
    646e:	8d9d                	sub	a1,a1,a5
    6470:	4058                	lw	a4,4(s0)
    6472:	0000d637          	lui	a2,0xd
    6476:	05c2                	slli	a1,a1,0x10
    6478:	4801                	li	a6,0
    647a:	7e000793          	li	a5,2016
    647e:	92c60613          	addi	a2,a2,-1748 # c92c <Font7x10+0x888>
    6482:	81c1                	srli	a1,a1,0x10
    6484:	0f000513          	li	a0,240
    6488:	e6efe0ef          	jal	ra,4af6 <ILI9341_WriteString>
    648c:	0141                	addi	sp,sp,16
    648e:	f79f906f          	j	406 <__riscv_restore_0>

00006492 <Change_Global_Feedback>:
    6492:	f51f92ef          	jal	t0,3e2 <__riscv_save_0>
    6496:	92e1d503          	lhu	a0,-1746(gp) # 2000044e <pot4Val>
    649a:	4621                	li	a2,8
    649c:	6585                	lui	a1,0x1
    649e:	abffe0ef          	jal	ra,4f5c <Clamp>
    64a2:	0ff57913          	andi	s2,a0,255
    64a6:	4401                	li	s0,0
    64a8:	44a5                	li	s1,9
    64aa:	8522                	mv	a0,s0
    64ac:	0405                	addi	s0,s0,1
    64ae:	85ca                	mv	a1,s2
    64b0:	0ff47413          	andi	s0,s0,255
    64b4:	df9fd0ef          	jal	ra,42ac <setFeedback>
    64b8:	fe9419e3          	bne	s0,s1,64aa <Change_Global_Feedback+0x18>
    64bc:	f7bff0ef          	jal	ra,6436 <Draw_Global_Feedback>
    64c0:	f47f906f          	j	406 <__riscv_restore_0>

000064c4 <Initialize_Menu_Pages>:
    64c4:	f1ff92ef          	jal	t0,3e2 <__riscv_save_0>
    64c8:	1141                	addi	sp,sp,-16
    64ca:	f45fe0ef          	jal	ra,540e <Initialize_Menu>
    64ce:	4501                	li	a0,0
    64d0:	f72fe0ef          	jal	ra,4c42 <ILI9341_FillScreen>
    64d4:	200004b7          	lui	s1,0x20000
    64d8:	3204a683          	lw	a3,800(s1) # 20000320 <Font_11x18>
    64dc:	32048493          	addi	s1,s1,800
    64e0:	40d8                	lw	a4,4(s1)
    64e2:	0000d637          	lui	a2,0xd
    64e6:	4801                	li	a6,0
    64e8:	a4c60613          	addi	a2,a2,-1460 # ca4c <Font7x10+0x9a8>
    64ec:	4581                	li	a1,0
    64ee:	4501                	li	a0,0
    64f0:	7e000793          	li	a5,2016
    64f4:	e02fe0ef          	jal	ra,4af6 <ILI9341_WriteString>
    64f8:	20002737          	lui	a4,0x20002
    64fc:	000057b7          	lui	a5,0x5
    6500:	9f870413          	addi	s0,a4,-1544 # 200019f8 <Main_Menu>
    6504:	47c78793          	addi	a5,a5,1148 # 547c <Draw_Operator1_Attack>
    6508:	c81c                	sw	a5,16(s0)
    650a:	000057b7          	lui	a5,0x5
    650e:	52878793          	addi	a5,a5,1320 # 5528 <Change_Operator1_Attack>
    6512:	9ef72c23          	sw	a5,-1544(a4)
    6516:	000057b7          	lui	a5,0x5
    651a:	59078793          	addi	a5,a5,1424 # 5590 <Draw_Operator1_Decay>
    651e:	c85c                	sw	a5,20(s0)
    6520:	000057b7          	lui	a5,0x5
    6524:	64078793          	addi	a5,a5,1600 # 5640 <Change_Operator1_Decay>
    6528:	c05c                	sw	a5,4(s0)
    652a:	000057b7          	lui	a5,0x5
    652e:	6a878793          	addi	a5,a5,1704 # 56a8 <Draw_Operator1_Sustain>
    6532:	cc1c                	sw	a5,24(s0)
    6534:	000057b7          	lui	a5,0x5
    6538:	75878793          	addi	a5,a5,1880 # 5758 <Change_Operator1_Sustain>
    653c:	c41c                	sw	a5,8(s0)
    653e:	000057b7          	lui	a5,0x5
    6542:	7c078793          	addi	a5,a5,1984 # 57c0 <Draw_Operator1_Release>
    6546:	cc5c                	sw	a5,28(s0)
    6548:	000067b7          	lui	a5,0x6
    654c:	88878793          	addi	a5,a5,-1912 # 5888 <Change_Operator1_Release>
    6550:	c45c                	sw	a5,12(s0)
    6552:	000057b7          	lui	a5,0x5
    6556:	4d278793          	addi	a5,a5,1234 # 54d2 <Draw_Operator2_Attack>
    655a:	d81c                	sw	a5,48(s0)
    655c:	000057b7          	lui	a5,0x5
    6560:	55c78793          	addi	a5,a5,1372 # 555c <Change_Operator2_Attack>
    6564:	d01c                	sw	a5,32(s0)
    6566:	000057b7          	lui	a5,0x5
    656a:	5e878793          	addi	a5,a5,1512 # 55e8 <Draw_Operator2_Decay>
    656e:	d85c                	sw	a5,52(s0)
    6570:	000057b7          	lui	a5,0x5
    6574:	67478793          	addi	a5,a5,1652 # 5674 <Change_Operator2_Decay>
    6578:	d05c                	sw	a5,36(s0)
    657a:	000057b7          	lui	a5,0x5
    657e:	70078793          	addi	a5,a5,1792 # 5700 <Draw_Operator2_Sustain>
    6582:	dc1c                	sw	a5,56(s0)
    6584:	000057b7          	lui	a5,0x5
    6588:	78c78793          	addi	a5,a5,1932 # 578c <Change_Operator2_Sustain>
    658c:	d41c                	sw	a5,40(s0)
    658e:	000067b7          	lui	a5,0x6
    6592:	82478793          	addi	a5,a5,-2012 # 5824 <Draw_Operator2_Release>
    6596:	dc5c                	sw	a5,60(s0)
    6598:	000067b7          	lui	a5,0x6
    659c:	8bc78793          	addi	a5,a5,-1860 # 58bc <Change_Operator2_Release>
    65a0:	d45c                	sw	a5,44(s0)
    65a2:	000067b7          	lui	a5,0x6
    65a6:	8f078793          	addi	a5,a5,-1808 # 58f0 <Draw_Operator1_Multiplier>
    65aa:	c83c                	sw	a5,80(s0)
    65ac:	000067b7          	lui	a5,0x6
    65b0:	99c78793          	addi	a5,a5,-1636 # 599c <Change_Operator1_Multiplier>
    65b4:	c03c                	sw	a5,64(s0)
    65b6:	000067b7          	lui	a5,0x6
    65ba:	a0478793          	addi	a5,a5,-1532 # 5a04 <Draw_Operator1_ScalingLevel>
    65be:	c87c                	sw	a5,84(s0)
    65c0:	000067b7          	lui	a5,0x6
    65c4:	ab478793          	addi	a5,a5,-1356 # 5ab4 <Change_Operator1_ScalingLevel>
    65c8:	c07c                	sw	a5,68(s0)
    65ca:	000067b7          	lui	a5,0x6
    65ce:	b1c78793          	addi	a5,a5,-1252 # 5b1c <Draw_Operator1_MaintainSustain>
    65d2:	cc3c                	sw	a5,88(s0)
    65d4:	000067b7          	lui	a5,0x6
    65d8:	bcc78793          	addi	a5,a5,-1076 # 5bcc <Change_Operator1_MaintainSustain>
    65dc:	c43c                	sw	a5,72(s0)
    65de:	000067b7          	lui	a5,0x6
    65e2:	c3c78793          	addi	a5,a5,-964 # 5c3c <Draw_Operator1_WaveForm>
    65e6:	cc7c                	sw	a5,92(s0)
    65e8:	000067b7          	lui	a5,0x6
    65ec:	cec78793          	addi	a5,a5,-788 # 5cec <Change_Operator1_WaveForm>
    65f0:	c47c                	sw	a5,76(s0)
    65f2:	000067b7          	lui	a5,0x6
    65f6:	94678793          	addi	a5,a5,-1722 # 5946 <Draw_Operator2_Multiplier>
    65fa:	d83c                	sw	a5,112(s0)
    65fc:	000067b7          	lui	a5,0x6
    6600:	9d078793          	addi	a5,a5,-1584 # 59d0 <Change_Operator2_Multiplier>
    6604:	d03c                	sw	a5,96(s0)
    6606:	000067b7          	lui	a5,0x6
    660a:	a5c78793          	addi	a5,a5,-1444 # 5a5c <Draw_Operator2_ScalingLevel>
    660e:	d87c                	sw	a5,116(s0)
    6610:	000067b7          	lui	a5,0x6
    6614:	ae878793          	addi	a5,a5,-1304 # 5ae8 <Change_Operator2_ScalingLevel>
    6618:	d07c                	sw	a5,100(s0)
    661a:	000067b7          	lui	a5,0x6
    661e:	b7478793          	addi	a5,a5,-1164 # 5b74 <Draw_Operator2_MaintainSustain>
    6622:	dc3c                	sw	a5,120(s0)
    6624:	000067b7          	lui	a5,0x6
    6628:	c0478793          	addi	a5,a5,-1020 # 5c04 <Change_Operator2_MaintainSustain>
    662c:	d43c                	sw	a5,104(s0)
    662e:	000067b7          	lui	a5,0x6
    6632:	c9478793          	addi	a5,a5,-876 # 5c94 <Draw_Operator2_WaveForm>
    6636:	dc7c                	sw	a5,124(s0)
    6638:	000067b7          	lui	a5,0x6
    663c:	d2078793          	addi	a5,a5,-736 # 5d20 <Change_Operator2_WaveForm>
    6640:	d47c                	sw	a5,108(s0)
    6642:	000067b7          	lui	a5,0x6
    6646:	d5478793          	addi	a5,a5,-684 # 5d54 <Draw_Operator1_Tremolo>
    664a:	08f42823          	sw	a5,144(s0)
    664e:	000067b7          	lui	a5,0x6
    6652:	e0078793          	addi	a5,a5,-512 # 5e00 <Change_Operator1_Tremolo>
    6656:	08f42023          	sw	a5,128(s0)
    665a:	000067b7          	lui	a5,0x6
    665e:	e7078793          	addi	a5,a5,-400 # 5e70 <Draw_Operator1_Vibrato>
    6662:	08f42a23          	sw	a5,148(s0)
    6666:	000067b7          	lui	a5,0x6
    666a:	f2078793          	addi	a5,a5,-224 # 5f20 <Change_Operator1_Vibrato>
    666e:	08f42223          	sw	a5,132(s0)
    6672:	000067b7          	lui	a5,0x6
    6676:	f9078793          	addi	a5,a5,-112 # 5f90 <Draw_Operator1_EnvelopeScaling>
    667a:	08f42c23          	sw	a5,152(s0)
    667e:	000067b7          	lui	a5,0x6
    6682:	04078793          	addi	a5,a5,64 # 6040 <Change_Operator1_EnvelopeScaling>
    6686:	08f42423          	sw	a5,136(s0)
    668a:	000067b7          	lui	a5,0x6
    668e:	0b078793          	addi	a5,a5,176 # 60b0 <Draw_Operator1_Blank>
    6692:	08f42e23          	sw	a5,156(s0)
    6696:	000067b7          	lui	a5,0x6
    669a:	81878793          	addi	a5,a5,-2024 # 5818 <Change_Operator1_Blank>
    669e:	08f42623          	sw	a5,140(s0)
    66a2:	000067b7          	lui	a5,0x6
    66a6:	daa78793          	addi	a5,a5,-598 # 5daa <Draw_Operator2_Tremolo>
    66aa:	0af42823          	sw	a5,176(s0)
    66ae:	000067b7          	lui	a5,0x6
    66b2:	e3878793          	addi	a5,a5,-456 # 5e38 <Change_Operator2_Tremolo>
    66b6:	0af42023          	sw	a5,160(s0)
    66ba:	000067b7          	lui	a5,0x6
    66be:	ec878793          	addi	a5,a5,-312 # 5ec8 <Draw_Operator2_Vibrato>
    66c2:	0af42a23          	sw	a5,180(s0)
    66c6:	000067b7          	lui	a5,0x6
    66ca:	f5878793          	addi	a5,a5,-168 # 5f58 <Change_Operator2_Vibrato>
    66ce:	0af42223          	sw	a5,164(s0)
    66d2:	000067b7          	lui	a5,0x6
    66d6:	fe878793          	addi	a5,a5,-24 # 5fe8 <Draw_Operator2_EnvelopeScaling>
    66da:	0af42c23          	sw	a5,184(s0)
    66de:	000067b7          	lui	a5,0x6
    66e2:	07878793          	addi	a5,a5,120 # 6078 <Change_Operator2_EnvelopeScaling>
    66e6:	0af42423          	sw	a5,168(s0)
    66ea:	000067b7          	lui	a5,0x6
    66ee:	0de78793          	addi	a5,a5,222 # 60de <Draw_Operator2_Blank>
    66f2:	0af42e23          	sw	a5,188(s0)
    66f6:	000067b7          	lui	a5,0x6
    66fa:	87c78793          	addi	a5,a5,-1924 # 587c <Change_Operator2_Blank>
    66fe:	0af42623          	sw	a5,172(s0)
    6702:	000067b7          	lui	a5,0x6
    6706:	2ae78793          	addi	a5,a5,686 # 62ae <Draw_Global_DeepTremolo>
    670a:	0cf42823          	sw	a5,208(s0)
    670e:	000067b7          	lui	a5,0x6
    6712:	30678793          	addi	a5,a5,774 # 6306 <Change_Global_DeepTremolo>
    6716:	0cf42023          	sw	a5,192(s0)
    671a:	000067b7          	lui	a5,0x6
    671e:	32a78793          	addi	a5,a5,810 # 632a <Draw_Global_DeepVibrato>
    6722:	0cf42a23          	sw	a5,212(s0)
    6726:	000067b7          	lui	a5,0x6
    672a:	38478793          	addi	a5,a5,900 # 6384 <Change_Global_DeepVibrato>
    672e:	0cf42223          	sw	a5,196(s0)
    6732:	000067b7          	lui	a5,0x6
    6736:	3a878793          	addi	a5,a5,936 # 63a8 <Draw_Global_SynthMode>
    673a:	0cf42c23          	sw	a5,216(s0)
    673e:	000067b7          	lui	a5,0x6
    6742:	40478793          	addi	a5,a5,1028 # 6404 <Change_Global_SynthMode>
    6746:	0cf42423          	sw	a5,200(s0)
    674a:	000067b7          	lui	a5,0x6
    674e:	43678793          	addi	a5,a5,1078 # 6436 <Draw_Global_Feedback>
    6752:	0cf42e23          	sw	a5,220(s0)
    6756:	000067b7          	lui	a5,0x6
    675a:	49278793          	addi	a5,a5,1170 # 6492 <Change_Global_Feedback>
    675e:	0cf42623          	sw	a5,204(s0)
    6762:	9301c783          	lbu	a5,-1744(gp) # 20000450 <Menu_Index>
    6766:	0796                	slli	a5,a5,0x5
    6768:	97a2                	add	a5,a5,s0
    676a:	4b9c                	lw	a5,16(a5)
    676c:	9782                	jalr	a5
    676e:	9301c783          	lbu	a5,-1744(gp) # 20000450 <Menu_Index>
    6772:	0796                	slli	a5,a5,0x5
    6774:	97a2                	add	a5,a5,s0
    6776:	4bdc                	lw	a5,20(a5)
    6778:	9782                	jalr	a5
    677a:	9301c783          	lbu	a5,-1744(gp) # 20000450 <Menu_Index>
    677e:	0796                	slli	a5,a5,0x5
    6780:	97a2                	add	a5,a5,s0
    6782:	4f9c                	lw	a5,24(a5)
    6784:	9782                	jalr	a5
    6786:	9301c783          	lbu	a5,-1744(gp) # 20000450 <Menu_Index>
    678a:	0796                	slli	a5,a5,0x5
    678c:	943e                	add	s0,s0,a5
    678e:	4c5c                	lw	a5,28(s0)
    6790:	9782                	jalr	a5
    6792:	756e67b7          	lui	a5,0x756e6
    6796:	54d78793          	addi	a5,a5,1357 # 756e654d <_eusrstack+0x556d654d>
    679a:	c23e                	sw	a5,4(sp)
    679c:	676157b7          	lui	a5,0x67615
    67a0:	02078793          	addi	a5,a5,32 # 67615020 <_eusrstack+0x47605020>
    67a4:	c43e                	sw	a5,8(sp)
    67a6:	6789                	lui	a5,0x2
    67a8:	06578793          	addi	a5,a5,101 # 2065 <list_msgqueue+0x1d>
    67ac:	867c                	sh	a5,12(sp)
    67ae:	20000737          	lui	a4,0x20000
    67b2:	9301c783          	lbu	a5,-1744(gp) # 20000450 <Menu_Index>
    67b6:	308c                	lbu	a1,1(s1)
    67b8:	32872683          	lw	a3,808(a4) # 20000328 <Font_7x10>
    67bc:	32870713          	addi	a4,a4,808
    67c0:	4358                	lw	a4,4(a4)
    67c2:	03178793          	addi	a5,a5,49
    67c6:	875c                	sb	a5,14(sp)
    67c8:	0050                	addi	a2,sp,4
    67ca:	4801                	li	a6,0
    67cc:	7e000793          	li	a5,2016
    67d0:	0595                	addi	a1,a1,5
    67d2:	4501                	li	a0,0
    67d4:	000107a3          	sb	zero,15(sp)
    67d8:	b1efe0ef          	jal	ra,4af6 <ILI9341_WriteString>
    67dc:	0141                	addi	sp,sp,16
    67de:	c29f906f          	j	406 <__riscv_restore_0>

000067e2 <Setup_Inputs>:
    67e2:	c01f92ef          	jal	t0,3e2 <__riscv_save_0>
    67e6:	845fe0ef          	jal	ra,502a <Inputs_Init>
    67ea:	000067b7          	lui	a5,0x6
    67ee:	0ea78793          	addi	a5,a5,234 # 60ea <Handle_Button_Left>
    67f2:	90f1a423          	sw	a5,-1784(gp) # 20000428 <Button_Left_Interrupt_Handler>
    67f6:	000067b7          	lui	a5,0x6
    67fa:	1ca78793          	addi	a5,a5,458 # 61ca <Handle_Button_Right>
    67fe:	90f1a623          	sw	a5,-1780(gp) # 2000042c <Button_Right_Interrupt_Handler>
    6802:	c05f906f          	j	406 <__riscv_restore_0>

00006806 <Setup_MIDI>:
    6806:	bddf92ef          	jal	t0,3e2 <__riscv_save_0>
    680a:	c80fe0ef          	jal	ra,4c8a <UART_Init>
    680e:	000047b7          	lui	a5,0x4
    6812:	48478793          	addi	a5,a5,1156 # 4484 <MIDI_Note_On>
    6816:	8ef1ae23          	sw	a5,-1796(gp) # 2000041c <Note_On>
    681a:	000047b7          	lui	a5,0x4
    681e:	4ec78793          	addi	a5,a5,1260 # 44ec <MIDI_Note_Off>
    6822:	8ef1ac23          	sw	a5,-1800(gp) # 20000418 <Note_Off>
    6826:	be1f906f          	j	406 <__riscv_restore_0>

0000682a <main>:
    682a:	bb9f92ef          	jal	t0,3e2 <__riscv_save_0>
    682e:	4509                	li	a0,2
    6830:	78c000ef          	jal	ra,6fbc <NVIC_PriorityGroupConfig>
    6834:	0000d537          	lui	a0,0xd
    6838:	a6450513          	addi	a0,a0,-1436 # ca64 <Font7x10+0x9c0>
    683c:	fb2fa0ef          	jal	ra,fee <rt_kprintf>
    6840:	81c1a583          	lw	a1,-2020(gp) # 2000033c <SystemCoreClock>
    6844:	0000d537          	lui	a0,0xd
    6848:	a7850513          	addi	a0,a0,-1416 # ca78 <Font7x10+0x9d4>
    684c:	fa2fa0ef          	jal	ra,fee <rt_kprintf>
    6850:	0000d537          	lui	a0,0xd
    6854:	a8850513          	addi	a0,a0,-1400 # ca88 <Font7x10+0x9e4>
    6858:	f96fa0ef          	jal	ra,fee <rt_kprintf>
    685c:	0000d537          	lui	a0,0xd
    6860:	a9850513          	addi	a0,a0,-1384 # ca98 <Font7x10+0x9f4>
    6864:	f8afa0ef          	jal	ra,fee <rt_kprintf>
    6868:	cebfd0ef          	jal	ra,4552 <ILI9341_GPIO_Init>
    686c:	fb7fd0ef          	jal	ra,4822 <ILI9341_TurnOff>
    6870:	eddfd0ef          	jal	ra,474c <ILI9341_Unselect>
    6874:	d89fd0ef          	jal	ra,45fc <ILI9341_SPI_Init>
    6878:	fc1fd0ef          	jal	ra,4838 <ILI9341_Init>
    687c:	4501                	li	a0,0
    687e:	bc4fe0ef          	jal	ra,4c42 <ILI9341_FillScreen>
    6882:	f8bfd0ef          	jal	ra,480c <ILI9341_TurnOn>
    6886:	da2fd0ef          	jal	ra,3e28 <YM3812_Begin>
    688a:	c3bff0ef          	jal	ra,64c4 <Initialize_Menu_Pages>
    688e:	d86fe0ef          	jal	ra,4e14 <ADC_Function_Init>
    6892:	f51ff0ef          	jal	ra,67e2 <Setup_Inputs>
    6896:	f71ff0ef          	jal	ra,6806 <Setup_MIDI>
    689a:	20002437          	lui	s0,0x20002
    689e:	00005637          	lui	a2,0x5
    68a2:	0000d5b7          	lui	a1,0xd
    68a6:	ad840513          	addi	a0,s0,-1320 # 20001ad8 <PollTimer>
    68aa:	4789                	li	a5,2
    68ac:	06400713          	li	a4,100
    68b0:	4681                	li	a3,0
    68b2:	13260613          	addi	a2,a2,306 # 5132 <Poll_Inputs>
    68b6:	adc58593          	addi	a1,a1,-1316 # cadc <Font7x10+0xa38>
    68ba:	8f0fb0ef          	jal	ra,19aa <rt_timer_init>
    68be:	ad840513          	addi	a0,s0,-1320
    68c2:	940fb0ef          	jal	ra,1a02 <rt_timer_start>
    68c6:	3e800513          	li	a0,1000
    68ca:	848fb0ef          	jal	ra,1912 <rt_thread_mdelay>
    68ce:	bfe5                	j	68c6 <main+0x9c>

000068d0 <SystemInit>:
    68d0:	400217b7          	lui	a5,0x40021
    68d4:	4398                	lw	a4,0(a5)
    68d6:	f8ff06b7          	lui	a3,0xf8ff0
    68da:	1141                	addi	sp,sp,-16
    68dc:	00176713          	ori	a4,a4,1
    68e0:	c398                	sw	a4,0(a5)
    68e2:	43d8                	lw	a4,4(a5)
    68e4:	00020637          	lui	a2,0x20
    68e8:	8f75                	and	a4,a4,a3
    68ea:	c3d8                	sw	a4,4(a5)
    68ec:	4398                	lw	a4,0(a5)
    68ee:	fef706b7          	lui	a3,0xfef70
    68f2:	16fd                	addi	a3,a3,-1
    68f4:	8f75                	and	a4,a4,a3
    68f6:	c398                	sw	a4,0(a5)
    68f8:	4398                	lw	a4,0(a5)
    68fa:	fffc06b7          	lui	a3,0xfffc0
    68fe:	16fd                	addi	a3,a3,-1
    6900:	8f75                	and	a4,a4,a3
    6902:	c398                	sw	a4,0(a5)
    6904:	43d8                	lw	a4,4(a5)
    6906:	ff8106b7          	lui	a3,0xff810
    690a:	16fd                	addi	a3,a3,-1
    690c:	8f75                	and	a4,a4,a3
    690e:	c3d8                	sw	a4,4(a5)
    6910:	4398                	lw	a4,0(a5)
    6912:	ec0006b7          	lui	a3,0xec000
    6916:	16fd                	addi	a3,a3,-1
    6918:	8f75                	and	a4,a4,a3
    691a:	c398                	sw	a4,0(a5)
    691c:	00ff0737          	lui	a4,0xff0
    6920:	c798                	sw	a4,8(a5)
    6922:	0207a623          	sw	zero,44(a5) # 4002102c <_eusrstack+0x2001102c>
    6926:	c402                	sw	zero,8(sp)
    6928:	c602                	sw	zero,12(sp)
    692a:	4398                	lw	a4,0(a5)
    692c:	66c1                	lui	a3,0x10
    692e:	8f55                	or	a4,a4,a3
    6930:	c398                	sw	a4,0(a5)
    6932:	400216b7          	lui	a3,0x40021
    6936:	6705                	lui	a4,0x1
    6938:	429c                	lw	a5,0(a3)
    693a:	8ff1                	and	a5,a5,a2
    693c:	c63e                	sw	a5,12(sp)
    693e:	47a2                	lw	a5,8(sp)
    6940:	0785                	addi	a5,a5,1
    6942:	c43e                	sw	a5,8(sp)
    6944:	47b2                	lw	a5,12(sp)
    6946:	e781                	bnez	a5,694e <SystemInit+0x7e>
    6948:	47a2                	lw	a5,8(sp)
    694a:	fee797e3          	bne	a5,a4,6938 <SystemInit+0x68>
    694e:	400217b7          	lui	a5,0x40021
    6952:	439c                	lw	a5,0(a5)
    6954:	00e79713          	slli	a4,a5,0xe
    6958:	06075663          	bgez	a4,69c4 <SystemInit+0xf4>
    695c:	4785                	li	a5,1
    695e:	c63e                	sw	a5,12(sp)
    6960:	4732                	lw	a4,12(sp)
    6962:	4785                	li	a5,1
    6964:	04f71e63          	bne	a4,a5,69c0 <SystemInit+0xf0>
    6968:	400217b7          	lui	a5,0x40021
    696c:	43d8                	lw	a4,4(a5)
    696e:	ffc106b7          	lui	a3,0xffc10
    6972:	16fd                	addi	a3,a3,-1
    6974:	c3d8                	sw	a4,4(a5)
    6976:	43d8                	lw	a4,4(a5)
    6978:	c3d8                	sw	a4,4(a5)
    697a:	43d8                	lw	a4,4(a5)
    697c:	40076713          	ori	a4,a4,1024
    6980:	c3d8                	sw	a4,4(a5)
    6982:	43d8                	lw	a4,4(a5)
    6984:	8f75                	and	a4,a4,a3
    6986:	c3d8                	sw	a4,4(a5)
    6988:	43d8                	lw	a4,4(a5)
    698a:	66c1                	lui	a3,0x10
    698c:	8f55                	or	a4,a4,a3
    698e:	c3d8                	sw	a4,4(a5)
    6990:	4398                	lw	a4,0(a5)
    6992:	010006b7          	lui	a3,0x1000
    6996:	8f55                	or	a4,a4,a3
    6998:	c398                	sw	a4,0(a5)
    699a:	4398                	lw	a4,0(a5)
    699c:	00671693          	slli	a3,a4,0x6
    69a0:	fe06dde3          	bgez	a3,699a <SystemInit+0xca>
    69a4:	43d8                	lw	a4,4(a5)
    69a6:	400216b7          	lui	a3,0x40021
    69aa:	9b71                	andi	a4,a4,-4
    69ac:	c3d8                	sw	a4,4(a5)
    69ae:	43d8                	lw	a4,4(a5)
    69b0:	00276713          	ori	a4,a4,2
    69b4:	c3d8                	sw	a4,4(a5)
    69b6:	4721                	li	a4,8
    69b8:	42dc                	lw	a5,4(a3)
    69ba:	8bb1                	andi	a5,a5,12
    69bc:	fee79ee3          	bne	a5,a4,69b8 <SystemInit+0xe8>
    69c0:	0141                	addi	sp,sp,16
    69c2:	8082                	ret
    69c4:	c602                	sw	zero,12(sp)
    69c6:	bf69                	j	6960 <SystemInit+0x90>
    69c8:	a001                	j	69c8 <SystemInit+0xf8>
    69ca:	a001                	j	69ca <SystemInit+0xfa>

000069cc <Ecall_M_Mode_Handler>:
    69cc:	a001                	j	69cc <Ecall_M_Mode_Handler>

000069ce <Ecall_U_Mode_Handler>:
    69ce:	a001                	j	69ce <Ecall_U_Mode_Handler>

000069d0 <Break_Point_Handler>:
    69d0:	a001                	j	69d0 <Break_Point_Handler>
    69d2:	a001                	j	69d2 <Break_Point_Handler+0x2>
    69d4:	a001                	j	69d4 <Break_Point_Handler+0x4>

000069d6 <WWDG_IRQHandler>:
    69d6:	a001                	j	69d6 <WWDG_IRQHandler>

000069d8 <PVD_IRQHandler>:
    69d8:	a001                	j	69d8 <PVD_IRQHandler>

000069da <TAMPER_IRQHandler>:
    69da:	a001                	j	69da <TAMPER_IRQHandler>

000069dc <RTC_IRQHandler>:
    69dc:	a001                	j	69dc <RTC_IRQHandler>

000069de <FLASH_IRQHandler>:
    69de:	a001                	j	69de <FLASH_IRQHandler>

000069e0 <RCC_IRQHandler>:
    69e0:	a001                	j	69e0 <RCC_IRQHandler>
    69e2:	a001                	j	69e2 <RCC_IRQHandler+0x2>
    69e4:	a001                	j	69e4 <RCC_IRQHandler+0x4>
    69e6:	a001                	j	69e6 <RCC_IRQHandler+0x6>
    69e8:	a001                	j	69e8 <RCC_IRQHandler+0x8>
    69ea:	a001                	j	69ea <RCC_IRQHandler+0xa>

000069ec <DMA1_Channel1_IRQHandler>:
    69ec:	a001                	j	69ec <DMA1_Channel1_IRQHandler>

000069ee <DMA1_Channel2_IRQHandler>:
    69ee:	a001                	j	69ee <DMA1_Channel2_IRQHandler>

000069f0 <DMA1_Channel3_IRQHandler>:
    69f0:	a001                	j	69f0 <DMA1_Channel3_IRQHandler>

000069f2 <DMA1_Channel4_IRQHandler>:
    69f2:	a001                	j	69f2 <DMA1_Channel4_IRQHandler>

000069f4 <DMA1_Channel5_IRQHandler>:
    69f4:	a001                	j	69f4 <DMA1_Channel5_IRQHandler>

000069f6 <DMA1_Channel6_IRQHandler>:
    69f6:	a001                	j	69f6 <DMA1_Channel6_IRQHandler>

000069f8 <DMA1_Channel7_IRQHandler>:
    69f8:	a001                	j	69f8 <DMA1_Channel7_IRQHandler>

000069fa <ADC1_2_IRQHandler>:
    69fa:	a001                	j	69fa <ADC1_2_IRQHandler>

000069fc <USB_HP_CAN1_TX_IRQHandler>:
    69fc:	a001                	j	69fc <USB_HP_CAN1_TX_IRQHandler>

000069fe <USB_LP_CAN1_RX0_IRQHandler>:
    69fe:	a001                	j	69fe <USB_LP_CAN1_RX0_IRQHandler>

00006a00 <CAN1_RX1_IRQHandler>:
    6a00:	a001                	j	6a00 <CAN1_RX1_IRQHandler>

00006a02 <CAN1_SCE_IRQHandler>:
    6a02:	a001                	j	6a02 <CAN1_SCE_IRQHandler>
    6a04:	a001                	j	6a04 <CAN1_SCE_IRQHandler+0x2>

00006a06 <TIM1_BRK_IRQHandler>:
    6a06:	a001                	j	6a06 <TIM1_BRK_IRQHandler>

00006a08 <TIM1_UP_IRQHandler>:
    6a08:	a001                	j	6a08 <TIM1_UP_IRQHandler>

00006a0a <TIM1_TRG_COM_IRQHandler>:
    6a0a:	a001                	j	6a0a <TIM1_TRG_COM_IRQHandler>

00006a0c <TIM1_CC_IRQHandler>:
    6a0c:	a001                	j	6a0c <TIM1_CC_IRQHandler>

00006a0e <TIM2_IRQHandler>:
    6a0e:	a001                	j	6a0e <TIM2_IRQHandler>

00006a10 <TIM3_IRQHandler>:
    6a10:	a001                	j	6a10 <TIM3_IRQHandler>

00006a12 <TIM4_IRQHandler>:
    6a12:	a001                	j	6a12 <TIM4_IRQHandler>

00006a14 <I2C1_EV_IRQHandler>:
    6a14:	a001                	j	6a14 <I2C1_EV_IRQHandler>

00006a16 <I2C1_ER_IRQHandler>:
    6a16:	a001                	j	6a16 <I2C1_ER_IRQHandler>

00006a18 <I2C2_EV_IRQHandler>:
    6a18:	a001                	j	6a18 <I2C2_EV_IRQHandler>

00006a1a <I2C2_ER_IRQHandler>:
    6a1a:	a001                	j	6a1a <I2C2_ER_IRQHandler>

00006a1c <SPI1_IRQHandler>:
    6a1c:	a001                	j	6a1c <SPI1_IRQHandler>

00006a1e <SPI2_IRQHandler>:
    6a1e:	a001                	j	6a1e <SPI2_IRQHandler>
    6a20:	a001                	j	6a20 <SPI2_IRQHandler+0x2>

00006a22 <USART2_IRQHandler>:
    6a22:	a001                	j	6a22 <USART2_IRQHandler>
    6a24:	a001                	j	6a24 <USART2_IRQHandler+0x2>
    6a26:	a001                	j	6a26 <USART2_IRQHandler+0x4>

00006a28 <RTCAlarm_IRQHandler>:
    6a28:	a001                	j	6a28 <RTCAlarm_IRQHandler>

00006a2a <USBWakeUp_IRQHandler>:
    6a2a:	a001                	j	6a2a <USBWakeUp_IRQHandler>

00006a2c <TIM8_BRK_IRQHandler>:
    6a2c:	a001                	j	6a2c <TIM8_BRK_IRQHandler>

00006a2e <TIM8_UP_IRQHandler>:
    6a2e:	a001                	j	6a2e <TIM8_UP_IRQHandler>

00006a30 <TIM8_TRG_COM_IRQHandler>:
    6a30:	a001                	j	6a30 <TIM8_TRG_COM_IRQHandler>

00006a32 <TIM8_CC_IRQHandler>:
    6a32:	a001                	j	6a32 <TIM8_CC_IRQHandler>

00006a34 <RNG_IRQHandler>:
    6a34:	a001                	j	6a34 <RNG_IRQHandler>

00006a36 <FSMC_IRQHandler>:
    6a36:	a001                	j	6a36 <FSMC_IRQHandler>

00006a38 <SDIO_IRQHandler>:
    6a38:	a001                	j	6a38 <SDIO_IRQHandler>

00006a3a <TIM5_IRQHandler>:
    6a3a:	a001                	j	6a3a <TIM5_IRQHandler>

00006a3c <SPI3_IRQHandler>:
    6a3c:	a001                	j	6a3c <SPI3_IRQHandler>

00006a3e <UART4_IRQHandler>:
    6a3e:	a001                	j	6a3e <UART4_IRQHandler>

00006a40 <UART5_IRQHandler>:
    6a40:	a001                	j	6a40 <UART5_IRQHandler>

00006a42 <TIM6_IRQHandler>:
    6a42:	a001                	j	6a42 <TIM6_IRQHandler>

00006a44 <TIM7_IRQHandler>:
    6a44:	a001                	j	6a44 <TIM7_IRQHandler>

00006a46 <DMA2_Channel1_IRQHandler>:
    6a46:	a001                	j	6a46 <DMA2_Channel1_IRQHandler>

00006a48 <DMA2_Channel2_IRQHandler>:
    6a48:	a001                	j	6a48 <DMA2_Channel2_IRQHandler>

00006a4a <DMA2_Channel3_IRQHandler>:
    6a4a:	a001                	j	6a4a <DMA2_Channel3_IRQHandler>

00006a4c <DMA2_Channel4_IRQHandler>:
    6a4c:	a001                	j	6a4c <DMA2_Channel4_IRQHandler>

00006a4e <DMA2_Channel5_IRQHandler>:
    6a4e:	a001                	j	6a4e <DMA2_Channel5_IRQHandler>

00006a50 <ETH_IRQHandler>:
    6a50:	a001                	j	6a50 <ETH_IRQHandler>

00006a52 <ETH_WKUP_IRQHandler>:
    6a52:	a001                	j	6a52 <ETH_WKUP_IRQHandler>

00006a54 <CAN2_TX_IRQHandler>:
    6a54:	a001                	j	6a54 <CAN2_TX_IRQHandler>

00006a56 <CAN2_RX0_IRQHandler>:
    6a56:	a001                	j	6a56 <CAN2_RX0_IRQHandler>

00006a58 <CAN2_RX1_IRQHandler>:
    6a58:	a001                	j	6a58 <CAN2_RX1_IRQHandler>

00006a5a <CAN2_SCE_IRQHandler>:
    6a5a:	a001                	j	6a5a <CAN2_SCE_IRQHandler>

00006a5c <OTG_FS_IRQHandler>:
    6a5c:	a001                	j	6a5c <OTG_FS_IRQHandler>

00006a5e <USBHSWakeup_IRQHandler>:
    6a5e:	a001                	j	6a5e <USBHSWakeup_IRQHandler>

00006a60 <USBHS_IRQHandler>:
    6a60:	a001                	j	6a60 <USBHS_IRQHandler>

00006a62 <DVP_IRQHandler>:
    6a62:	a001                	j	6a62 <DVP_IRQHandler>

00006a64 <UART6_IRQHandler>:
    6a64:	a001                	j	6a64 <UART6_IRQHandler>

00006a66 <UART7_IRQHandler>:
    6a66:	a001                	j	6a66 <UART7_IRQHandler>

00006a68 <UART8_IRQHandler>:
    6a68:	a001                	j	6a68 <UART8_IRQHandler>

00006a6a <TIM9_BRK_IRQHandler>:
    6a6a:	a001                	j	6a6a <TIM9_BRK_IRQHandler>

00006a6c <TIM9_UP_IRQHandler>:
    6a6c:	a001                	j	6a6c <TIM9_UP_IRQHandler>

00006a6e <TIM9_TRG_COM_IRQHandler>:
    6a6e:	a001                	j	6a6e <TIM9_TRG_COM_IRQHandler>

00006a70 <TIM9_CC_IRQHandler>:
    6a70:	a001                	j	6a70 <TIM9_CC_IRQHandler>

00006a72 <TIM10_BRK_IRQHandler>:
    6a72:	a001                	j	6a72 <TIM10_BRK_IRQHandler>

00006a74 <TIM10_UP_IRQHandler>:
    6a74:	a001                	j	6a74 <TIM10_UP_IRQHandler>

00006a76 <TIM10_TRG_COM_IRQHandler>:
    6a76:	a001                	j	6a76 <TIM10_TRG_COM_IRQHandler>

00006a78 <TIM10_CC_IRQHandler>:
    6a78:	a001                	j	6a78 <TIM10_CC_IRQHandler>

00006a7a <DMA2_Channel6_IRQHandler>:
    6a7a:	a001                	j	6a7a <DMA2_Channel6_IRQHandler>

00006a7c <DMA2_Channel7_IRQHandler>:
    6a7c:	a001                	j	6a7c <DMA2_Channel7_IRQHandler>

00006a7e <DMA2_Channel8_IRQHandler>:
    6a7e:	a001                	j	6a7e <DMA2_Channel8_IRQHandler>

00006a80 <DMA2_Channel9_IRQHandler>:
    6a80:	a001                	j	6a80 <DMA2_Channel9_IRQHandler>

00006a82 <DMA2_Channel10_IRQHandler>:
    6a82:	a001                	j	6a82 <DMA2_Channel10_IRQHandler>

00006a84 <DMA2_Channel11_IRQHandler>:
    6a84:	a001                	j	6a84 <DMA2_Channel11_IRQHandler>

00006a86 <handle_reset>:
    6a86:	34129073          	csrw	mepc,t0
    6a8a:	1fffa197          	auipc	gp,0x1fffa
    6a8e:	09618193          	addi	gp,gp,150 # 20000b20 <__global_pointer$>
    6a92:	20009117          	auipc	sp,0x20009
    6a96:	56e10113          	addi	sp,sp,1390 # 20010000 <_eusrstack>
    6a9a:	00006517          	auipc	a0,0x6
    6a9e:	67e50513          	addi	a0,a0,1662 # d118 <__rt_init_end>
    6aa2:	1fff9597          	auipc	a1,0x1fff9
    6aa6:	55e58593          	addi	a1,a1,1374 # 20000000 <_data_vma>
    6aaa:	84818613          	addi	a2,gp,-1976 # 20000368 <_edata>
    6aae:	00c5fa63          	bgeu	a1,a2,6ac2 <handle_reset+0x3c>
    6ab2:	00052283          	lw	t0,0(a0)
    6ab6:	0055a023          	sw	t0,0(a1)
    6aba:	0511                	addi	a0,a0,4
    6abc:	0591                	addi	a1,a1,4
    6abe:	fec5eae3          	bltu	a1,a2,6ab2 <handle_reset+0x2c>
    6ac2:	84818513          	addi	a0,gp,-1976 # 20000368 <_edata>
    6ac6:	1fffb597          	auipc	a1,0x1fffb
    6aca:	04258593          	addi	a1,a1,66 # 20001b08 <_ebss>
    6ace:	00b57763          	bgeu	a0,a1,6adc <handle_reset+0x56>
    6ad2:	00052023          	sw	zero,0(a0)
    6ad6:	0511                	addi	a0,a0,4
    6ad8:	feb56de3          	bltu	a0,a1,6ad2 <handle_reset+0x4c>
    6adc:	42fd                	li	t0,31
    6ade:	bc029073          	csrw	0xbc0,t0
    6ae2:	42fd                	li	t0,31
    6ae4:	80429073          	csrw	0x804,t0
    6ae8:	000082b7          	lui	t0,0x8
    6aec:	80028293          	addi	t0,t0,-2048 # 7800 <__muldf3+0x3e6>
    6af0:	3002a073          	csrs	mstatus,t0
    6af4:	ffff9297          	auipc	t0,0xffff9
    6af8:	54428293          	addi	t0,t0,1348 # 38 <_einit>
    6afc:	0032e293          	ori	t0,t0,3
    6b00:	30529073          	csrw	mtvec,t0
    6b04:	dcdff0ef          	jal	ra,68d0 <SystemInit>
    6b08:	ffffa297          	auipc	t0,0xffffa
    6b0c:	ab028293          	addi	t0,t0,-1360 # 5b8 <entry>
    6b10:	34129073          	csrw	mepc,t0
    6b14:	30200073          	mret

00006b18 <ADC_DeInit>:
    6b18:	8cbf92ef          	jal	t0,3e2 <__riscv_save_0>
    6b1c:	400127b7          	lui	a5,0x40012
    6b20:	40078793          	addi	a5,a5,1024 # 40012400 <_eusrstack+0x20002400>
    6b24:	00f51c63          	bne	a0,a5,6b3c <ADC_DeInit+0x24>
    6b28:	4585                	li	a1,1
    6b2a:	20000513          	li	a0,512
    6b2e:	2579                	jal	71bc <RCC_APB2PeriphResetCmd>
    6b30:	4581                	li	a1,0
    6b32:	20000513          	li	a0,512
    6b36:	2559                	jal	71bc <RCC_APB2PeriphResetCmd>
    6b38:	8cff906f          	j	406 <__riscv_restore_0>
    6b3c:	400137b7          	lui	a5,0x40013
    6b40:	80078793          	addi	a5,a5,-2048 # 40012800 <_eusrstack+0x20002800>
    6b44:	fef51ae3          	bne	a0,a5,6b38 <ADC_DeInit+0x20>
    6b48:	4585                	li	a1,1
    6b4a:	40000513          	li	a0,1024
    6b4e:	25bd                	jal	71bc <RCC_APB2PeriphResetCmd>
    6b50:	4581                	li	a1,0
    6b52:	40000513          	li	a0,1024
    6b56:	b7c5                	j	6b36 <ADC_DeInit+0x1e>

00006b58 <ADC_Init>:
    6b58:	415c                	lw	a5,4(a0)
    6b5a:	e0f10737          	lui	a4,0xe0f10
    6b5e:	eff70713          	addi	a4,a4,-257 # e0f0feff <_eusrstack+0xc0effeff>
    6b62:	4d94                	lw	a3,24(a1)
    6b64:	8f7d                	and	a4,a4,a5
    6b66:	419c                	lw	a5,0(a1)
    6b68:	8fd5                	or	a5,a5,a3
    6b6a:	4dd4                	lw	a3,28(a1)
    6b6c:	8fd5                	or	a5,a5,a3
    6b6e:	41d4                	lw	a3,4(a1)
    6b70:	06a2                	slli	a3,a3,0x8
    6b72:	8fd5                	or	a5,a5,a3
    6b74:	8fd9                	or	a5,a5,a4
    6b76:	c15c                	sw	a5,4(a0)
    6b78:	451c                	lw	a5,8(a0)
    6b7a:	fff1f737          	lui	a4,0xfff1f
    6b7e:	7fd70713          	addi	a4,a4,2045 # fff1f7fd <_eusrstack+0xdff0f7fd>
    6b82:	45d4                	lw	a3,12(a1)
    6b84:	8f7d                	and	a4,a4,a5
    6b86:	499c                	lw	a5,16(a1)
    6b88:	8fd5                	or	a5,a5,a3
    6b8a:	4594                	lw	a3,8(a1)
    6b8c:	0686                	slli	a3,a3,0x1
    6b8e:	8fd5                	or	a5,a5,a3
    6b90:	8fd9                	or	a5,a5,a4
    6b92:	c51c                	sw	a5,8(a0)
    6b94:	555c                	lw	a5,44(a0)
    6b96:	ff100737          	lui	a4,0xff100
    6b9a:	177d                	addi	a4,a4,-1
    6b9c:	8f7d                	and	a4,a4,a5
    6b9e:	29dc                	lbu	a5,20(a1)
    6ba0:	17fd                	addi	a5,a5,-1
    6ba2:	0ff7f793          	andi	a5,a5,255
    6ba6:	07d2                	slli	a5,a5,0x14
    6ba8:	8fd9                	or	a5,a5,a4
    6baa:	d55c                	sw	a5,44(a0)
    6bac:	8082                	ret

00006bae <ADC_Cmd>:
    6bae:	451c                	lw	a5,8(a0)
    6bb0:	c589                	beqz	a1,6bba <ADC_Cmd+0xc>
    6bb2:	0017e793          	ori	a5,a5,1
    6bb6:	c51c                	sw	a5,8(a0)
    6bb8:	8082                	ret
    6bba:	9bf9                	andi	a5,a5,-2
    6bbc:	bfed                	j	6bb6 <ADC_Cmd+0x8>

00006bbe <ADC_ResetCalibration>:
    6bbe:	451c                	lw	a5,8(a0)
    6bc0:	0087e793          	ori	a5,a5,8
    6bc4:	c51c                	sw	a5,8(a0)
    6bc6:	8082                	ret

00006bc8 <ADC_GetResetCalibrationStatus>:
    6bc8:	4508                	lw	a0,8(a0)
    6bca:	810d                	srli	a0,a0,0x3
    6bcc:	8905                	andi	a0,a0,1
    6bce:	8082                	ret

00006bd0 <ADC_StartCalibration>:
    6bd0:	451c                	lw	a5,8(a0)
    6bd2:	0047e793          	ori	a5,a5,4
    6bd6:	c51c                	sw	a5,8(a0)
    6bd8:	8082                	ret

00006bda <ADC_GetCalibrationStatus>:
    6bda:	4508                	lw	a0,8(a0)
    6bdc:	8109                	srli	a0,a0,0x2
    6bde:	8905                	andi	a0,a0,1
    6be0:	8082                	ret

00006be2 <ADC_SoftwareStartConvCmd>:
    6be2:	451c                	lw	a5,8(a0)
    6be4:	c591                	beqz	a1,6bf0 <ADC_SoftwareStartConvCmd+0xe>
    6be6:	00500737          	lui	a4,0x500
    6bea:	8fd9                	or	a5,a5,a4
    6bec:	c51c                	sw	a5,8(a0)
    6bee:	8082                	ret
    6bf0:	ffb00737          	lui	a4,0xffb00
    6bf4:	177d                	addi	a4,a4,-1
    6bf6:	8ff9                	and	a5,a5,a4
    6bf8:	bfd5                	j	6bec <ADC_SoftwareStartConvCmd+0xa>

00006bfa <ADC_DiscModeChannelCountConfig>:
    6bfa:	415c                	lw	a5,4(a0)
    6bfc:	7749                	lui	a4,0xffff2
    6bfe:	177d                	addi	a4,a4,-1
    6c00:	15fd                	addi	a1,a1,-1
    6c02:	8ff9                	and	a5,a5,a4
    6c04:	05b6                	slli	a1,a1,0xd
    6c06:	8ddd                	or	a1,a1,a5
    6c08:	c14c                	sw	a1,4(a0)
    6c0a:	8082                	ret

00006c0c <ADC_RegularChannelConfig>:
    6c0c:	47a5                	li	a5,9
    6c0e:	04b7f763          	bgeu	a5,a1,6c5c <ADC_RegularChannelConfig+0x50>
    6c12:	478d                	li	a5,3
    6c14:	ff658713          	addi	a4,a1,-10
    6c18:	02f70733          	mul	a4,a4,a5
    6c1c:	00c52803          	lw	a6,12(a0)
    6c20:	479d                	li	a5,7
    6c22:	00e797b3          	sll	a5,a5,a4
    6c26:	fff7c793          	not	a5,a5
    6c2a:	0107f7b3          	and	a5,a5,a6
    6c2e:	00e696b3          	sll	a3,a3,a4
    6c32:	8edd                	or	a3,a3,a5
    6c34:	c554                	sw	a3,12(a0)
    6c36:	4799                	li	a5,6
    6c38:	04c7e363          	bltu	a5,a2,6c7e <ADC_RegularChannelConfig+0x72>
    6c3c:	4795                	li	a5,5
    6c3e:	167d                	addi	a2,a2,-1
    6c40:	02f60633          	mul	a2,a2,a5
    6c44:	5958                	lw	a4,52(a0)
    6c46:	47fd                	li	a5,31
    6c48:	00c797b3          	sll	a5,a5,a2
    6c4c:	fff7c793          	not	a5,a5
    6c50:	8ff9                	and	a5,a5,a4
    6c52:	00c59633          	sll	a2,a1,a2
    6c56:	8e5d                	or	a2,a2,a5
    6c58:	d950                	sw	a2,52(a0)
    6c5a:	8082                	ret
    6c5c:	470d                	li	a4,3
    6c5e:	02e58733          	mul	a4,a1,a4
    6c62:	01052803          	lw	a6,16(a0)
    6c66:	479d                	li	a5,7
    6c68:	00e797b3          	sll	a5,a5,a4
    6c6c:	fff7c793          	not	a5,a5
    6c70:	0107f7b3          	and	a5,a5,a6
    6c74:	00e696b3          	sll	a3,a3,a4
    6c78:	8edd                	or	a3,a3,a5
    6c7a:	c914                	sw	a3,16(a0)
    6c7c:	bf6d                	j	6c36 <ADC_RegularChannelConfig+0x2a>
    6c7e:	47b1                	li	a5,12
    6c80:	02c7e263          	bltu	a5,a2,6ca4 <ADC_RegularChannelConfig+0x98>
    6c84:	4795                	li	a5,5
    6c86:	1665                	addi	a2,a2,-7
    6c88:	02f60633          	mul	a2,a2,a5
    6c8c:	5918                	lw	a4,48(a0)
    6c8e:	47fd                	li	a5,31
    6c90:	00c797b3          	sll	a5,a5,a2
    6c94:	fff7c793          	not	a5,a5
    6c98:	8ff9                	and	a5,a5,a4
    6c9a:	00c59633          	sll	a2,a1,a2
    6c9e:	8e5d                	or	a2,a2,a5
    6ca0:	d910                	sw	a2,48(a0)
    6ca2:	8082                	ret
    6ca4:	4795                	li	a5,5
    6ca6:	164d                	addi	a2,a2,-13
    6ca8:	02f60633          	mul	a2,a2,a5
    6cac:	5558                	lw	a4,44(a0)
    6cae:	47fd                	li	a5,31
    6cb0:	00c797b3          	sll	a5,a5,a2
    6cb4:	fff7c793          	not	a5,a5
    6cb8:	8ff9                	and	a5,a5,a4
    6cba:	00c595b3          	sll	a1,a1,a2
    6cbe:	8ddd                	or	a1,a1,a5
    6cc0:	d54c                	sw	a1,44(a0)
    6cc2:	8082                	ret

00006cc4 <ADC_GetConversionValue>:
    6cc4:	4568                	lw	a0,76(a0)
    6cc6:	0542                	slli	a0,a0,0x10
    6cc8:	8141                	srli	a0,a0,0x10
    6cca:	8082                	ret

00006ccc <ADC_GetFlagStatus>:
    6ccc:	4108                	lw	a0,0(a0)
    6cce:	8d6d                	and	a0,a0,a1
    6cd0:	00a03533          	snez	a0,a0
    6cd4:	8082                	ret

00006cd6 <ADC_BufferCmd>:
    6cd6:	415c                	lw	a5,4(a0)
    6cd8:	c591                	beqz	a1,6ce4 <ADC_BufferCmd+0xe>
    6cda:	04000737          	lui	a4,0x4000
    6cde:	8fd9                	or	a5,a5,a4
    6ce0:	c15c                	sw	a5,4(a0)
    6ce2:	8082                	ret
    6ce4:	fc000737          	lui	a4,0xfc000
    6ce8:	177d                	addi	a4,a4,-1
    6cea:	8ff9                	and	a5,a5,a4
    6cec:	bfd5                	j	6ce0 <ADC_BufferCmd+0xa>

00006cee <Get_CalibrationValue>:
    6cee:	ef4f92ef          	jal	t0,3e2 <__riscv_save_0>
    6cf2:	1101                	addi	sp,sp,-32
    6cf4:	842a                	mv	s0,a0
    6cf6:	00010423          	sb	zero,8(sp)
    6cfa:	44a5                	li	s1,9
    6cfc:	841c                	lbu	a5,8(sp)
    6cfe:	04f4f963          	bgeu	s1,a5,6d50 <Get_CalibrationValue+0x62>
    6d02:	00010423          	sb	zero,8(sp)
    6d06:	46a5                	li	a3,9
    6d08:	4621                	li	a2,8
    6d0a:	841c                	lbu	a5,8(sp)
    6d0c:	06f6ff63          	bgeu	a3,a5,6d8a <Get_CalibrationValue+0x9c>
    6d10:	00011523          	sh	zero,10(sp)
    6d14:	00010423          	sb	zero,8(sp)
    6d18:	4695                	li	a3,5
    6d1a:	841c                	lbu	a5,8(sp)
    6d1c:	0ef6f163          	bgeu	a3,a5,6dfe <Get_CalibrationValue+0x110>
    6d20:	8538                	lhu	a4,10(sp)
    6d22:	853c                	lhu	a5,10(sp)
    6d24:	4699                	li	a3,6
    6d26:	460d                	li	a2,3
    6d28:	02d7f7b3          	remu	a5,a5,a3
    6d2c:	6505                	lui	a0,0x1
    6d2e:	80050513          	addi	a0,a0,-2048 # 800 <__stack_size>
    6d32:	02c7d7b3          	divu	a5,a5,a2
    6d36:	02d75733          	divu	a4,a4,a3
    6d3a:	97ba                	add	a5,a5,a4
    6d3c:	07c2                	slli	a5,a5,0x10
    6d3e:	83c1                	srli	a5,a5,0x10
    6d40:	857c                	sh	a5,10(sp)
    6d42:	853c                	lhu	a5,10(sp)
    6d44:	6105                	addi	sp,sp,32
    6d46:	8d1d                	sub	a0,a0,a5
    6d48:	0542                	slli	a0,a0,0x10
    6d4a:	8541                	srai	a0,a0,0x10
    6d4c:	ebaf906f          	j	406 <__riscv_restore_0>
    6d50:	441c                	lw	a5,8(s0)
    6d52:	0087e793          	ori	a5,a5,8
    6d56:	c41c                	sw	a5,8(s0)
    6d58:	8522                	mv	a0,s0
    6d5a:	e6fff0ef          	jal	ra,6bc8 <ADC_GetResetCalibrationStatus>
    6d5e:	fd6d                	bnez	a0,6d58 <Get_CalibrationValue+0x6a>
    6d60:	441c                	lw	a5,8(s0)
    6d62:	0047e793          	ori	a5,a5,4
    6d66:	c41c                	sw	a5,8(s0)
    6d68:	8522                	mv	a0,s0
    6d6a:	e71ff0ef          	jal	ra,6bda <ADC_GetCalibrationStatus>
    6d6e:	fd6d                	bnez	a0,6d68 <Get_CalibrationValue+0x7a>
    6d70:	4478                	lw	a4,76(s0)
    6d72:	841c                	lbu	a5,8(sp)
    6d74:	1014                	addi	a3,sp,32
    6d76:	0786                	slli	a5,a5,0x1
    6d78:	97b6                	add	a5,a5,a3
    6d7a:	fee79623          	sh	a4,-20(a5)
    6d7e:	841c                	lbu	a5,8(sp)
    6d80:	0785                	addi	a5,a5,1
    6d82:	0ff7f793          	andi	a5,a5,255
    6d86:	845c                	sb	a5,8(sp)
    6d88:	bf95                	j	6cfc <Get_CalibrationValue+0xe>
    6d8a:	000104a3          	sb	zero,9(sp)
    6d8e:	849c                	lbu	a5,9(sp)
    6d90:	00f67863          	bgeu	a2,a5,6da0 <Get_CalibrationValue+0xb2>
    6d94:	841c                	lbu	a5,8(sp)
    6d96:	0785                	addi	a5,a5,1
    6d98:	0ff7f793          	andi	a5,a5,255
    6d9c:	845c                	sb	a5,8(sp)
    6d9e:	b7b5                	j	6d0a <Get_CalibrationValue+0x1c>
    6da0:	8498                	lbu	a4,9(sp)
    6da2:	849c                	lbu	a5,9(sp)
    6da4:	100c                	addi	a1,sp,32
    6da6:	0706                	slli	a4,a4,0x1
    6da8:	0785                	addi	a5,a5,1
    6daa:	0786                	slli	a5,a5,0x1
    6dac:	972e                	add	a4,a4,a1
    6dae:	97ae                	add	a5,a5,a1
    6db0:	fec75703          	lhu	a4,-20(a4) # fbffffec <_eusrstack+0xdbfeffec>
    6db4:	fec7d783          	lhu	a5,-20(a5)
    6db8:	02e7fd63          	bgeu	a5,a4,6df2 <Get_CalibrationValue+0x104>
    6dbc:	849c                	lbu	a5,9(sp)
    6dbe:	0786                	slli	a5,a5,0x1
    6dc0:	97ae                	add	a5,a5,a1
    6dc2:	fec7d783          	lhu	a5,-20(a5)
    6dc6:	857c                	sh	a5,10(sp)
    6dc8:	849c                	lbu	a5,9(sp)
    6dca:	8498                	lbu	a4,9(sp)
    6dcc:	0785                	addi	a5,a5,1
    6dce:	0786                	slli	a5,a5,0x1
    6dd0:	97ae                	add	a5,a5,a1
    6dd2:	fec7d583          	lhu	a1,-20(a5)
    6dd6:	00171793          	slli	a5,a4,0x1
    6dda:	1018                	addi	a4,sp,32
    6ddc:	97ba                	add	a5,a5,a4
    6dde:	feb79623          	sh	a1,-20(a5)
    6de2:	849c                	lbu	a5,9(sp)
    6de4:	8538                	lhu	a4,10(sp)
    6de6:	100c                	addi	a1,sp,32
    6de8:	0785                	addi	a5,a5,1
    6dea:	0786                	slli	a5,a5,0x1
    6dec:	97ae                	add	a5,a5,a1
    6dee:	fee79623          	sh	a4,-20(a5)
    6df2:	849c                	lbu	a5,9(sp)
    6df4:	0785                	addi	a5,a5,1
    6df6:	0ff7f793          	andi	a5,a5,255
    6dfa:	84dc                	sb	a5,9(sp)
    6dfc:	bf49                	j	6d8e <Get_CalibrationValue+0xa0>
    6dfe:	841c                	lbu	a5,8(sp)
    6e00:	1010                	addi	a2,sp,32
    6e02:	8538                	lhu	a4,10(sp)
    6e04:	0789                	addi	a5,a5,2
    6e06:	0786                	slli	a5,a5,0x1
    6e08:	97b2                	add	a5,a5,a2
    6e0a:	fec7d783          	lhu	a5,-20(a5)
    6e0e:	97ba                	add	a5,a5,a4
    6e10:	07c2                	slli	a5,a5,0x10
    6e12:	83c1                	srli	a5,a5,0x10
    6e14:	857c                	sh	a5,10(sp)
    6e16:	841c                	lbu	a5,8(sp)
    6e18:	0785                	addi	a5,a5,1
    6e1a:	0ff7f793          	andi	a5,a5,255
    6e1e:	845c                	sb	a5,8(sp)
    6e20:	bded                	j	6d1a <Get_CalibrationValue+0x2c>

00006e22 <EXTI_Init>:
    6e22:	4158                	lw	a4,4(a0)
    6e24:	00052803          	lw	a6,0(a0)
    6e28:	454c                	lw	a1,12(a0)
    6e2a:	40010637          	lui	a2,0x40010
    6e2e:	40060793          	addi	a5,a2,1024 # 40010400 <_eusrstack+0x20000400>
    6e32:	973e                	add	a4,a4,a5
    6e34:	fff84693          	not	a3,a6
    6e38:	c5b1                	beqz	a1,6e84 <EXTI_Init+0x62>
    6e3a:	40062583          	lw	a1,1024(a2)
    6e3e:	8df5                	and	a1,a1,a3
    6e40:	40b62023          	sw	a1,1024(a2)
    6e44:	43d0                	lw	a2,4(a5)
    6e46:	8ef1                	and	a3,a3,a2
    6e48:	c3d4                	sw	a3,4(a5)
    6e4a:	4314                	lw	a3,0(a4)
    6e4c:	0106e6b3          	or	a3,a3,a6
    6e50:	c314                	sw	a3,0(a4)
    6e52:	4118                	lw	a4,0(a0)
    6e54:	4790                	lw	a2,8(a5)
    6e56:	fff74693          	not	a3,a4
    6e5a:	8e75                	and	a2,a2,a3
    6e5c:	c790                	sw	a2,8(a5)
    6e5e:	47d0                	lw	a2,12(a5)
    6e60:	8ef1                	and	a3,a3,a2
    6e62:	c7d4                	sw	a3,12(a5)
    6e64:	4514                	lw	a3,8(a0)
    6e66:	4641                	li	a2,16
    6e68:	00c69963          	bne	a3,a2,6e7a <EXTI_Init+0x58>
    6e6c:	4794                	lw	a3,8(a5)
    6e6e:	8ed9                	or	a3,a3,a4
    6e70:	c794                	sw	a3,8(a5)
    6e72:	47d4                	lw	a3,12(a5)
    6e74:	8f55                	or	a4,a4,a3
    6e76:	c7d8                	sw	a4,12(a5)
    6e78:	8082                	ret
    6e7a:	97b6                	add	a5,a5,a3
    6e7c:	4394                	lw	a3,0(a5)
    6e7e:	8f55                	or	a4,a4,a3
    6e80:	c398                	sw	a4,0(a5)
    6e82:	8082                	ret
    6e84:	431c                	lw	a5,0(a4)
    6e86:	8ff5                	and	a5,a5,a3
    6e88:	c31c                	sw	a5,0(a4)
    6e8a:	8082                	ret

00006e8c <EXTI_GetITStatus>:
    6e8c:	400107b7          	lui	a5,0x40010
    6e90:	40078713          	addi	a4,a5,1024 # 40010400 <_eusrstack+0x20000400>
    6e94:	4007a783          	lw	a5,1024(a5)
    6e98:	4b58                	lw	a4,20(a4)
    6e9a:	8f69                	and	a4,a4,a0
    6e9c:	c709                	beqz	a4,6ea6 <EXTI_GetITStatus+0x1a>
    6e9e:	8d7d                	and	a0,a0,a5
    6ea0:	00a03533          	snez	a0,a0
    6ea4:	8082                	ret
    6ea6:	4501                	li	a0,0
    6ea8:	8082                	ret

00006eaa <EXTI_ClearITPendingBit>:
    6eaa:	400107b7          	lui	a5,0x40010
    6eae:	40a7aa23          	sw	a0,1044(a5) # 40010414 <_eusrstack+0x20000414>
    6eb2:	8082                	ret

00006eb4 <GPIO_Init>:
    6eb4:	459c                	lw	a5,8(a1)
    6eb6:	0107f713          	andi	a4,a5,16
    6eba:	00f7f813          	andi	a6,a5,15
    6ebe:	c701                	beqz	a4,6ec6 <GPIO_Init+0x12>
    6ec0:	41d8                	lw	a4,4(a1)
    6ec2:	00e86833          	or	a6,a6,a4
    6ec6:	218e                	lhu	a1,0(a1)
    6ec8:	0ff5f713          	andi	a4,a1,255
    6ecc:	c339                	beqz	a4,6f12 <GPIO_Init+0x5e>
    6ece:	4118                	lw	a4,0(a0)
    6ed0:	4681                	li	a3,0
    6ed2:	4e85                	li	t4,1
    6ed4:	4f3d                	li	t5,15
    6ed6:	02800f93          	li	t6,40
    6eda:	04800293          	li	t0,72
    6ede:	4e21                	li	t3,8
    6ee0:	00de9633          	sll	a2,t4,a3
    6ee4:	00c5f8b3          	and	a7,a1,a2
    6ee8:	03161163          	bne	a2,a7,6f0a <GPIO_Init+0x56>
    6eec:	00269893          	slli	a7,a3,0x2
    6ef0:	011f1333          	sll	t1,t5,a7
    6ef4:	fff34313          	not	t1,t1
    6ef8:	00e37733          	and	a4,t1,a4
    6efc:	011818b3          	sll	a7,a6,a7
    6f00:	00e8e733          	or	a4,a7,a4
    6f04:	05f79f63          	bne	a5,t6,6f62 <GPIO_Init+0xae>
    6f08:	c950                	sw	a2,20(a0)
    6f0a:	0685                	addi	a3,a3,1
    6f0c:	fdc69ae3          	bne	a3,t3,6ee0 <GPIO_Init+0x2c>
    6f10:	c118                	sw	a4,0(a0)
    6f12:	0ff00713          	li	a4,255
    6f16:	04b77563          	bgeu	a4,a1,6f60 <GPIO_Init+0xac>
    6f1a:	4154                	lw	a3,4(a0)
    6f1c:	4621                	li	a2,8
    6f1e:	4e85                	li	t4,1
    6f20:	4f3d                	li	t5,15
    6f22:	02800f93          	li	t6,40
    6f26:	04800293          	li	t0,72
    6f2a:	4e41                	li	t3,16
    6f2c:	00ce98b3          	sll	a7,t4,a2
    6f30:	0115f733          	and	a4,a1,a7
    6f34:	02e89263          	bne	a7,a4,6f58 <GPIO_Init+0xa4>
    6f38:	00261713          	slli	a4,a2,0x2
    6f3c:	1701                	addi	a4,a4,-32
    6f3e:	00ef1333          	sll	t1,t5,a4
    6f42:	fff34313          	not	t1,t1
    6f46:	00d376b3          	and	a3,t1,a3
    6f4a:	00e81733          	sll	a4,a6,a4
    6f4e:	8ed9                	or	a3,a3,a4
    6f50:	01f79d63          	bne	a5,t6,6f6a <GPIO_Init+0xb6>
    6f54:	01152a23          	sw	a7,20(a0)
    6f58:	0605                	addi	a2,a2,1
    6f5a:	fdc619e3          	bne	a2,t3,6f2c <GPIO_Init+0x78>
    6f5e:	c154                	sw	a3,4(a0)
    6f60:	8082                	ret
    6f62:	fa5794e3          	bne	a5,t0,6f0a <GPIO_Init+0x56>
    6f66:	c910                	sw	a2,16(a0)
    6f68:	b74d                	j	6f0a <GPIO_Init+0x56>
    6f6a:	fe5797e3          	bne	a5,t0,6f58 <GPIO_Init+0xa4>
    6f6e:	01152823          	sw	a7,16(a0)
    6f72:	b7dd                	j	6f58 <GPIO_Init+0xa4>

00006f74 <GPIO_ReadInputDataBit>:
    6f74:	4508                	lw	a0,8(a0)
    6f76:	8d6d                	and	a0,a0,a1
    6f78:	00a03533          	snez	a0,a0
    6f7c:	8082                	ret

00006f7e <GPIO_SetBits>:
    6f7e:	c90c                	sw	a1,16(a0)
    6f80:	8082                	ret

00006f82 <GPIO_ResetBits>:
    6f82:	c94c                	sw	a1,20(a0)
    6f84:	8082                	ret

00006f86 <GPIO_WriteBit>:
    6f86:	c219                	beqz	a2,6f8c <GPIO_WriteBit+0x6>
    6f88:	c90c                	sw	a1,16(a0)
    6f8a:	8082                	ret
    6f8c:	c94c                	sw	a1,20(a0)
    6f8e:	8082                	ret

00006f90 <GPIO_EXTILineConfig>:
    6f90:	0fc5f713          	andi	a4,a1,252
    6f94:	0035f793          	andi	a5,a1,3
    6f98:	400105b7          	lui	a1,0x40010
    6f9c:	95ba                	add	a1,a1,a4
    6f9e:	4594                	lw	a3,8(a1)
    6fa0:	078a                	slli	a5,a5,0x2
    6fa2:	473d                	li	a4,15
    6fa4:	00f71733          	sll	a4,a4,a5
    6fa8:	fff74713          	not	a4,a4
    6fac:	8f75                	and	a4,a4,a3
    6fae:	c598                	sw	a4,8(a1)
    6fb0:	4598                	lw	a4,8(a1)
    6fb2:	00f51533          	sll	a0,a0,a5
    6fb6:	8d59                	or	a0,a0,a4
    6fb8:	c588                	sw	a0,8(a1)
    6fba:	8082                	ret

00006fbc <NVIC_PriorityGroupConfig>:
    6fbc:	92a1aa23          	sw	a0,-1740(gp) # 20000454 <NVIC_Priority_Group>
    6fc0:	8082                	ret

00006fc2 <NVIC_Init>:
    6fc2:	93418793          	addi	a5,gp,-1740 # 20000454 <NVIC_Priority_Group>
    6fc6:	4394                	lw	a3,0(a5)
    6fc8:	2118                	lbu	a4,0(a0)
    6fca:	e681                	bnez	a3,6fd2 <NVIC_Init+0x10>
    6fcc:	213c                	lbu	a5,2(a0)
    6fce:	0792                	slli	a5,a5,0x4
    6fd0:	a821                	j	6fe8 <NVIC_Init+0x26>
    6fd2:	4394                	lw	a3,0(a5)
    6fd4:	4605                	li	a2,1
    6fd6:	02c69f63          	bne	a3,a2,7014 <NVIC_Init+0x52>
    6fda:	213c                	lbu	a5,2(a0)
    6fdc:	3110                	lbu	a2,1(a0)
    6fde:	0792                	slli	a5,a5,0x4
    6fe0:	00d61463          	bne	a2,a3,6fe8 <NVIC_Init+0x26>
    6fe4:	f807e793          	ori	a5,a5,-128
    6fe8:	e000e6b7          	lui	a3,0xe000e
    6fec:	0ff7f793          	andi	a5,a5,255
    6ff0:	96ba                	add	a3,a3,a4
    6ff2:	40f68023          	sb	a5,1024(a3) # e000e400 <_eusrstack+0xbfffe400>
    6ff6:	4685                	li	a3,1
    6ff8:	00575793          	srli	a5,a4,0x5
    6ffc:	00e69733          	sll	a4,a3,a4
    7000:	4154                	lw	a3,4(a0)
    7002:	c2a5                	beqz	a3,7062 <NVIC_Init+0xa0>
    7004:	04078793          	addi	a5,a5,64
    7008:	078a                	slli	a5,a5,0x2
    700a:	e000e6b7          	lui	a3,0xe000e
    700e:	97b6                	add	a5,a5,a3
    7010:	c398                	sw	a4,0(a5)
    7012:	8082                	ret
    7014:	438c                	lw	a1,0(a5)
    7016:	4689                	li	a3,2
    7018:	02d59163          	bne	a1,a3,703a <NVIC_Init+0x78>
    701c:	3114                	lbu	a3,1(a0)
    701e:	213c                	lbu	a5,2(a0)
    7020:	00d66563          	bltu	a2,a3,702a <NVIC_Init+0x68>
    7024:	068a                	slli	a3,a3,0x2
    7026:	97b6                	add	a5,a5,a3
    7028:	b75d                	j	6fce <NVIC_Init+0xc>
    702a:	03e68693          	addi	a3,a3,62 # e000e03e <_eusrstack+0xbfffe03e>
    702e:	068a                	slli	a3,a3,0x2
    7030:	97b6                	add	a5,a5,a3
    7032:	0ff7f793          	andi	a5,a5,255
    7036:	0792                	slli	a5,a5,0x4
    7038:	b775                	j	6fe4 <NVIC_Init+0x22>
    703a:	4390                	lw	a2,0(a5)
    703c:	468d                	li	a3,3
    703e:	00d61c63          	bne	a2,a3,7056 <NVIC_Init+0x94>
    7042:	3114                	lbu	a3,1(a0)
    7044:	213c                	lbu	a5,2(a0)
    7046:	00d66463          	bltu	a2,a3,704e <NVIC_Init+0x8c>
    704a:	0686                	slli	a3,a3,0x1
    704c:	bfe9                	j	7026 <NVIC_Init+0x64>
    704e:	07c68693          	addi	a3,a3,124
    7052:	0686                	slli	a3,a3,0x1
    7054:	bff1                	j	7030 <NVIC_Init+0x6e>
    7056:	4394                	lw	a3,0(a5)
    7058:	4791                	li	a5,4
    705a:	f8f69ee3          	bne	a3,a5,6ff6 <NVIC_Init+0x34>
    705e:	311c                	lbu	a5,1(a0)
    7060:	b7bd                	j	6fce <NVIC_Init+0xc>
    7062:	06078793          	addi	a5,a5,96
    7066:	b74d                	j	7008 <NVIC_Init+0x46>

00007068 <RCC_ADCCLKConfig>:
    7068:	400216b7          	lui	a3,0x40021
    706c:	42dc                	lw	a5,4(a3)
    706e:	7751                	lui	a4,0xffff4
    7070:	177d                	addi	a4,a4,-1
    7072:	8ff9                	and	a5,a5,a4
    7074:	8d5d                	or	a0,a0,a5
    7076:	c2c8                	sw	a0,4(a3)
    7078:	8082                	ret

0000707a <RCC_GetClocksFreq>:
    707a:	40021737          	lui	a4,0x40021
    707e:	435c                	lw	a5,4(a4)
    7080:	4691                	li	a3,4
    7082:	8bb1                	andi	a5,a5,12
    7084:	00d78563          	beq	a5,a3,708e <RCC_GetClocksFreq+0x14>
    7088:	46a1                	li	a3,8
    708a:	06d78263          	beq	a5,a3,70ee <RCC_GetClocksFreq+0x74>
    708e:	007a17b7          	lui	a5,0x7a1
    7092:	20078793          	addi	a5,a5,512 # 7a1200 <__rt_init_end+0x7940e8>
    7096:	c11c                	sw	a5,0(a0)
    7098:	40021637          	lui	a2,0x40021
    709c:	425c                	lw	a5,4(a2)
    709e:	20000737          	lui	a4,0x20000
    70a2:	14070713          	addi	a4,a4,320 # 20000140 <APBAHBPrescTable>
    70a6:	8391                	srli	a5,a5,0x4
    70a8:	8bbd                	andi	a5,a5,15
    70aa:	97ba                	add	a5,a5,a4
    70ac:	2394                	lbu	a3,0(a5)
    70ae:	411c                	lw	a5,0(a0)
    70b0:	00d7d7b3          	srl	a5,a5,a3
    70b4:	c15c                	sw	a5,4(a0)
    70b6:	4254                	lw	a3,4(a2)
    70b8:	82a1                	srli	a3,a3,0x8
    70ba:	8a9d                	andi	a3,a3,7
    70bc:	96ba                	add	a3,a3,a4
    70be:	2294                	lbu	a3,0(a3)
    70c0:	00d7d6b3          	srl	a3,a5,a3
    70c4:	c514                	sw	a3,8(a0)
    70c6:	4254                	lw	a3,4(a2)
    70c8:	82ad                	srli	a3,a3,0xb
    70ca:	8a9d                	andi	a3,a3,7
    70cc:	9736                	add	a4,a4,a3
    70ce:	2318                	lbu	a4,0(a4)
    70d0:	00e7d7b3          	srl	a5,a5,a4
    70d4:	c55c                	sw	a5,12(a0)
    70d6:	4258                	lw	a4,4(a2)
    70d8:	8339                	srli	a4,a4,0xe
    70da:	00377693          	andi	a3,a4,3
    70de:	82018713          	addi	a4,gp,-2016 # 20000340 <ADCPrescTable>
    70e2:	9736                	add	a4,a4,a3
    70e4:	2318                	lbu	a4,0(a4)
    70e6:	02e7d7b3          	divu	a5,a5,a4
    70ea:	c91c                	sw	a5,16(a0)
    70ec:	8082                	ret
    70ee:	435c                	lw	a5,4(a4)
    70f0:	4354                	lw	a3,4(a4)
    70f2:	6741                	lui	a4,0x10
    70f4:	83c9                	srli	a5,a5,0x12
    70f6:	8ef9                	and	a3,a3,a4
    70f8:	1ffff737          	lui	a4,0x1ffff
    70fc:	70c72703          	lw	a4,1804(a4) # 1ffff70c <__rt_init_end+0x1fff25f4>
    7100:	8bbd                	andi	a5,a5,15
    7102:	0789                	addi	a5,a5,2
    7104:	01171613          	slli	a2,a4,0x11
    7108:	00064863          	bltz	a2,7118 <RCC_GetClocksFreq+0x9e>
    710c:	4645                	li	a2,17
    710e:	4701                	li	a4,0
    7110:	02c79263          	bne	a5,a2,7134 <RCC_GetClocksFreq+0xba>
    7114:	47c9                	li	a5,18
    7116:	a839                	j	7134 <RCC_GetClocksFreq+0xba>
    7118:	4709                	li	a4,2
    711a:	02e78963          	beq	a5,a4,714c <RCC_GetClocksFreq+0xd2>
    711e:	473d                	li	a4,15
    7120:	02e78863          	beq	a5,a4,7150 <RCC_GetClocksFreq+0xd6>
    7124:	4741                	li	a4,16
    7126:	02e78863          	beq	a5,a4,7156 <RCC_GetClocksFreq+0xdc>
    712a:	4645                	li	a2,17
    712c:	4701                	li	a4,0
    712e:	00c79363          	bne	a5,a2,7134 <RCC_GetClocksFreq+0xba>
    7132:	47c1                	li	a5,16
    7134:	e685                	bnez	a3,715c <RCC_GetClocksFreq+0xe2>
    7136:	400246b7          	lui	a3,0x40024
    713a:	8006a683          	lw	a3,-2048(a3) # 40023800 <_eusrstack+0x20013800>
    713e:	8ac1                	andi	a3,a3,16
    7140:	c68d                	beqz	a3,716a <RCC_GetClocksFreq+0xf0>
    7142:	007a16b7          	lui	a3,0x7a1
    7146:	20068693          	addi	a3,a3,512 # 7a1200 <__rt_init_end+0x7940e8>
    714a:	a025                	j	7172 <RCC_GetClocksFreq+0xf8>
    714c:	4701                	li	a4,0
    714e:	b7d9                	j	7114 <RCC_GetClocksFreq+0x9a>
    7150:	4705                	li	a4,1
    7152:	47b5                	li	a5,13
    7154:	b7c5                	j	7134 <RCC_GetClocksFreq+0xba>
    7156:	4701                	li	a4,0
    7158:	47bd                	li	a5,15
    715a:	bfe9                	j	7134 <RCC_GetClocksFreq+0xba>
    715c:	400216b7          	lui	a3,0x40021
    7160:	42d4                	lw	a3,4(a3)
    7162:	00e69613          	slli	a2,a3,0xe
    7166:	fc065ee3          	bgez	a2,7142 <RCC_GetClocksFreq+0xc8>
    716a:	003d16b7          	lui	a3,0x3d1
    716e:	90068693          	addi	a3,a3,-1792 # 3d0900 <__rt_init_end+0x3c37e8>
    7172:	02d787b3          	mul	a5,a5,a3
    7176:	c11c                	sw	a5,0(a0)
    7178:	d305                	beqz	a4,7098 <RCC_GetClocksFreq+0x1e>
    717a:	411c                	lw	a5,0(a0)
    717c:	8385                	srli	a5,a5,0x1
    717e:	bf21                	j	7096 <RCC_GetClocksFreq+0x1c>

00007180 <RCC_APB2PeriphClockCmd>:
    7180:	c599                	beqz	a1,718e <RCC_APB2PeriphClockCmd+0xe>
    7182:	40021737          	lui	a4,0x40021
    7186:	4f1c                	lw	a5,24(a4)
    7188:	8d5d                	or	a0,a0,a5
    718a:	cf08                	sw	a0,24(a4)
    718c:	8082                	ret
    718e:	400217b7          	lui	a5,0x40021
    7192:	4f98                	lw	a4,24(a5)
    7194:	fff54513          	not	a0,a0
    7198:	8d79                	and	a0,a0,a4
    719a:	cf88                	sw	a0,24(a5)
    719c:	8082                	ret

0000719e <RCC_APB1PeriphClockCmd>:
    719e:	c599                	beqz	a1,71ac <RCC_APB1PeriphClockCmd+0xe>
    71a0:	40021737          	lui	a4,0x40021
    71a4:	4f5c                	lw	a5,28(a4)
    71a6:	8d5d                	or	a0,a0,a5
    71a8:	cf48                	sw	a0,28(a4)
    71aa:	8082                	ret
    71ac:	400217b7          	lui	a5,0x40021
    71b0:	4fd8                	lw	a4,28(a5)
    71b2:	fff54513          	not	a0,a0
    71b6:	8d79                	and	a0,a0,a4
    71b8:	cfc8                	sw	a0,28(a5)
    71ba:	8082                	ret

000071bc <RCC_APB2PeriphResetCmd>:
    71bc:	c599                	beqz	a1,71ca <RCC_APB2PeriphResetCmd+0xe>
    71be:	40021737          	lui	a4,0x40021
    71c2:	475c                	lw	a5,12(a4)
    71c4:	8d5d                	or	a0,a0,a5
    71c6:	c748                	sw	a0,12(a4)
    71c8:	8082                	ret
    71ca:	400217b7          	lui	a5,0x40021
    71ce:	47d8                	lw	a4,12(a5)
    71d0:	fff54513          	not	a0,a0
    71d4:	8d79                	and	a0,a0,a4
    71d6:	c7c8                	sw	a0,12(a5)
    71d8:	8082                	ret

000071da <SPI_Init>:
    71da:	211a                	lhu	a4,0(a0)
    71dc:	678d                	lui	a5,0x3
    71de:	04078793          	addi	a5,a5,64 # 3040 <GPIOC_CLK_ENABLE+0xa>
    71e2:	21b6                	lhu	a3,2(a1)
    71e4:	8f7d                	and	a4,a4,a5
    71e6:	219e                	lhu	a5,0(a1)
    71e8:	8fd5                	or	a5,a5,a3
    71ea:	21d6                	lhu	a3,4(a1)
    71ec:	8fd5                	or	a5,a5,a3
    71ee:	21f6                	lhu	a3,6(a1)
    71f0:	8fd5                	or	a5,a5,a3
    71f2:	2596                	lhu	a3,8(a1)
    71f4:	8fd5                	or	a5,a5,a3
    71f6:	25b6                	lhu	a3,10(a1)
    71f8:	8fd5                	or	a5,a5,a3
    71fa:	25d6                	lhu	a3,12(a1)
    71fc:	8fd5                	or	a5,a5,a3
    71fe:	25f6                	lhu	a3,14(a1)
    7200:	8fd5                	or	a5,a5,a3
    7202:	8fd9                	or	a5,a5,a4
    7204:	a11e                	sh	a5,0(a0)
    7206:	2d5a                	lhu	a4,28(a0)
    7208:	77fd                	lui	a5,0xfffff
    720a:	7ff78793          	addi	a5,a5,2047 # fffff7ff <_eusrstack+0xdffef7ff>
    720e:	8ff9                	and	a5,a5,a4
    7210:	ad5e                	sh	a5,28(a0)
    7212:	299e                	lhu	a5,16(a1)
    7214:	a91e                	sh	a5,16(a0)
    7216:	8082                	ret

00007218 <SPI_Cmd>:
    7218:	211e                	lhu	a5,0(a0)
    721a:	c589                	beqz	a1,7224 <SPI_Cmd+0xc>
    721c:	0407e793          	ori	a5,a5,64
    7220:	a11e                	sh	a5,0(a0)
    7222:	8082                	ret
    7224:	07c2                	slli	a5,a5,0x10
    7226:	83c1                	srli	a5,a5,0x10
    7228:	fbf7f793          	andi	a5,a5,-65
    722c:	07c2                	slli	a5,a5,0x10
    722e:	83c1                	srli	a5,a5,0x10
    7230:	bfc5                	j	7220 <SPI_Cmd+0x8>

00007232 <SPI_I2S_SendData>:
    7232:	a54e                	sh	a1,12(a0)
    7234:	8082                	ret

00007236 <SPI_I2S_GetFlagStatus>:
    7236:	250a                	lhu	a0,8(a0)
    7238:	8d6d                	and	a0,a0,a1
    723a:	00a03533          	snez	a0,a0
    723e:	8082                	ret

00007240 <USART_Init>:
    7240:	9a2f92ef          	jal	t0,3e2 <__riscv_save_0>
    7244:	2916                	lhu	a3,16(a0)
    7246:	77f5                	lui	a5,0xffffd
    7248:	17fd                	addi	a5,a5,-1
    724a:	8ff5                	and	a5,a5,a3
    724c:	21f6                	lhu	a3,6(a1)
    724e:	25da                	lhu	a4,12(a1)
    7250:	7179                	addi	sp,sp,-48
    7252:	8fd5                	or	a5,a5,a3
    7254:	a91e                	sh	a5,16(a0)
    7256:	2556                	lhu	a3,12(a0)
    7258:	77fd                	lui	a5,0xfffff
    725a:	9f378793          	addi	a5,a5,-1549 # ffffe9f3 <_eusrstack+0xdffee9f3>
    725e:	8ff5                	and	a5,a5,a3
    7260:	21d6                	lhu	a3,4(a1)
    7262:	842a                	mv	s0,a0
    7264:	c62e                	sw	a1,12(sp)
    7266:	8fd5                	or	a5,a5,a3
    7268:	2596                	lhu	a3,8(a1)
    726a:	8fd5                	or	a5,a5,a3
    726c:	25b6                	lhu	a3,10(a1)
    726e:	8fd5                	or	a5,a5,a3
    7270:	a55e                	sh	a5,12(a0)
    7272:	295e                	lhu	a5,20(a0)
    7274:	07c2                	slli	a5,a5,0x10
    7276:	83c1                	srli	a5,a5,0x10
    7278:	cff7f793          	andi	a5,a5,-769
    727c:	8fd9                	or	a5,a5,a4
    727e:	a95e                	sh	a5,20(a0)
    7280:	0868                	addi	a0,sp,28
    7282:	df9ff0ef          	jal	ra,707a <RCC_GetClocksFreq>
    7286:	400147b7          	lui	a5,0x40014
    728a:	80078793          	addi	a5,a5,-2048 # 40013800 <_eusrstack+0x20003800>
    728e:	45b2                	lw	a1,12(sp)
    7290:	04f41a63          	bne	s0,a5,72e4 <USART_Init+0xa4>
    7294:	57a2                	lw	a5,40(sp)
    7296:	2456                	lhu	a3,12(s0)
    7298:	4765                	li	a4,25
    729a:	02e787b3          	mul	a5,a5,a4
    729e:	06c2                	slli	a3,a3,0x10
    72a0:	86c1                	srai	a3,a3,0x10
    72a2:	4198                	lw	a4,0(a1)
    72a4:	0406d263          	bgez	a3,72e8 <USART_Init+0xa8>
    72a8:	0706                	slli	a4,a4,0x1
    72aa:	2452                	lhu	a2,12(s0)
    72ac:	0642                	slli	a2,a2,0x10
    72ae:	02e7d7b3          	divu	a5,a5,a4
    72b2:	06400713          	li	a4,100
    72b6:	8641                	srai	a2,a2,0x10
    72b8:	02e7d6b3          	divu	a3,a5,a4
    72bc:	02e7f7b3          	remu	a5,a5,a4
    72c0:	0692                	slli	a3,a3,0x4
    72c2:	02065563          	bgez	a2,72ec <USART_Init+0xac>
    72c6:	078e                	slli	a5,a5,0x3
    72c8:	03278793          	addi	a5,a5,50
    72cc:	02e7d7b3          	divu	a5,a5,a4
    72d0:	0077f713          	andi	a4,a5,7
    72d4:	00d767b3          	or	a5,a4,a3
    72d8:	07c2                	slli	a5,a5,0x10
    72da:	83c1                	srli	a5,a5,0x10
    72dc:	a41e                	sh	a5,8(s0)
    72de:	6145                	addi	sp,sp,48
    72e0:	926f906f          	j	406 <__riscv_restore_0>
    72e4:	5792                	lw	a5,36(sp)
    72e6:	bf45                	j	7296 <USART_Init+0x56>
    72e8:	070a                	slli	a4,a4,0x2
    72ea:	b7c1                	j	72aa <USART_Init+0x6a>
    72ec:	0792                	slli	a5,a5,0x4
    72ee:	03278793          	addi	a5,a5,50
    72f2:	02e7d7b3          	divu	a5,a5,a4
    72f6:	8bbd                	andi	a5,a5,15
    72f8:	8fd5                	or	a5,a5,a3
    72fa:	bff9                	j	72d8 <USART_Init+0x98>

000072fc <USART_Cmd>:
    72fc:	c591                	beqz	a1,7308 <USART_Cmd+0xc>
    72fe:	255e                	lhu	a5,12(a0)
    7300:	6709                	lui	a4,0x2
    7302:	8fd9                	or	a5,a5,a4
    7304:	a55e                	sh	a5,12(a0)
    7306:	8082                	ret
    7308:	255a                	lhu	a4,12(a0)
    730a:	77f9                	lui	a5,0xffffe
    730c:	17fd                	addi	a5,a5,-1
    730e:	8ff9                	and	a5,a5,a4
    7310:	bfd5                	j	7304 <USART_Cmd+0x8>

00007312 <USART_ITConfig>:
    7312:	0ff5f713          	andi	a4,a1,255
    7316:	4785                	li	a5,1
    7318:	8315                	srli	a4,a4,0x5
    731a:	00b795b3          	sll	a1,a5,a1
    731e:	00f71963          	bne	a4,a5,7330 <USART_ITConfig+0x1e>
    7322:	00c50793          	addi	a5,a0,12
    7326:	4398                	lw	a4,0(a5)
    7328:	ce01                	beqz	a2,7340 <USART_ITConfig+0x2e>
    732a:	8dd9                	or	a1,a1,a4
    732c:	c38c                	sw	a1,0(a5)
    732e:	8082                	ret
    7330:	4689                	li	a3,2
    7332:	01450793          	addi	a5,a0,20
    7336:	fed718e3          	bne	a4,a3,7326 <USART_ITConfig+0x14>
    733a:	01050793          	addi	a5,a0,16
    733e:	b7e5                	j	7326 <USART_ITConfig+0x14>
    7340:	fff5c593          	not	a1,a1
    7344:	8df9                	and	a1,a1,a4
    7346:	b7dd                	j	732c <USART_ITConfig+0x1a>

00007348 <USART_SendData>:
    7348:	1ff5f593          	andi	a1,a1,511
    734c:	a14e                	sh	a1,4(a0)
    734e:	8082                	ret

00007350 <USART_ReceiveData>:
    7350:	214a                	lhu	a0,4(a0)
    7352:	1ff57513          	andi	a0,a0,511
    7356:	8082                	ret

00007358 <USART_GetFlagStatus>:
    7358:	210a                	lhu	a0,0(a0)
    735a:	8d6d                	and	a0,a0,a1
    735c:	00a03533          	snez	a0,a0
    7360:	8082                	ret

00007362 <USART_GetITStatus>:
    7362:	0ff5f713          	andi	a4,a1,255
    7366:	4685                	li	a3,1
    7368:	8315                	srli	a4,a4,0x5
    736a:	00b697b3          	sll	a5,a3,a1
    736e:	02d71163          	bne	a4,a3,7390 <USART_GetITStatus+0x2e>
    7372:	255a                	lhu	a4,12(a0)
    7374:	8ff9                	and	a5,a5,a4
    7376:	211a                	lhu	a4,0(a0)
    7378:	4501                	li	a0,0
    737a:	0742                	slli	a4,a4,0x10
    737c:	8341                	srli	a4,a4,0x10
    737e:	cb81                	beqz	a5,738e <USART_GetITStatus+0x2c>
    7380:	4505                	li	a0,1
    7382:	81a1                	srli	a1,a1,0x8
    7384:	00b515b3          	sll	a1,a0,a1
    7388:	8f6d                	and	a4,a4,a1
    738a:	00e03533          	snez	a0,a4
    738e:	8082                	ret
    7390:	4689                	li	a3,2
    7392:	00d71463          	bne	a4,a3,739a <USART_GetITStatus+0x38>
    7396:	291a                	lhu	a4,16(a0)
    7398:	bff1                	j	7374 <USART_GetITStatus+0x12>
    739a:	295a                	lhu	a4,20(a0)
    739c:	bfe1                	j	7374 <USART_GetITStatus+0x12>

0000739e <USART_ClearITPendingBit>:
    739e:	81a1                	srli	a1,a1,0x8
    73a0:	4785                	li	a5,1
    73a2:	00b797b3          	sll	a5,a5,a1
    73a6:	fff7c793          	not	a5,a5
    73aa:	07c2                	slli	a5,a5,0x10
    73ac:	83c1                	srli	a5,a5,0x10
    73ae:	a11e                	sh	a5,0(a0)
    73b0:	8082                	ret

000073b2 <_write>:
    73b2:	816f92ef          	jal	t0,3c8 <__riscv_save_4>
    73b6:	400144b7          	lui	s1,0x40014
    73ba:	89ae                	mv	s3,a1
    73bc:	8932                	mv	s2,a2
    73be:	4401                	li	s0,0
    73c0:	80048493          	addi	s1,s1,-2048 # 40013800 <_eusrstack+0x20003800>
    73c4:	01244563          	blt	s0,s2,73ce <_write+0x1c>
    73c8:	854a                	mv	a0,s2
    73ca:	832f906f          	j	3fc <__riscv_restore_4>
    73ce:	04000593          	li	a1,64
    73d2:	8526                	mv	a0,s1
    73d4:	f85ff0ef          	jal	ra,7358 <USART_GetFlagStatus>
    73d8:	d97d                	beqz	a0,73ce <_write+0x1c>
    73da:	008987b3          	add	a5,s3,s0
    73de:	00078583          	lb	a1,0(a5) # ffffe000 <_eusrstack+0xdffee000>
    73e2:	8526                	mv	a0,s1
    73e4:	0405                	addi	s0,s0,1
    73e6:	05c2                	slli	a1,a1,0x10
    73e8:	81c1                	srli	a1,a1,0x10
    73ea:	f5fff0ef          	jal	ra,7348 <USART_SendData>
    73ee:	bfd9                	j	73c4 <_write+0x12>

000073f0 <_sbrk>:
    73f0:	82418713          	addi	a4,gp,-2012 # 20000344 <curbrk.5230>
    73f4:	431c                	lw	a5,0(a4)
    73f6:	200026b7          	lui	a3,0x20002
    73fa:	b0868693          	addi	a3,a3,-1272 # 20001b08 <_ebss>
    73fe:	953e                	add	a0,a0,a5
    7400:	00d56b63          	bltu	a0,a3,7416 <_sbrk+0x26>
    7404:	200106b7          	lui	a3,0x20010
    7408:	80068693          	addi	a3,a3,-2048 # 2000f800 <_heap_end>
    740c:	00a6e563          	bltu	a3,a0,7416 <_sbrk+0x26>
    7410:	c308                	sw	a0,0(a4)
    7412:	853e                	mv	a0,a5
    7414:	8082                	ret
    7416:	57fd                	li	a5,-1
    7418:	bfed                	j	7412 <_sbrk+0x22>

0000741a <__muldf3>:
    741a:	7139                	addi	sp,sp,-64
    741c:	d84a                	sw	s2,48(sp)
    741e:	0145d913          	srli	s2,a1,0x14
    7422:	d64e                	sw	s3,44(sp)
    7424:	d452                	sw	s4,40(sp)
    7426:	d256                	sw	s5,36(sp)
    7428:	00c59993          	slli	s3,a1,0xc
    742c:	de06                	sw	ra,60(sp)
    742e:	dc22                	sw	s0,56(sp)
    7430:	da26                	sw	s1,52(sp)
    7432:	d05a                	sw	s6,32(sp)
    7434:	ce5e                	sw	s7,28(sp)
    7436:	7ff97913          	andi	s2,s2,2047
    743a:	8a2a                	mv	s4,a0
    743c:	00c9d993          	srli	s3,s3,0xc
    7440:	01f5da93          	srli	s5,a1,0x1f
    7444:	0e090d63          	beqz	s2,753e <__muldf3+0x124>
    7448:	7ff00793          	li	a5,2047
    744c:	18f90663          	beq	s2,a5,75d8 <__muldf3+0x1be>
    7450:	01d55413          	srli	s0,a0,0x1d
    7454:	098e                	slli	s3,s3,0x3
    7456:	013469b3          	or	s3,s0,s3
    745a:	00800437          	lui	s0,0x800
    745e:	0089e433          	or	s0,s3,s0
    7462:	00351493          	slli	s1,a0,0x3
    7466:	c0190913          	addi	s2,s2,-1023
    746a:	4981                	li	s3,0
    746c:	4b81                	li	s7,0
    746e:	0146d713          	srli	a4,a3,0x14
    7472:	00c69a13          	slli	s4,a3,0xc
    7476:	7ff77713          	andi	a4,a4,2047
    747a:	85b2                	mv	a1,a2
    747c:	00ca5a13          	srli	s4,s4,0xc
    7480:	01f6db13          	srli	s6,a3,0x1f
    7484:	10070b63          	beqz	a4,759a <__muldf3+0x180>
    7488:	7ff00793          	li	a5,2047
    748c:	04f70363          	beq	a4,a5,74d2 <__muldf3+0xb8>
    7490:	01d65793          	srli	a5,a2,0x1d
    7494:	0a0e                	slli	s4,s4,0x3
    7496:	0147ea33          	or	s4,a5,s4
    749a:	c0170713          	addi	a4,a4,-1023 # 1c01 <rt_list_len+0xb>
    749e:	008007b7          	lui	a5,0x800
    74a2:	00fa67b3          	or	a5,s4,a5
    74a6:	00361593          	slli	a1,a2,0x3
    74aa:	993a                	add	s2,s2,a4
    74ac:	4881                	li	a7,0
    74ae:	016ac733          	xor	a4,s5,s6
    74b2:	46bd                	li	a3,15
    74b4:	853a                	mv	a0,a4
    74b6:	00190813          	addi	a6,s2,1
    74ba:	1736e863          	bltu	a3,s3,762a <__muldf3+0x210>
    74be:	00005617          	auipc	a2,0x5
    74c2:	6e660613          	addi	a2,a2,1766 # cba4 <__fsym___cmd_Read_Buttons_Debug_name+0x1c>
    74c6:	098a                	slli	s3,s3,0x2
    74c8:	99b2                	add	s3,s3,a2
    74ca:	0009a683          	lw	a3,0(s3)
    74ce:	96b2                	add	a3,a3,a2
    74d0:	8682                	jr	a3
    74d2:	00ca67b3          	or	a5,s4,a2
    74d6:	7ff90913          	addi	s2,s2,2047
    74da:	12079963          	bnez	a5,760c <__muldf3+0x1f2>
    74de:	0029e993          	ori	s3,s3,2
    74e2:	4581                	li	a1,0
    74e4:	4889                	li	a7,2
    74e6:	b7e1                	j	74ae <__muldf3+0x94>
    74e8:	4701                	li	a4,0
    74ea:	7ff00793          	li	a5,2047
    74ee:	00080437          	lui	s0,0x80
    74f2:	4481                	li	s1,0
    74f4:	0432                	slli	s0,s0,0xc
    74f6:	07d2                	slli	a5,a5,0x14
    74f8:	8031                	srli	s0,s0,0xc
    74fa:	077e                	slli	a4,a4,0x1f
    74fc:	8c5d                	or	s0,s0,a5
    74fe:	8c59                	or	s0,s0,a4
    7500:	85a2                	mv	a1,s0
    7502:	50f2                	lw	ra,60(sp)
    7504:	5462                	lw	s0,56(sp)
    7506:	8526                	mv	a0,s1
    7508:	5942                	lw	s2,48(sp)
    750a:	54d2                	lw	s1,52(sp)
    750c:	59b2                	lw	s3,44(sp)
    750e:	5a22                	lw	s4,40(sp)
    7510:	5a92                	lw	s5,36(sp)
    7512:	5b02                	lw	s6,32(sp)
    7514:	4bf2                	lw	s7,28(sp)
    7516:	6121                	addi	sp,sp,64
    7518:	8082                	ret
    751a:	855a                	mv	a0,s6
    751c:	843e                	mv	s0,a5
    751e:	84ae                	mv	s1,a1
    7520:	8bc6                	mv	s7,a7
    7522:	4789                	li	a5,2
    7524:	0efb8d63          	beq	s7,a5,761e <__muldf3+0x204>
    7528:	478d                	li	a5,3
    752a:	fafb8fe3          	beq	s7,a5,74e8 <__muldf3+0xce>
    752e:	4785                	li	a5,1
    7530:	872a                	mv	a4,a0
    7532:	38fb9e63          	bne	s7,a5,78ce <__muldf3+0x4b4>
    7536:	4781                	li	a5,0
    7538:	4401                	li	s0,0
    753a:	4481                	li	s1,0
    753c:	bf65                	j	74f4 <__muldf3+0xda>
    753e:	00a9e433          	or	s0,s3,a0
    7542:	c061                	beqz	s0,7602 <__muldf3+0x1e8>
    7544:	c636                	sw	a3,12(sp)
    7546:	c432                	sw	a2,8(sp)
    7548:	2a098c63          	beqz	s3,7800 <__muldf3+0x3e6>
    754c:	854e                	mv	a0,s3
    754e:	34a010ef          	jal	ra,8898 <__clzsi2>
    7552:	4622                	lw	a2,8(sp)
    7554:	46b2                	lw	a3,12(sp)
    7556:	87aa                	mv	a5,a0
    7558:	ff550713          	addi	a4,a0,-11
    755c:	4475                	li	s0,29
    755e:	ff878493          	addi	s1,a5,-8 # 7ffff8 <__rt_init_end+0x7f2ee0>
    7562:	8c19                	sub	s0,s0,a4
    7564:	009999b3          	sll	s3,s3,s1
    7568:	008a5433          	srl	s0,s4,s0
    756c:	01346433          	or	s0,s0,s3
    7570:	009a14b3          	sll	s1,s4,s1
    7574:	0146d713          	srli	a4,a3,0x14
    7578:	c0d00913          	li	s2,-1011
    757c:	00c69a13          	slli	s4,a3,0xc
    7580:	7ff77713          	andi	a4,a4,2047
    7584:	40f90933          	sub	s2,s2,a5
    7588:	4981                	li	s3,0
    758a:	4b81                	li	s7,0
    758c:	85b2                	mv	a1,a2
    758e:	00ca5a13          	srli	s4,s4,0xc
    7592:	01f6db13          	srli	s6,a3,0x1f
    7596:	ee0719e3          	bnez	a4,7488 <__muldf3+0x6e>
    759a:	00ca67b3          	or	a5,s4,a2
    759e:	c7b1                	beqz	a5,75ea <__muldf3+0x1d0>
    75a0:	220a0f63          	beqz	s4,77de <__muldf3+0x3c4>
    75a4:	8552                	mv	a0,s4
    75a6:	c432                	sw	a2,8(sp)
    75a8:	2f0010ef          	jal	ra,8898 <__clzsi2>
    75ac:	4622                	lw	a2,8(sp)
    75ae:	872a                	mv	a4,a0
    75b0:	ff550693          	addi	a3,a0,-11
    75b4:	47f5                	li	a5,29
    75b6:	ff870593          	addi	a1,a4,-8
    75ba:	8f95                	sub	a5,a5,a3
    75bc:	00ba1a33          	sll	s4,s4,a1
    75c0:	00f657b3          	srl	a5,a2,a5
    75c4:	0147e7b3          	or	a5,a5,s4
    75c8:	00b615b3          	sll	a1,a2,a1
    75cc:	40e90933          	sub	s2,s2,a4
    75d0:	c0d90913          	addi	s2,s2,-1011
    75d4:	4881                	li	a7,0
    75d6:	bde1                	j	74ae <__muldf3+0x94>
    75d8:	00a9e433          	or	s0,s3,a0
    75dc:	ec01                	bnez	s0,75f4 <__muldf3+0x1da>
    75de:	49a1                	li	s3,8
    75e0:	4481                	li	s1,0
    75e2:	7ff00913          	li	s2,2047
    75e6:	4b89                	li	s7,2
    75e8:	b559                	j	746e <__muldf3+0x54>
    75ea:	0019e993          	ori	s3,s3,1
    75ee:	4581                	li	a1,0
    75f0:	4885                	li	a7,1
    75f2:	bd75                	j	74ae <__muldf3+0x94>
    75f4:	844e                	mv	s0,s3
    75f6:	84aa                	mv	s1,a0
    75f8:	49b1                	li	s3,12
    75fa:	7ff00913          	li	s2,2047
    75fe:	4b8d                	li	s7,3
    7600:	b5bd                	j	746e <__muldf3+0x54>
    7602:	4991                	li	s3,4
    7604:	4481                	li	s1,0
    7606:	4901                	li	s2,0
    7608:	4b85                	li	s7,1
    760a:	b595                	j	746e <__muldf3+0x54>
    760c:	0039e993          	ori	s3,s3,3
    7610:	87d2                	mv	a5,s4
    7612:	488d                	li	a7,3
    7614:	bd69                	j	74ae <__muldf3+0x94>
    7616:	4789                	li	a5,2
    7618:	8556                	mv	a0,s5
    761a:	f0fb97e3          	bne	s7,a5,7528 <__muldf3+0x10e>
    761e:	872a                	mv	a4,a0
    7620:	7ff00793          	li	a5,2047
    7624:	4401                	li	s0,0
    7626:	4481                	li	s1,0
    7628:	b5f1                	j	74f4 <__muldf3+0xda>
    762a:	6ec1                	lui	t4,0x10
    762c:	fffe8613          	addi	a2,t4,-1 # ffff <__rt_init_end+0x2ee7>
    7630:	0104d693          	srli	a3,s1,0x10
    7634:	0105de13          	srli	t3,a1,0x10
    7638:	8cf1                	and	s1,s1,a2
    763a:	8df1                	and	a1,a1,a2
    763c:	02958633          	mul	a2,a1,s1
    7640:	02b68333          	mul	t1,a3,a1
    7644:	01065893          	srli	a7,a2,0x10
    7648:	029e0533          	mul	a0,t3,s1
    764c:	951a                	add	a0,a0,t1
    764e:	98aa                	add	a7,a7,a0
    7650:	03c682b3          	mul	t0,a3,t3
    7654:	0068f363          	bgeu	a7,t1,765a <__muldf3+0x240>
    7658:	92f6                	add	t0,t0,t4
    765a:	6fc1                	lui	t6,0x10
    765c:	ffff8313          	addi	t1,t6,-1 # ffff <__rt_init_end+0x2ee7>
    7660:	0067f533          	and	a0,a5,t1
    7664:	0107d393          	srli	t2,a5,0x10
    7668:	0068f7b3          	and	a5,a7,t1
    766c:	07c2                	slli	a5,a5,0x10
    766e:	00667333          	and	t1,a2,t1
    7672:	933e                	add	t1,t1,a5
    7674:	02950633          	mul	a2,a0,s1
    7678:	0108d893          	srli	a7,a7,0x10
    767c:	02a687b3          	mul	a5,a3,a0
    7680:	01065f13          	srli	t5,a2,0x10
    7684:	029384b3          	mul	s1,t2,s1
    7688:	94be                	add	s1,s1,a5
    768a:	94fa                	add	s1,s1,t5
    768c:	02768eb3          	mul	t4,a3,t2
    7690:	00f4f363          	bgeu	s1,a5,7696 <__muldf3+0x27c>
    7694:	9efe                	add	t4,t4,t6
    7696:	6a41                	lui	s4,0x10
    7698:	fffa0793          	addi	a5,s4,-1 # ffff <__rt_init_end+0x2ee7>
    769c:	01045f93          	srli	t6,s0,0x10
    76a0:	00f476b3          	and	a3,s0,a5
    76a4:	00f4f9b3          	and	s3,s1,a5
    76a8:	8e7d                	and	a2,a2,a5
    76aa:	80c1                	srli	s1,s1,0x10
    76ac:	02d58433          	mul	s0,a1,a3
    76b0:	09c2                	slli	s3,s3,0x10
    76b2:	01d48f33          	add	t5,s1,t4
    76b6:	99b2                	add	s3,s3,a2
    76b8:	98ce                	add	a7,a7,s3
    76ba:	02de07b3          	mul	a5,t3,a3
    76be:	01045e93          	srli	t4,s0,0x10
    76c2:	02bf85b3          	mul	a1,t6,a1
    76c6:	97ae                	add	a5,a5,a1
    76c8:	9ebe                	add	t4,t4,a5
    76ca:	03fe0e33          	mul	t3,t3,t6
    76ce:	00bef363          	bgeu	t4,a1,76d4 <__muldf3+0x2ba>
    76d2:	9e52                	add	t3,t3,s4
    76d4:	67c1                	lui	a5,0x10
    76d6:	fff78593          	addi	a1,a5,-1 # ffff <__rt_init_end+0x2ee7>
    76da:	00bef633          	and	a2,t4,a1
    76de:	8c6d                	and	s0,s0,a1
    76e0:	0642                	slli	a2,a2,0x10
    76e2:	9622                	add	a2,a2,s0
    76e4:	010ede93          	srli	t4,t4,0x10
    76e8:	02d505b3          	mul	a1,a0,a3
    76ec:	9e76                	add	t3,t3,t4
    76ee:	02af8533          	mul	a0,t6,a0
    76f2:	0105d413          	srli	s0,a1,0x10
    76f6:	02d386b3          	mul	a3,t2,a3
    76fa:	96aa                	add	a3,a3,a0
    76fc:	96a2                	add	a3,a3,s0
    76fe:	03f38fb3          	mul	t6,t2,t6
    7702:	00a6f363          	bgeu	a3,a0,7708 <__muldf3+0x2ee>
    7706:	9fbe                	add	t6,t6,a5
    7708:	6541                	lui	a0,0x10
    770a:	157d                	addi	a0,a0,-1
    770c:	00a6f7b3          	and	a5,a3,a0
    7710:	07c2                	slli	a5,a5,0x10
    7712:	8d6d                	and	a0,a0,a1
    7714:	97aa                	add	a5,a5,a0
    7716:	005885b3          	add	a1,a7,t0
    771a:	0135b9b3          	sltu	s3,a1,s3
    771e:	97fa                	add	a5,a5,t5
    7720:	95b2                	add	a1,a1,a2
    7722:	01378433          	add	s0,a5,s3
    7726:	00c5b633          	sltu	a2,a1,a2
    772a:	01c40eb3          	add	t4,s0,t3
    772e:	00ce8533          	add	a0,t4,a2
    7732:	01343433          	sltu	s0,s0,s3
    7736:	01e7b7b3          	sltu	a5,a5,t5
    773a:	8fc1                	or	a5,a5,s0
    773c:	01cebe33          	sltu	t3,t4,t3
    7740:	0106d413          	srli	s0,a3,0x10
    7744:	00c53633          	sltu	a2,a0,a2
    7748:	943e                	add	s0,s0,a5
    774a:	00ce6633          	or	a2,t3,a2
    774e:	00959493          	slli	s1,a1,0x9
    7752:	9432                	add	s0,s0,a2
    7754:	947e                	add	s0,s0,t6
    7756:	0064e4b3          	or	s1,s1,t1
    775a:	0426                	slli	s0,s0,0x9
    775c:	01755693          	srli	a3,a0,0x17
    7760:	009034b3          	snez	s1,s1
    7764:	81dd                	srli	a1,a1,0x17
    7766:	00951793          	slli	a5,a0,0x9
    776a:	8ccd                	or	s1,s1,a1
    776c:	8c55                	or	s0,s0,a3
    776e:	8cdd                	or	s1,s1,a5
    7770:	00741793          	slli	a5,s0,0x7
    7774:	0007db63          	bgez	a5,778a <__muldf3+0x370>
    7778:	0014d793          	srli	a5,s1,0x1
    777c:	8885                	andi	s1,s1,1
    777e:	01f41693          	slli	a3,s0,0x1f
    7782:	8cdd                	or	s1,s1,a5
    7784:	8cd5                	or	s1,s1,a3
    7786:	8005                	srli	s0,s0,0x1
    7788:	8942                	mv	s2,a6
    778a:	3ff90793          	addi	a5,s2,1023
    778e:	08f05963          	blez	a5,7820 <__muldf3+0x406>
    7792:	0074f693          	andi	a3,s1,7
    7796:	ce81                	beqz	a3,77ae <__muldf3+0x394>
    7798:	00f4f693          	andi	a3,s1,15
    779c:	4611                	li	a2,4
    779e:	00c68863          	beq	a3,a2,77ae <__muldf3+0x394>
    77a2:	00448693          	addi	a3,s1,4
    77a6:	0096b4b3          	sltu	s1,a3,s1
    77aa:	9426                	add	s0,s0,s1
    77ac:	84b6                	mv	s1,a3
    77ae:	00741693          	slli	a3,s0,0x7
    77b2:	0006d863          	bgez	a3,77c2 <__muldf3+0x3a8>
    77b6:	ff0007b7          	lui	a5,0xff000
    77ba:	17fd                	addi	a5,a5,-1
    77bc:	8c7d                	and	s0,s0,a5
    77be:	40090793          	addi	a5,s2,1024
    77c2:	7fe00693          	li	a3,2046
    77c6:	0ef6cf63          	blt	a3,a5,78c4 <__muldf3+0x4aa>
    77ca:	0034d693          	srli	a3,s1,0x3
    77ce:	01d41493          	slli	s1,s0,0x1d
    77d2:	0426                	slli	s0,s0,0x9
    77d4:	8cd5                	or	s1,s1,a3
    77d6:	8031                	srli	s0,s0,0xc
    77d8:	7ff7f793          	andi	a5,a5,2047
    77dc:	bb21                	j	74f4 <__muldf3+0xda>
    77de:	8532                	mv	a0,a2
    77e0:	c432                	sw	a2,8(sp)
    77e2:	0b6010ef          	jal	ra,8898 <__clzsi2>
    77e6:	01550693          	addi	a3,a0,21 # 10015 <__rt_init_end+0x2efd>
    77ea:	47f1                	li	a5,28
    77ec:	02050713          	addi	a4,a0,32
    77f0:	4622                	lw	a2,8(sp)
    77f2:	dcd7d1e3          	bge	a5,a3,75b4 <__muldf3+0x19a>
    77f6:	1561                	addi	a0,a0,-8
    77f8:	00a617b3          	sll	a5,a2,a0
    77fc:	4581                	li	a1,0
    77fe:	b3f9                	j	75cc <__muldf3+0x1b2>
    7800:	098010ef          	jal	ra,8898 <__clzsi2>
    7804:	01550713          	addi	a4,a0,21
    7808:	45f1                	li	a1,28
    780a:	02050793          	addi	a5,a0,32
    780e:	4622                	lw	a2,8(sp)
    7810:	46b2                	lw	a3,12(sp)
    7812:	d4e5d5e3          	bge	a1,a4,755c <__muldf3+0x142>
    7816:	1561                	addi	a0,a0,-8
    7818:	00aa1433          	sll	s0,s4,a0
    781c:	4481                	li	s1,0
    781e:	bb99                	j	7574 <__muldf3+0x15a>
    7820:	4685                	li	a3,1
    7822:	8e9d                	sub	a3,a3,a5
    7824:	e7b1                	bnez	a5,7870 <__muldf3+0x456>
    7826:	41e90913          	addi	s2,s2,1054
    782a:	012497b3          	sll	a5,s1,s2
    782e:	00d4d4b3          	srl	s1,s1,a3
    7832:	01241933          	sll	s2,s0,s2
    7836:	00f037b3          	snez	a5,a5
    783a:	009964b3          	or	s1,s2,s1
    783e:	8cdd                	or	s1,s1,a5
    7840:	0074f793          	andi	a5,s1,7
    7844:	00d456b3          	srl	a3,s0,a3
    7848:	cf81                	beqz	a5,7860 <__muldf3+0x446>
    784a:	00f4f793          	andi	a5,s1,15
    784e:	4611                	li	a2,4
    7850:	00c78863          	beq	a5,a2,7860 <__muldf3+0x446>
    7854:	00448793          	addi	a5,s1,4
    7858:	0097b4b3          	sltu	s1,a5,s1
    785c:	96a6                	add	a3,a3,s1
    785e:	84be                	mv	s1,a5
    7860:	00869793          	slli	a5,a3,0x8
    7864:	0407d863          	bgez	a5,78b4 <__muldf3+0x49a>
    7868:	4785                	li	a5,1
    786a:	4401                	li	s0,0
    786c:	4481                	li	s1,0
    786e:	b159                	j	74f4 <__muldf3+0xda>
    7870:	03800613          	li	a2,56
    7874:	ccd641e3          	blt	a2,a3,7536 <__muldf3+0x11c>
    7878:	467d                	li	a2,31
    787a:	fad656e3          	bge	a2,a3,7826 <__muldf3+0x40c>
    787e:	5605                	li	a2,-31
    7880:	40f607b3          	sub	a5,a2,a5
    7884:	02000593          	li	a1,32
    7888:	00f45633          	srl	a2,s0,a5
    788c:	00b68763          	beq	a3,a1,789a <__muldf3+0x480>
    7890:	43e90913          	addi	s2,s2,1086
    7894:	012417b3          	sll	a5,s0,s2
    7898:	8cdd                	or	s1,s1,a5
    789a:	009034b3          	snez	s1,s1
    789e:	8cd1                	or	s1,s1,a2
    78a0:	0074f693          	andi	a3,s1,7
    78a4:	4401                	li	s0,0
    78a6:	ca99                	beqz	a3,78bc <__muldf3+0x4a2>
    78a8:	00f4f793          	andi	a5,s1,15
    78ac:	4611                	li	a2,4
    78ae:	4681                	li	a3,0
    78b0:	fac792e3          	bne	a5,a2,7854 <__muldf3+0x43a>
    78b4:	00969413          	slli	s0,a3,0x9
    78b8:	8031                	srli	s0,s0,0xc
    78ba:	06f6                	slli	a3,a3,0x1d
    78bc:	808d                	srli	s1,s1,0x3
    78be:	8cd5                	or	s1,s1,a3
    78c0:	4781                	li	a5,0
    78c2:	b90d                	j	74f4 <__muldf3+0xda>
    78c4:	7ff00793          	li	a5,2047
    78c8:	4401                	li	s0,0
    78ca:	4481                	li	s1,0
    78cc:	b125                	j	74f4 <__muldf3+0xda>
    78ce:	8942                	mv	s2,a6
    78d0:	bd6d                	j	778a <__muldf3+0x370>

000078d2 <__subdf3>:
    78d2:	00100737          	lui	a4,0x100
    78d6:	177d                	addi	a4,a4,-1
    78d8:	1101                	addi	sp,sp,-32
    78da:	00b77333          	and	t1,a4,a1
    78de:	0146d893          	srli	a7,a3,0x14
    78e2:	8f75                	and	a4,a4,a3
    78e4:	01d65e93          	srli	t4,a2,0x1d
    78e8:	cc22                	sw	s0,24(sp)
    78ea:	ca26                	sw	s1,20(sp)
    78ec:	030e                	slli	t1,t1,0x3
    78ee:	0145d493          	srli	s1,a1,0x14
    78f2:	01d55793          	srli	a5,a0,0x1d
    78f6:	070e                	slli	a4,a4,0x3
    78f8:	ce06                	sw	ra,28(sp)
    78fa:	c84a                	sw	s2,16(sp)
    78fc:	c64e                	sw	s3,12(sp)
    78fe:	7ff8f893          	andi	a7,a7,2047
    7902:	7ff00e13          	li	t3,2047
    7906:	00eee733          	or	a4,t4,a4
    790a:	7ff4f493          	andi	s1,s1,2047
    790e:	01f5d413          	srli	s0,a1,0x1f
    7912:	0067e333          	or	t1,a5,t1
    7916:	00351f13          	slli	t5,a0,0x3
    791a:	82fd                	srli	a3,a3,0x1f
    791c:	00361e93          	slli	t4,a2,0x3
    7920:	19c88063          	beq	a7,t3,7aa0 <__subdf3+0x1ce>
    7924:	0016c693          	xori	a3,a3,1
    7928:	411485b3          	sub	a1,s1,a7
    792c:	12d40563          	beq	s0,a3,7a56 <__subdf3+0x184>
    7930:	18b05163          	blez	a1,7ab2 <__subdf3+0x1e0>
    7934:	1a088b63          	beqz	a7,7aea <__subdf3+0x218>
    7938:	008007b7          	lui	a5,0x800
    793c:	8f5d                	or	a4,a4,a5
    793e:	59c48163          	beq	s1,t3,7ec0 <__subdf3+0x5ee>
    7942:	03800793          	li	a5,56
    7946:	34b7c463          	blt	a5,a1,7c8e <__subdf3+0x3bc>
    794a:	47fd                	li	a5,31
    794c:	48b7c563          	blt	a5,a1,7dd6 <__subdf3+0x504>
    7950:	02000793          	li	a5,32
    7954:	8f8d                	sub	a5,a5,a1
    7956:	00bed9b3          	srl	s3,t4,a1
    795a:	00f71833          	sll	a6,a4,a5
    795e:	00fe9eb3          	sll	t4,t4,a5
    7962:	01386833          	or	a6,a6,s3
    7966:	00b75733          	srl	a4,a4,a1
    796a:	01d039b3          	snez	s3,t4
    796e:	01386833          	or	a6,a6,s3
    7972:	40e30333          	sub	t1,t1,a4
    7976:	410f09b3          	sub	s3,t5,a6
    797a:	013f37b3          	sltu	a5,t5,s3
    797e:	40f30633          	sub	a2,t1,a5
    7982:	00861793          	slli	a5,a2,0x8
    7986:	2407d363          	bgez	a5,7bcc <__subdf3+0x2fa>
    798a:	00800937          	lui	s2,0x800
    798e:	197d                	addi	s2,s2,-1
    7990:	01267933          	and	s2,a2,s2
    7994:	2c090f63          	beqz	s2,7c72 <__subdf3+0x3a0>
    7998:	854a                	mv	a0,s2
    799a:	6ff000ef          	jal	ra,8898 <__clzsi2>
    799e:	ff850713          	addi	a4,a0,-8
    79a2:	02000793          	li	a5,32
    79a6:	8f99                	sub	a5,a5,a4
    79a8:	00f9d7b3          	srl	a5,s3,a5
    79ac:	00e91633          	sll	a2,s2,a4
    79b0:	8fd1                	or	a5,a5,a2
    79b2:	00e999b3          	sll	s3,s3,a4
    79b6:	2a974463          	blt	a4,s1,7c5e <__subdf3+0x38c>
    79ba:	8f05                	sub	a4,a4,s1
    79bc:	00170613          	addi	a2,a4,1 # 100001 <__rt_init_end+0xf2ee9>
    79c0:	46fd                	li	a3,31
    79c2:	3ac6c563          	blt	a3,a2,7d6c <__subdf3+0x49a>
    79c6:	02000713          	li	a4,32
    79ca:	8f11                	sub	a4,a4,a2
    79cc:	00c9d6b3          	srl	a3,s3,a2
    79d0:	00e99833          	sll	a6,s3,a4
    79d4:	00e79733          	sll	a4,a5,a4
    79d8:	8f55                	or	a4,a4,a3
    79da:	01003833          	snez	a6,a6
    79de:	010769b3          	or	s3,a4,a6
    79e2:	00c7d633          	srl	a2,a5,a2
    79e6:	4481                	li	s1,0
    79e8:	0079f793          	andi	a5,s3,7
    79ec:	cf81                	beqz	a5,7a04 <__subdf3+0x132>
    79ee:	00f9f693          	andi	a3,s3,15
    79f2:	4791                	li	a5,4
    79f4:	00f68863          	beq	a3,a5,7a04 <__subdf3+0x132>
    79f8:	00498693          	addi	a3,s3,4
    79fc:	0136b833          	sltu	a6,a3,s3
    7a00:	9642                	add	a2,a2,a6
    7a02:	89b6                	mv	s3,a3
    7a04:	00861793          	slli	a5,a2,0x8
    7a08:	1c07d663          	bgez	a5,7bd4 <__subdf3+0x302>
    7a0c:	00148713          	addi	a4,s1,1
    7a10:	7ff00793          	li	a5,2047
    7a14:	8805                	andi	s0,s0,1
    7a16:	20f70663          	beq	a4,a5,7c22 <__subdf3+0x350>
    7a1a:	ff8007b7          	lui	a5,0xff800
    7a1e:	17fd                	addi	a5,a5,-1
    7a20:	8ff1                	and	a5,a5,a2
    7a22:	01d79813          	slli	a6,a5,0x1d
    7a26:	0039d993          	srli	s3,s3,0x3
    7a2a:	07a6                	slli	a5,a5,0x9
    7a2c:	01386833          	or	a6,a6,s3
    7a30:	83b1                	srli	a5,a5,0xc
    7a32:	7ff77713          	andi	a4,a4,2047
    7a36:	00c79693          	slli	a3,a5,0xc
    7a3a:	0752                	slli	a4,a4,0x14
    7a3c:	82b1                	srli	a3,a3,0xc
    7a3e:	047e                	slli	s0,s0,0x1f
    7a40:	8ed9                	or	a3,a3,a4
    7a42:	8ec1                	or	a3,a3,s0
    7a44:	40f2                	lw	ra,28(sp)
    7a46:	4462                	lw	s0,24(sp)
    7a48:	44d2                	lw	s1,20(sp)
    7a4a:	4942                	lw	s2,16(sp)
    7a4c:	49b2                	lw	s3,12(sp)
    7a4e:	8542                	mv	a0,a6
    7a50:	85b6                	mv	a1,a3
    7a52:	6105                	addi	sp,sp,32
    7a54:	8082                	ret
    7a56:	0ab05663          	blez	a1,7b02 <__subdf3+0x230>
    7a5a:	12088a63          	beqz	a7,7b8e <__subdf3+0x2bc>
    7a5e:	008007b7          	lui	a5,0x800
    7a62:	8f5d                	or	a4,a4,a5
    7a64:	2dc48763          	beq	s1,t3,7d32 <__subdf3+0x460>
    7a68:	03800793          	li	a5,56
    7a6c:	18b7c763          	blt	a5,a1,7bfa <__subdf3+0x328>
    7a70:	47fd                	li	a5,31
    7a72:	3cb7d263          	bge	a5,a1,7e36 <__subdf3+0x564>
    7a76:	fe058813          	addi	a6,a1,-32 # 4000ffe0 <_eusrstack+0x1fffffe0>
    7a7a:	02000793          	li	a5,32
    7a7e:	010759b3          	srl	s3,a4,a6
    7a82:	00f58a63          	beq	a1,a5,7a96 <__subdf3+0x1c4>
    7a86:	04000793          	li	a5,64
    7a8a:	40b785b3          	sub	a1,a5,a1
    7a8e:	00b71733          	sll	a4,a4,a1
    7a92:	00eeeeb3          	or	t4,t4,a4
    7a96:	01d03833          	snez	a6,t4
    7a9a:	01386833          	or	a6,a6,s3
    7a9e:	a295                	j	7c02 <__subdf3+0x330>
    7aa0:	01d767b3          	or	a5,a4,t4
    7aa4:	80148593          	addi	a1,s1,-2047
    7aa8:	e399                	bnez	a5,7aae <__subdf3+0x1dc>
    7aaa:	0016c693          	xori	a3,a3,1
    7aae:	04d40a63          	beq	s0,a3,7b02 <__subdf3+0x230>
    7ab2:	e1d1                	bnez	a1,7b36 <__subdf3+0x264>
    7ab4:	00148793          	addi	a5,s1,1
    7ab8:	7fe7f793          	andi	a5,a5,2046
    7abc:	1e079963          	bnez	a5,7cae <__subdf3+0x3dc>
    7ac0:	01e367b3          	or	a5,t1,t5
    7ac4:	01d76833          	or	a6,a4,t4
    7ac8:	16049263          	bnez	s1,7c2c <__subdf3+0x35a>
    7acc:	3c078263          	beqz	a5,7e90 <__subdf3+0x5be>
    7ad0:	42081663          	bnez	a6,7efc <__subdf3+0x62a>
    7ad4:	00351813          	slli	a6,a0,0x3
    7ad8:	01d31693          	slli	a3,t1,0x1d
    7adc:	00385813          	srli	a6,a6,0x3
    7ae0:	0106e833          	or	a6,a3,a6
    7ae4:	00335793          	srli	a5,t1,0x3
    7ae8:	a219                	j	7bee <__subdf3+0x31c>
    7aea:	01d767b3          	or	a5,a4,t4
    7aee:	1a078563          	beqz	a5,7c98 <__subdf3+0x3c6>
    7af2:	fff58793          	addi	a5,a1,-1
    7af6:	3a078b63          	beqz	a5,7eac <__subdf3+0x5da>
    7afa:	23c58c63          	beq	a1,t3,7d32 <__subdf3+0x460>
    7afe:	85be                	mv	a1,a5
    7b00:	b589                	j	7942 <__subdf3+0x70>
    7b02:	1c059963          	bnez	a1,7cd4 <__subdf3+0x402>
    7b06:	00148693          	addi	a3,s1,1
    7b0a:	7fe6f793          	andi	a5,a3,2046
    7b0e:	efc1                	bnez	a5,7ba6 <__subdf3+0x2d4>
    7b10:	01e367b3          	or	a5,t1,t5
    7b14:	36049063          	bnez	s1,7e74 <__subdf3+0x5a2>
    7b18:	44078d63          	beqz	a5,7f72 <__subdf3+0x6a0>
    7b1c:	01d767b3          	or	a5,a4,t4
    7b20:	46079463          	bnez	a5,7f88 <__subdf3+0x6b6>
    7b24:	050e                	slli	a0,a0,0x3
    7b26:	01d31813          	slli	a6,t1,0x1d
    7b2a:	810d                	srli	a0,a0,0x3
    7b2c:	00a86833          	or	a6,a6,a0
    7b30:	00335793          	srli	a5,t1,0x3
    7b34:	a86d                	j	7bee <__subdf3+0x31c>
    7b36:	409885b3          	sub	a1,a7,s1
    7b3a:	20049763          	bnez	s1,7d48 <__subdf3+0x476>
    7b3e:	01e367b3          	or	a5,t1,t5
    7b42:	30078d63          	beqz	a5,7e5c <__subdf3+0x58a>
    7b46:	fff58793          	addi	a5,a1,-1
    7b4a:	40078963          	beqz	a5,7f5c <__subdf3+0x68a>
    7b4e:	7ff00513          	li	a0,2047
    7b52:	20a58363          	beq	a1,a0,7d58 <__subdf3+0x486>
    7b56:	85be                	mv	a1,a5
    7b58:	03800793          	li	a5,56
    7b5c:	2ab7c263          	blt	a5,a1,7e00 <__subdf3+0x52e>
    7b60:	47fd                	li	a5,31
    7b62:	3cb7c863          	blt	a5,a1,7f32 <__subdf3+0x660>
    7b66:	02000793          	li	a5,32
    7b6a:	8f8d                	sub	a5,a5,a1
    7b6c:	00f31833          	sll	a6,t1,a5
    7b70:	00bf5633          	srl	a2,t5,a1
    7b74:	00ff17b3          	sll	a5,t5,a5
    7b78:	00c86833          	or	a6,a6,a2
    7b7c:	00f039b3          	snez	s3,a5
    7b80:	00b35333          	srl	t1,t1,a1
    7b84:	01386833          	or	a6,a6,s3
    7b88:	40670733          	sub	a4,a4,t1
    7b8c:	acb5                	j	7e08 <__subdf3+0x536>
    7b8e:	01d767b3          	or	a5,a4,t4
    7b92:	10078363          	beqz	a5,7c98 <__subdf3+0x3c6>
    7b96:	fff58793          	addi	a5,a1,-1
    7b9a:	1e078f63          	beqz	a5,7d98 <__subdf3+0x4c6>
    7b9e:	2fc58063          	beq	a1,t3,7e7e <__subdf3+0x5ac>
    7ba2:	85be                	mv	a1,a5
    7ba4:	b5d1                	j	7a68 <__subdf3+0x196>
    7ba6:	7ff00793          	li	a5,2047
    7baa:	06f68b63          	beq	a3,a5,7c20 <__subdf3+0x34e>
    7bae:	9efa                	add	t4,t4,t5
    7bb0:	01eeb633          	sltu	a2,t4,t5
    7bb4:	00e307b3          	add	a5,t1,a4
    7bb8:	97b2                	add	a5,a5,a2
    7bba:	01f79813          	slli	a6,a5,0x1f
    7bbe:	001ede93          	srli	t4,t4,0x1
    7bc2:	01d869b3          	or	s3,a6,t4
    7bc6:	0017d613          	srli	a2,a5,0x1
    7bca:	84b6                	mv	s1,a3
    7bcc:	0079f793          	andi	a5,s3,7
    7bd0:	e0079fe3          	bnez	a5,79ee <__subdf3+0x11c>
    7bd4:	01d61793          	slli	a5,a2,0x1d
    7bd8:	0039d813          	srli	a6,s3,0x3
    7bdc:	00f86833          	or	a6,a6,a5
    7be0:	85a6                	mv	a1,s1
    7be2:	00365793          	srli	a5,a2,0x3
    7be6:	7ff00713          	li	a4,2047
    7bea:	06e58063          	beq	a1,a4,7c4a <__subdf3+0x378>
    7bee:	07b2                	slli	a5,a5,0xc
    7bf0:	83b1                	srli	a5,a5,0xc
    7bf2:	7ff5f713          	andi	a4,a1,2047
    7bf6:	8805                	andi	s0,s0,1
    7bf8:	bd3d                	j	7a36 <__subdf3+0x164>
    7bfa:	01d76733          	or	a4,a4,t4
    7bfe:	00e03833          	snez	a6,a4
    7c02:	01e809b3          	add	s3,a6,t5
    7c06:	01e9b7b3          	sltu	a5,s3,t5
    7c0a:	00678633          	add	a2,a5,t1
    7c0e:	00861793          	slli	a5,a2,0x8
    7c12:	fa07dde3          	bgez	a5,7bcc <__subdf3+0x2fa>
    7c16:	0485                	addi	s1,s1,1
    7c18:	7ff00793          	li	a5,2047
    7c1c:	18f49c63          	bne	s1,a5,7db4 <__subdf3+0x4e2>
    7c20:	8805                	andi	s0,s0,1
    7c22:	7ff00713          	li	a4,2047
    7c26:	4781                	li	a5,0
    7c28:	4801                	li	a6,0
    7c2a:	b531                	j	7a36 <__subdf3+0x164>
    7c2c:	10079163          	bnez	a5,7d2e <__subdf3+0x45c>
    7c30:	3c080163          	beqz	a6,7ff2 <__subdf3+0x720>
    7c34:	00361813          	slli	a6,a2,0x3
    7c38:	01d71793          	slli	a5,a4,0x1d
    7c3c:	00385813          	srli	a6,a6,0x3
    7c40:	00f86833          	or	a6,a6,a5
    7c44:	8436                	mv	s0,a3
    7c46:	00375793          	srli	a5,a4,0x3
    7c4a:	00f867b3          	or	a5,a6,a5
    7c4e:	dbe9                	beqz	a5,7c20 <__subdf3+0x34e>
    7c50:	4401                	li	s0,0
    7c52:	7ff00713          	li	a4,2047
    7c56:	000807b7          	lui	a5,0x80
    7c5a:	4801                	li	a6,0
    7c5c:	bbe9                	j	7a36 <__subdf3+0x164>
    7c5e:	ff800637          	lui	a2,0xff800
    7c62:	167d                	addi	a2,a2,-1
    7c64:	8e7d                	and	a2,a2,a5
    7c66:	0079f793          	andi	a5,s3,7
    7c6a:	8c99                	sub	s1,s1,a4
    7c6c:	d80791e3          	bnez	a5,79ee <__subdf3+0x11c>
    7c70:	b795                	j	7bd4 <__subdf3+0x302>
    7c72:	854e                	mv	a0,s3
    7c74:	425000ef          	jal	ra,8898 <__clzsi2>
    7c78:	01850713          	addi	a4,a0,24
    7c7c:	47fd                	li	a5,31
    7c7e:	d2e7d2e3          	bge	a5,a4,79a2 <__subdf3+0xd0>
    7c82:	ff850613          	addi	a2,a0,-8
    7c86:	00c997b3          	sll	a5,s3,a2
    7c8a:	4981                	li	s3,0
    7c8c:	b32d                	j	79b6 <__subdf3+0xe4>
    7c8e:	01d76833          	or	a6,a4,t4
    7c92:	01003833          	snez	a6,a6
    7c96:	b1c5                	j	7976 <__subdf3+0xa4>
    7c98:	00351813          	slli	a6,a0,0x3
    7c9c:	01d31793          	slli	a5,t1,0x1d
    7ca0:	00385813          	srli	a6,a6,0x3
    7ca4:	00f86833          	or	a6,a6,a5
    7ca8:	00335793          	srli	a5,t1,0x3
    7cac:	bf2d                	j	7be6 <__subdf3+0x314>
    7cae:	41df09b3          	sub	s3,t5,t4
    7cb2:	40e30933          	sub	s2,t1,a4
    7cb6:	013f3633          	sltu	a2,t5,s3
    7cba:	40c90933          	sub	s2,s2,a2
    7cbe:	00891793          	slli	a5,s2,0x8
    7cc2:	2007ca63          	bltz	a5,7ed6 <__subdf3+0x604>
    7cc6:	0129e833          	or	a6,s3,s2
    7cca:	cc0815e3          	bnez	a6,7994 <__subdf3+0xc2>
    7cce:	4781                	li	a5,0
    7cd0:	4401                	li	s0,0
    7cd2:	bf31                	j	7bee <__subdf3+0x31c>
    7cd4:	409885b3          	sub	a1,a7,s1
    7cd8:	14048163          	beqz	s1,7e1a <__subdf3+0x548>
    7cdc:	008006b7          	lui	a3,0x800
    7ce0:	7ff00793          	li	a5,2047
    7ce4:	00d36333          	or	t1,t1,a3
    7ce8:	20f88163          	beq	a7,a5,7eea <__subdf3+0x618>
    7cec:	03800793          	li	a5,56
    7cf0:	22b7cc63          	blt	a5,a1,7f28 <__subdf3+0x656>
    7cf4:	47fd                	li	a5,31
    7cf6:	2cb7c963          	blt	a5,a1,7fc8 <__subdf3+0x6f6>
    7cfa:	02000793          	li	a5,32
    7cfe:	8f8d                	sub	a5,a5,a1
    7d00:	00f31833          	sll	a6,t1,a5
    7d04:	00bf56b3          	srl	a3,t5,a1
    7d08:	00ff17b3          	sll	a5,t5,a5
    7d0c:	00d86833          	or	a6,a6,a3
    7d10:	00f039b3          	snez	s3,a5
    7d14:	00b35333          	srl	t1,t1,a1
    7d18:	01386833          	or	a6,a6,s3
    7d1c:	971a                	add	a4,a4,t1
    7d1e:	01d809b3          	add	s3,a6,t4
    7d22:	01d9b7b3          	sltu	a5,s3,t4
    7d26:	00e78633          	add	a2,a5,a4
    7d2a:	84c6                	mv	s1,a7
    7d2c:	b5cd                	j	7c0e <__subdf3+0x33c>
    7d2e:	f20811e3          	bnez	a6,7c50 <__subdf3+0x37e>
    7d32:	00351813          	slli	a6,a0,0x3
    7d36:	01d31793          	slli	a5,t1,0x1d
    7d3a:	00385813          	srli	a6,a6,0x3
    7d3e:	00f86833          	or	a6,a6,a5
    7d42:	00335793          	srli	a5,t1,0x3
    7d46:	b711                	j	7c4a <__subdf3+0x378>
    7d48:	00800537          	lui	a0,0x800
    7d4c:	7ff00793          	li	a5,2047
    7d50:	00a36333          	or	t1,t1,a0
    7d54:	e0f892e3          	bne	a7,a5,7b58 <__subdf3+0x286>
    7d58:	060e                	slli	a2,a2,0x3
    7d5a:	01d71813          	slli	a6,a4,0x1d
    7d5e:	820d                	srli	a2,a2,0x3
    7d60:	00c86833          	or	a6,a6,a2
    7d64:	00375793          	srli	a5,a4,0x3
    7d68:	8436                	mv	s0,a3
    7d6a:	b5c5                	j	7c4a <__subdf3+0x378>
    7d6c:	1705                	addi	a4,a4,-31
    7d6e:	02000693          	li	a3,32
    7d72:	00e7d733          	srl	a4,a5,a4
    7d76:	00d60a63          	beq	a2,a3,7d8a <__subdf3+0x4b8>
    7d7a:	04000693          	li	a3,64
    7d7e:	40c68633          	sub	a2,a3,a2
    7d82:	00c79633          	sll	a2,a5,a2
    7d86:	00c9e9b3          	or	s3,s3,a2
    7d8a:	01303833          	snez	a6,s3
    7d8e:	00e869b3          	or	s3,a6,a4
    7d92:	4601                	li	a2,0
    7d94:	4481                	li	s1,0
    7d96:	bd1d                	j	7bcc <__subdf3+0x2fa>
    7d98:	01df09b3          	add	s3,t5,t4
    7d9c:	00e307b3          	add	a5,t1,a4
    7da0:	01e9bf33          	sltu	t5,s3,t5
    7da4:	01e78633          	add	a2,a5,t5
    7da8:	00861793          	slli	a5,a2,0x8
    7dac:	4485                	li	s1,1
    7dae:	e007dfe3          	bgez	a5,7bcc <__subdf3+0x2fa>
    7db2:	4489                	li	s1,2
    7db4:	ff8007b7          	lui	a5,0xff800
    7db8:	17fd                	addi	a5,a5,-1
    7dba:	8ff1                	and	a5,a5,a2
    7dbc:	0019d713          	srli	a4,s3,0x1
    7dc0:	0019f813          	andi	a6,s3,1
    7dc4:	01076833          	or	a6,a4,a6
    7dc8:	01f79993          	slli	s3,a5,0x1f
    7dcc:	0109e9b3          	or	s3,s3,a6
    7dd0:	0017d613          	srli	a2,a5,0x1
    7dd4:	b911                	j	79e8 <__subdf3+0x116>
    7dd6:	fe058813          	addi	a6,a1,-32
    7dda:	02000793          	li	a5,32
    7dde:	010759b3          	srl	s3,a4,a6
    7de2:	00f58a63          	beq	a1,a5,7df6 <__subdf3+0x524>
    7de6:	04000793          	li	a5,64
    7dea:	40b785b3          	sub	a1,a5,a1
    7dee:	00b71733          	sll	a4,a4,a1
    7df2:	00eeeeb3          	or	t4,t4,a4
    7df6:	01d03833          	snez	a6,t4
    7dfa:	01386833          	or	a6,a6,s3
    7dfe:	bea5                	j	7976 <__subdf3+0xa4>
    7e00:	01e36333          	or	t1,t1,t5
    7e04:	00603833          	snez	a6,t1
    7e08:	410e89b3          	sub	s3,t4,a6
    7e0c:	013eb7b3          	sltu	a5,t4,s3
    7e10:	40f70633          	sub	a2,a4,a5
    7e14:	84c6                	mv	s1,a7
    7e16:	8436                	mv	s0,a3
    7e18:	b6ad                	j	7982 <__subdf3+0xb0>
    7e1a:	01e367b3          	or	a5,t1,t5
    7e1e:	18078763          	beqz	a5,7fac <__subdf3+0x6da>
    7e22:	fff58793          	addi	a5,a1,-1
    7e26:	1c078c63          	beqz	a5,7ffe <__subdf3+0x72c>
    7e2a:	7ff00693          	li	a3,2047
    7e2e:	0ad58e63          	beq	a1,a3,7eea <__subdf3+0x618>
    7e32:	85be                	mv	a1,a5
    7e34:	bd65                	j	7cec <__subdf3+0x41a>
    7e36:	02000793          	li	a5,32
    7e3a:	8f8d                	sub	a5,a5,a1
    7e3c:	00bed9b3          	srl	s3,t4,a1
    7e40:	00f71833          	sll	a6,a4,a5
    7e44:	00fe9eb3          	sll	t4,t4,a5
    7e48:	01386833          	or	a6,a6,s3
    7e4c:	00b75733          	srl	a4,a4,a1
    7e50:	01d039b3          	snez	s3,t4
    7e54:	01386833          	or	a6,a6,s3
    7e58:	933a                	add	t1,t1,a4
    7e5a:	b365                	j	7c02 <__subdf3+0x330>
    7e5c:	00361813          	slli	a6,a2,0x3
    7e60:	01d71793          	slli	a5,a4,0x1d
    7e64:	00385813          	srli	a6,a6,0x3
    7e68:	0107e833          	or	a6,a5,a6
    7e6c:	8436                	mv	s0,a3
    7e6e:	00375793          	srli	a5,a4,0x3
    7e72:	bb95                	j	7be6 <__subdf3+0x314>
    7e74:	cbbd                	beqz	a5,7eea <__subdf3+0x618>
    7e76:	01d76733          	or	a4,a4,t4
    7e7a:	dc071be3          	bnez	a4,7c50 <__subdf3+0x37e>
    7e7e:	050e                	slli	a0,a0,0x3
    7e80:	01d31813          	slli	a6,t1,0x1d
    7e84:	810d                	srli	a0,a0,0x3
    7e86:	00a86833          	or	a6,a6,a0
    7e8a:	00335793          	srli	a5,t1,0x3
    7e8e:	bb75                	j	7c4a <__subdf3+0x378>
    7e90:	e2080fe3          	beqz	a6,7cce <__subdf3+0x3fc>
    7e94:	00361813          	slli	a6,a2,0x3
    7e98:	01d71793          	slli	a5,a4,0x1d
    7e9c:	00385813          	srli	a6,a6,0x3
    7ea0:	00f86833          	or	a6,a6,a5
    7ea4:	8436                	mv	s0,a3
    7ea6:	00375793          	srli	a5,a4,0x3
    7eaa:	b391                	j	7bee <__subdf3+0x31c>
    7eac:	41df09b3          	sub	s3,t5,t4
    7eb0:	40e307b3          	sub	a5,t1,a4
    7eb4:	013f3f33          	sltu	t5,t5,s3
    7eb8:	41e78633          	sub	a2,a5,t5
    7ebc:	4485                	li	s1,1
    7ebe:	b4d1                	j	7982 <__subdf3+0xb0>
    7ec0:	00351813          	slli	a6,a0,0x3
    7ec4:	01d31693          	slli	a3,t1,0x1d
    7ec8:	00385813          	srli	a6,a6,0x3
    7ecc:	0106e833          	or	a6,a3,a6
    7ed0:	00335793          	srli	a5,t1,0x3
    7ed4:	bb9d                	j	7c4a <__subdf3+0x378>
    7ed6:	41ee89b3          	sub	s3,t4,t5
    7eda:	40670633          	sub	a2,a4,t1
    7ede:	013eb933          	sltu	s2,t4,s3
    7ee2:	41260933          	sub	s2,a2,s2
    7ee6:	8436                	mv	s0,a3
    7ee8:	b475                	j	7994 <__subdf3+0xc2>
    7eea:	060e                	slli	a2,a2,0x3
    7eec:	01d71813          	slli	a6,a4,0x1d
    7ef0:	820d                	srli	a2,a2,0x3
    7ef2:	00c86833          	or	a6,a6,a2
    7ef6:	00375793          	srli	a5,a4,0x3
    7efa:	bb81                	j	7c4a <__subdf3+0x378>
    7efc:	41df09b3          	sub	s3,t5,t4
    7f00:	40e307b3          	sub	a5,t1,a4
    7f04:	013f3633          	sltu	a2,t5,s3
    7f08:	40c78633          	sub	a2,a5,a2
    7f0c:	00861793          	slli	a5,a2,0x8
    7f10:	0a07d763          	bgez	a5,7fbe <__subdf3+0x6ec>
    7f14:	41ee89b3          	sub	s3,t4,t5
    7f18:	406707b3          	sub	a5,a4,t1
    7f1c:	013ebeb3          	sltu	t4,t4,s3
    7f20:	41d78633          	sub	a2,a5,t4
    7f24:	8436                	mv	s0,a3
    7f26:	b4c9                	j	79e8 <__subdf3+0x116>
    7f28:	01e36333          	or	t1,t1,t5
    7f2c:	00603833          	snez	a6,t1
    7f30:	b3fd                	j	7d1e <__subdf3+0x44c>
    7f32:	fe058813          	addi	a6,a1,-32
    7f36:	02000793          	li	a5,32
    7f3a:	010359b3          	srl	s3,t1,a6
    7f3e:	00f58a63          	beq	a1,a5,7f52 <__subdf3+0x680>
    7f42:	04000793          	li	a5,64
    7f46:	40b785b3          	sub	a1,a5,a1
    7f4a:	00b31333          	sll	t1,t1,a1
    7f4e:	006f6f33          	or	t5,t5,t1
    7f52:	01e03833          	snez	a6,t5
    7f56:	01386833          	or	a6,a6,s3
    7f5a:	b57d                	j	7e08 <__subdf3+0x536>
    7f5c:	41ee89b3          	sub	s3,t4,t5
    7f60:	406707b3          	sub	a5,a4,t1
    7f64:	013ebeb3          	sltu	t4,t4,s3
    7f68:	41d78633          	sub	a2,a5,t4
    7f6c:	8436                	mv	s0,a3
    7f6e:	4485                	li	s1,1
    7f70:	bc09                	j	7982 <__subdf3+0xb0>
    7f72:	00361813          	slli	a6,a2,0x3
    7f76:	01d71793          	slli	a5,a4,0x1d
    7f7a:	00385813          	srli	a6,a6,0x3
    7f7e:	00f86833          	or	a6,a6,a5
    7f82:	00375793          	srli	a5,a4,0x3
    7f86:	b1a5                	j	7bee <__subdf3+0x31c>
    7f88:	01df09b3          	add	s3,t5,t4
    7f8c:	00e307b3          	add	a5,t1,a4
    7f90:	01e9bf33          	sltu	t5,s3,t5
    7f94:	01e78633          	add	a2,a5,t5
    7f98:	00861793          	slli	a5,a2,0x8
    7f9c:	c207d8e3          	bgez	a5,7bcc <__subdf3+0x2fa>
    7fa0:	ff8007b7          	lui	a5,0xff800
    7fa4:	17fd                	addi	a5,a5,-1
    7fa6:	8e7d                	and	a2,a2,a5
    7fa8:	4485                	li	s1,1
    7faa:	b10d                	j	7bcc <__subdf3+0x2fa>
    7fac:	060e                	slli	a2,a2,0x3
    7fae:	01d71813          	slli	a6,a4,0x1d
    7fb2:	820d                	srli	a2,a2,0x3
    7fb4:	00c86833          	or	a6,a6,a2
    7fb8:	00375793          	srli	a5,a4,0x3
    7fbc:	b12d                	j	7be6 <__subdf3+0x314>
    7fbe:	00c9e833          	or	a6,s3,a2
    7fc2:	d00806e3          	beqz	a6,7cce <__subdf3+0x3fc>
    7fc6:	b119                	j	7bcc <__subdf3+0x2fa>
    7fc8:	fe058813          	addi	a6,a1,-32
    7fcc:	02000793          	li	a5,32
    7fd0:	010359b3          	srl	s3,t1,a6
    7fd4:	00f58a63          	beq	a1,a5,7fe8 <__subdf3+0x716>
    7fd8:	04000793          	li	a5,64
    7fdc:	40b785b3          	sub	a1,a5,a1
    7fe0:	00b31333          	sll	t1,t1,a1
    7fe4:	006f6f33          	or	t5,t5,t1
    7fe8:	01e03833          	snez	a6,t5
    7fec:	01386833          	or	a6,a6,s3
    7ff0:	b33d                	j	7d1e <__subdf3+0x44c>
    7ff2:	4401                	li	s0,0
    7ff4:	7ff00713          	li	a4,2047
    7ff8:	000807b7          	lui	a5,0x80
    7ffc:	bc2d                	j	7a36 <__subdf3+0x164>
    7ffe:	01df09b3          	add	s3,t5,t4
    8002:	00e307b3          	add	a5,t1,a4
    8006:	01d9beb3          	sltu	t4,s3,t4
    800a:	01d78633          	add	a2,a5,t4
    800e:	bb69                	j	7da8 <__subdf3+0x4d6>

00008010 <__fixunsdfsi>:
    8010:	0145d793          	srli	a5,a1,0x14
    8014:	001006b7          	lui	a3,0x100
    8018:	fff68713          	addi	a4,a3,-1 # fffff <__rt_init_end+0xf2ee7>
    801c:	7ff7f793          	andi	a5,a5,2047
    8020:	3fe00613          	li	a2,1022
    8024:	882a                	mv	a6,a0
    8026:	8f6d                	and	a4,a4,a1
    8028:	4501                	li	a0,0
    802a:	81fd                	srli	a1,a1,0x1f
    802c:	00f65463          	bge	a2,a5,8034 <__fixunsdfsi+0x24>
    8030:	c199                	beqz	a1,8036 <__fixunsdfsi+0x26>
    8032:	8082                	ret
    8034:	8082                	ret
    8036:	41e00613          	li	a2,1054
    803a:	557d                	li	a0,-1
    803c:	fef64be3          	blt	a2,a5,8032 <__fixunsdfsi+0x22>
    8040:	43300513          	li	a0,1075
    8044:	8d1d                	sub	a0,a0,a5
    8046:	467d                	li	a2,31
    8048:	8f55                	or	a4,a4,a3
    804a:	00a64a63          	blt	a2,a0,805e <__fixunsdfsi+0x4e>
    804e:	bed78793          	addi	a5,a5,-1043 # 7fbed <__rt_init_end+0x72ad5>
    8052:	00f71733          	sll	a4,a4,a5
    8056:	00a85533          	srl	a0,a6,a0
    805a:	8d59                	or	a0,a0,a4
    805c:	8082                	ret
    805e:	41300513          	li	a0,1043
    8062:	40f507b3          	sub	a5,a0,a5
    8066:	00f75533          	srl	a0,a4,a5
    806a:	8082                	ret

0000806c <__divsf3>:
    806c:	7139                	addi	sp,sp,-64
    806e:	01755793          	srli	a5,a0,0x17
    8072:	d84a                	sw	s2,48(sp)
    8074:	d256                	sw	s5,36(sp)
    8076:	ce5e                	sw	s7,28(sp)
    8078:	00951a93          	slli	s5,a0,0x9
    807c:	01f55913          	srli	s2,a0,0x1f
    8080:	de06                	sw	ra,60(sp)
    8082:	dc22                	sw	s0,56(sp)
    8084:	da26                	sw	s1,52(sp)
    8086:	d64e                	sw	s3,44(sp)
    8088:	d452                	sw	s4,40(sp)
    808a:	d05a                	sw	s6,32(sp)
    808c:	0ff7f793          	andi	a5,a5,255
    8090:	009ada93          	srli	s5,s5,0x9
    8094:	8bca                	mv	s7,s2
    8096:	12078263          	beqz	a5,81ba <__divsf3+0x14e>
    809a:	0ff00713          	li	a4,255
    809e:	12e78463          	beq	a5,a4,81c6 <__divsf3+0x15a>
    80a2:	0a8e                	slli	s5,s5,0x3
    80a4:	04000737          	lui	a4,0x4000
    80a8:	00eaeab3          	or	s5,s5,a4
    80ac:	f8178a13          	addi	s4,a5,-127
    80b0:	4401                	li	s0,0
    80b2:	4b01                	li	s6,0
    80b4:	0175d793          	srli	a5,a1,0x17
    80b8:	00959493          	slli	s1,a1,0x9
    80bc:	0ff7f793          	andi	a5,a5,255
    80c0:	80a5                	srli	s1,s1,0x9
    80c2:	01f5d993          	srli	s3,a1,0x1f
    80c6:	c7fd                	beqz	a5,81b4 <__divsf3+0x148>
    80c8:	0ff00713          	li	a4,255
    80cc:	02e78763          	beq	a5,a4,80fa <__divsf3+0x8e>
    80d0:	048e                	slli	s1,s1,0x3
    80d2:	f8178793          	addi	a5,a5,-127
    80d6:	04000737          	lui	a4,0x4000
    80da:	8cd9                	or	s1,s1,a4
    80dc:	40fa0a33          	sub	s4,s4,a5
    80e0:	4681                	li	a3,0
    80e2:	8c55                	or	s0,s0,a3
    80e4:	00005717          	auipc	a4,0x5
    80e8:	b0070713          	addi	a4,a4,-1280 # cbe4 <__fsym___cmd_Read_Buttons_Debug_name+0x5c>
    80ec:	040a                	slli	s0,s0,0x2
    80ee:	943a                	add	s0,s0,a4
    80f0:	401c                	lw	a5,0(s0)
    80f2:	01394933          	xor	s2,s2,s3
    80f6:	97ba                	add	a5,a5,a4
    80f8:	8782                	jr	a5
    80fa:	f01a0a13          	addi	s4,s4,-255
    80fe:	e8f9                	bnez	s1,81d4 <__divsf3+0x168>
    8100:	4689                	li	a3,2
    8102:	8c55                	or	s0,s0,a3
    8104:	00005717          	auipc	a4,0x5
    8108:	b2070713          	addi	a4,a4,-1248 # cc24 <__fsym___cmd_Read_Buttons_Debug_name+0x9c>
    810c:	040a                	slli	s0,s0,0x2
    810e:	943a                	add	s0,s0,a4
    8110:	401c                	lw	a5,0(s0)
    8112:	01394933          	xor	s2,s2,s3
    8116:	97ba                	add	a5,a5,a4
    8118:	8782                	jr	a5
    811a:	4901                	li	s2,0
    811c:	0ff00713          	li	a4,255
    8120:	004007b7          	lui	a5,0x400
    8124:	00979513          	slli	a0,a5,0x9
    8128:	50f2                	lw	ra,60(sp)
    812a:	5462                	lw	s0,56(sp)
    812c:	01771793          	slli	a5,a4,0x17
    8130:	8125                	srli	a0,a0,0x9
    8132:	097e                	slli	s2,s2,0x1f
    8134:	8d5d                	or	a0,a0,a5
    8136:	01256533          	or	a0,a0,s2
    813a:	54d2                	lw	s1,52(sp)
    813c:	5942                	lw	s2,48(sp)
    813e:	59b2                	lw	s3,44(sp)
    8140:	5a22                	lw	s4,40(sp)
    8142:	5a92                	lw	s5,36(sp)
    8144:	5b02                	lw	s6,32(sp)
    8146:	4bf2                	lw	s7,28(sp)
    8148:	6121                	addi	sp,sp,64
    814a:	8082                	ret
    814c:	0ff00713          	li	a4,255
    8150:	4781                	li	a5,0
    8152:	bfc9                	j	8124 <__divsf3+0xb8>
    8154:	8aa6                	mv	s5,s1
    8156:	8bce                	mv	s7,s3
    8158:	8b36                	mv	s6,a3
    815a:	4789                	li	a5,2
    815c:	1afb0963          	beq	s6,a5,830e <__divsf3+0x2a2>
    8160:	478d                	li	a5,3
    8162:	fafb0ce3          	beq	s6,a5,811a <__divsf3+0xae>
    8166:	4785                	li	a5,1
    8168:	0afb0863          	beq	s6,a5,8218 <__divsf3+0x1ac>
    816c:	07fa0713          	addi	a4,s4,127
    8170:	001bf913          	andi	s2,s7,1
    8174:	12e05563          	blez	a4,829e <__divsf3+0x232>
    8178:	007af793          	andi	a5,s5,7
    817c:	c799                	beqz	a5,818a <__divsf3+0x11e>
    817e:	00faf793          	andi	a5,s5,15
    8182:	4691                	li	a3,4
    8184:	00d78363          	beq	a5,a3,818a <__divsf3+0x11e>
    8188:	0a91                	addi	s5,s5,4
    818a:	004a9793          	slli	a5,s5,0x4
    818e:	0007d963          	bgez	a5,81a0 <__divsf3+0x134>
    8192:	f80007b7          	lui	a5,0xf8000
    8196:	17fd                	addi	a5,a5,-1
    8198:	00fafab3          	and	s5,s5,a5
    819c:	080a0713          	addi	a4,s4,128
    81a0:	0fe00793          	li	a5,254
    81a4:	fae7c4e3          	blt	a5,a4,814c <__divsf3+0xe0>
    81a8:	006a9793          	slli	a5,s5,0x6
    81ac:	83a5                	srli	a5,a5,0x9
    81ae:	0ff77713          	andi	a4,a4,255
    81b2:	bf8d                	j	8124 <__divsf3+0xb8>
    81b4:	e4b1                	bnez	s1,8200 <__divsf3+0x194>
    81b6:	4685                	li	a3,1
    81b8:	b7a9                	j	8102 <__divsf3+0x96>
    81ba:	020a9463          	bnez	s5,81e2 <__divsf3+0x176>
    81be:	4411                	li	s0,4
    81c0:	4a01                	li	s4,0
    81c2:	4b05                	li	s6,1
    81c4:	bdc5                	j	80b4 <__divsf3+0x48>
    81c6:	000a9963          	bnez	s5,81d8 <__divsf3+0x16c>
    81ca:	4421                	li	s0,8
    81cc:	0ff00a13          	li	s4,255
    81d0:	4b09                	li	s6,2
    81d2:	b5cd                	j	80b4 <__divsf3+0x48>
    81d4:	468d                	li	a3,3
    81d6:	b731                	j	80e2 <__divsf3+0x76>
    81d8:	4431                	li	s0,12
    81da:	0ff00a13          	li	s4,255
    81de:	4b0d                	li	s6,3
    81e0:	bdd1                	j	80b4 <__divsf3+0x48>
    81e2:	8556                	mv	a0,s5
    81e4:	c62e                	sw	a1,12(sp)
    81e6:	2d4d                	jal	8898 <__clzsi2>
    81e8:	ffb50793          	addi	a5,a0,-5 # 7ffffb <__rt_init_end+0x7f2ee3>
    81ec:	00fa9ab3          	sll	s5,s5,a5
    81f0:	f8a00793          	li	a5,-118
    81f4:	40a78a33          	sub	s4,a5,a0
    81f8:	4401                	li	s0,0
    81fa:	4b01                	li	s6,0
    81fc:	45b2                	lw	a1,12(sp)
    81fe:	bd5d                	j	80b4 <__divsf3+0x48>
    8200:	8526                	mv	a0,s1
    8202:	2d59                	jal	8898 <__clzsi2>
    8204:	ffb50713          	addi	a4,a0,-5
    8208:	00aa07b3          	add	a5,s4,a0
    820c:	00e494b3          	sll	s1,s1,a4
    8210:	07678a13          	addi	s4,a5,118 # f8000076 <_eusrstack+0xd7ff0076>
    8214:	4681                	li	a3,0
    8216:	b5f1                	j	80e2 <__divsf3+0x76>
    8218:	001bf913          	andi	s2,s7,1
    821c:	4701                	li	a4,0
    821e:	4781                	li	a5,0
    8220:	b711                	j	8124 <__divsf3+0xb8>
    8222:	6641                	lui	a2,0x10
    8224:	00549513          	slli	a0,s1,0x5
    8228:	167d                	addi	a2,a2,-1
    822a:	01055793          	srli	a5,a0,0x10
    822e:	8e69                	and	a2,a2,a0
    8230:	0a9afa63          	bgeu	s5,s1,82e4 <__divsf3+0x278>
    8234:	02fad5b3          	divu	a1,s5,a5
    8238:	1a7d                	addi	s4,s4,-1
    823a:	86d6                	mv	a3,s5
    823c:	4701                	li	a4,0
    823e:	02c58833          	mul	a6,a1,a2
    8242:	02f6f6b3          	remu	a3,a3,a5
    8246:	06c2                	slli	a3,a3,0x10
    8248:	8f55                	or	a4,a4,a3
    824a:	01077b63          	bgeu	a4,a6,8260 <__divsf3+0x1f4>
    824e:	972a                	add	a4,a4,a0
    8250:	fff58693          	addi	a3,a1,-1
    8254:	0aa76863          	bltu	a4,a0,8304 <__divsf3+0x298>
    8258:	0b077663          	bgeu	a4,a6,8304 <__divsf3+0x298>
    825c:	15f9                	addi	a1,a1,-2
    825e:	972a                	add	a4,a4,a0
    8260:	41070733          	sub	a4,a4,a6
    8264:	02f756b3          	divu	a3,a4,a5
    8268:	02f77733          	remu	a4,a4,a5
    826c:	02c68ab3          	mul	s5,a3,a2
    8270:	01071793          	slli	a5,a4,0x10
    8274:	0157fb63          	bgeu	a5,s5,828a <__divsf3+0x21e>
    8278:	97aa                	add	a5,a5,a0
    827a:	fff68713          	addi	a4,a3,-1
    827e:	08a7e163          	bltu	a5,a0,8300 <__divsf3+0x294>
    8282:	0757ff63          	bgeu	a5,s5,8300 <__divsf3+0x294>
    8286:	16f9                	addi	a3,a3,-2
    8288:	97aa                	add	a5,a5,a0
    828a:	05c2                	slli	a1,a1,0x10
    828c:	41578ab3          	sub	s5,a5,s5
    8290:	8dd5                	or	a1,a1,a3
    8292:	01503ab3          	snez	s5,s5
    8296:	0155eab3          	or	s5,a1,s5
    829a:	8bca                	mv	s7,s2
    829c:	bdc1                	j	816c <__divsf3+0x100>
    829e:	4685                	li	a3,1
    82a0:	8e99                	sub	a3,a3,a4
    82a2:	c711                	beqz	a4,82ae <__divsf3+0x242>
    82a4:	466d                	li	a2,27
    82a6:	4701                	li	a4,0
    82a8:	4781                	li	a5,0
    82aa:	e6d64de3          	blt	a2,a3,8124 <__divsf3+0xb8>
    82ae:	09ea0a13          	addi	s4,s4,158
    82b2:	014a9a33          	sll	s4,s5,s4
    82b6:	00dad7b3          	srl	a5,s5,a3
    82ba:	01403ab3          	snez	s5,s4
    82be:	0157e7b3          	or	a5,a5,s5
    82c2:	0077f713          	andi	a4,a5,7
    82c6:	c719                	beqz	a4,82d4 <__divsf3+0x268>
    82c8:	00f7f713          	andi	a4,a5,15
    82cc:	4691                	li	a3,4
    82ce:	00d70363          	beq	a4,a3,82d4 <__divsf3+0x268>
    82d2:	0791                	addi	a5,a5,4
    82d4:	00579713          	slli	a4,a5,0x5
    82d8:	02074863          	bltz	a4,8308 <__divsf3+0x29c>
    82dc:	079a                	slli	a5,a5,0x6
    82de:	83a5                	srli	a5,a5,0x9
    82e0:	4701                	li	a4,0
    82e2:	b589                	j	8124 <__divsf3+0xb8>
    82e4:	001ad693          	srli	a3,s5,0x1
    82e8:	02f6d5b3          	divu	a1,a3,a5
    82ec:	01fa9713          	slli	a4,s5,0x1f
    82f0:	8341                	srli	a4,a4,0x10
    82f2:	02c58833          	mul	a6,a1,a2
    82f6:	b7b1                	j	8242 <__divsf3+0x1d6>
    82f8:	8bce                	mv	s7,s3
    82fa:	8b36                	mv	s6,a3
    82fc:	4a81                	li	s5,0
    82fe:	bdb1                	j	815a <__divsf3+0xee>
    8300:	86ba                	mv	a3,a4
    8302:	b761                	j	828a <__divsf3+0x21e>
    8304:	85b6                	mv	a1,a3
    8306:	bfa9                	j	8260 <__divsf3+0x1f4>
    8308:	4705                	li	a4,1
    830a:	4781                	li	a5,0
    830c:	bd21                	j	8124 <__divsf3+0xb8>
    830e:	001bf913          	andi	s2,s7,1
    8312:	0ff00713          	li	a4,255
    8316:	4781                	li	a5,0
    8318:	b531                	j	8124 <__divsf3+0xb8>

0000831a <__gesf2>:
    831a:	01755693          	srli	a3,a0,0x17
    831e:	008007b7          	lui	a5,0x800
    8322:	17fd                	addi	a5,a5,-1
    8324:	0175d613          	srli	a2,a1,0x17
    8328:	0ff6f693          	andi	a3,a3,255
    832c:	0ff00813          	li	a6,255
    8330:	00a7f8b3          	and	a7,a5,a0
    8334:	01f55713          	srli	a4,a0,0x1f
    8338:	8fed                	and	a5,a5,a1
    833a:	0ff67613          	andi	a2,a2,255
    833e:	81fd                	srli	a1,a1,0x1f
    8340:	03068163          	beq	a3,a6,8362 <__gesf2+0x48>
    8344:	01060c63          	beq	a2,a6,835c <__gesf2+0x42>
    8348:	e28d                	bnez	a3,836a <__gesf2+0x50>
    834a:	e211                	bnez	a2,834e <__gesf2+0x34>
    834c:	c3b1                	beqz	a5,8390 <__gesf2+0x76>
    834e:	02088e63          	beqz	a7,838a <__gesf2+0x70>
    8352:	04b70563          	beq	a4,a1,839c <__gesf2+0x82>
    8356:	4505                	li	a0,1
    8358:	e71d                	bnez	a4,8386 <__gesf2+0x6c>
    835a:	8082                	ret
    835c:	d7f5                	beqz	a5,8348 <__gesf2+0x2e>
    835e:	5579                	li	a0,-2
    8360:	8082                	ret
    8362:	fe089ee3          	bnez	a7,835e <__gesf2+0x44>
    8366:	02d60963          	beq	a2,a3,8398 <__gesf2+0x7e>
    836a:	e211                	bnez	a2,836e <__gesf2+0x54>
    836c:	d7ed                	beqz	a5,8356 <__gesf2+0x3c>
    836e:	feb714e3          	bne	a4,a1,8356 <__gesf2+0x3c>
    8372:	fed642e3          	blt	a2,a3,8356 <__gesf2+0x3c>
    8376:	00c6c763          	blt	a3,a2,8384 <__gesf2+0x6a>
    837a:	fd17eee3          	bltu	a5,a7,8356 <__gesf2+0x3c>
    837e:	4501                	li	a0,0
    8380:	fcf8fde3          	bgeu	a7,a5,835a <__gesf2+0x40>
    8384:	e701                	bnez	a4,838c <__gesf2+0x72>
    8386:	557d                	li	a0,-1
    8388:	8082                	ret
    838a:	ddf5                	beqz	a1,8386 <__gesf2+0x6c>
    838c:	4505                	li	a0,1
    838e:	8082                	ret
    8390:	4501                	li	a0,0
    8392:	fc0892e3          	bnez	a7,8356 <__gesf2+0x3c>
    8396:	8082                	ret
    8398:	dbf9                	beqz	a5,836e <__gesf2+0x54>
    839a:	b7d1                	j	835e <__gesf2+0x44>
    839c:	4681                	li	a3,0
    839e:	bfe1                	j	8376 <__gesf2+0x5c>

000083a0 <__lesf2>:
    83a0:	01755693          	srli	a3,a0,0x17
    83a4:	008007b7          	lui	a5,0x800
    83a8:	17fd                	addi	a5,a5,-1
    83aa:	0175d613          	srli	a2,a1,0x17
    83ae:	0ff6f693          	andi	a3,a3,255
    83b2:	0ff00813          	li	a6,255
    83b6:	00a7f8b3          	and	a7,a5,a0
    83ba:	01f55713          	srli	a4,a0,0x1f
    83be:	8fed                	and	a5,a5,a1
    83c0:	0ff67613          	andi	a2,a2,255
    83c4:	81fd                	srli	a1,a1,0x1f
    83c6:	03068763          	beq	a3,a6,83f4 <__lesf2+0x54>
    83ca:	01060963          	beq	a2,a6,83dc <__lesf2+0x3c>
    83ce:	ea85                	bnez	a3,83fe <__lesf2+0x5e>
    83d0:	ea11                	bnez	a2,83e4 <__lesf2+0x44>
    83d2:	eb89                	bnez	a5,83e4 <__lesf2+0x44>
    83d4:	4501                	li	a0,0
    83d6:	00089b63          	bnez	a7,83ec <__lesf2+0x4c>
    83da:	8082                	ret
    83dc:	4509                	li	a0,2
    83de:	fff5                	bnez	a5,83da <__lesf2+0x3a>
    83e0:	dae5                	beqz	a3,83d0 <__lesf2+0x30>
    83e2:	a831                	j	83fe <__lesf2+0x5e>
    83e4:	02088c63          	beqz	a7,841c <__lesf2+0x7c>
    83e8:	04b70063          	beq	a4,a1,8428 <__lesf2+0x88>
    83ec:	4505                	li	a0,1
    83ee:	d775                	beqz	a4,83da <__lesf2+0x3a>
    83f0:	557d                	li	a0,-1
    83f2:	8082                	ret
    83f4:	4509                	li	a0,2
    83f6:	02089863          	bnez	a7,8426 <__lesf2+0x86>
    83fa:	02d60463          	beq	a2,a3,8422 <__lesf2+0x82>
    83fe:	e211                	bnez	a2,8402 <__lesf2+0x62>
    8400:	d7f5                	beqz	a5,83ec <__lesf2+0x4c>
    8402:	feb715e3          	bne	a4,a1,83ec <__lesf2+0x4c>
    8406:	fed643e3          	blt	a2,a3,83ec <__lesf2+0x4c>
    840a:	00c6c763          	blt	a3,a2,8418 <__lesf2+0x78>
    840e:	fd17efe3          	bltu	a5,a7,83ec <__lesf2+0x4c>
    8412:	4501                	li	a0,0
    8414:	fcf8f3e3          	bgeu	a7,a5,83da <__lesf2+0x3a>
    8418:	e319                	bnez	a4,841e <__lesf2+0x7e>
    841a:	bfd9                	j	83f0 <__lesf2+0x50>
    841c:	d9f1                	beqz	a1,83f0 <__lesf2+0x50>
    841e:	4505                	li	a0,1
    8420:	8082                	ret
    8422:	d3e5                	beqz	a5,8402 <__lesf2+0x62>
    8424:	8082                	ret
    8426:	8082                	ret
    8428:	4681                	li	a3,0
    842a:	b7c5                	j	840a <__lesf2+0x6a>

0000842c <__mulsf3>:
    842c:	7179                	addi	sp,sp,-48
    842e:	d422                	sw	s0,40(sp)
    8430:	01755413          	srli	s0,a0,0x17
    8434:	ce4e                	sw	s3,28(sp)
    8436:	cc52                	sw	s4,24(sp)
    8438:	00951993          	slli	s3,a0,0x9
    843c:	d606                	sw	ra,44(sp)
    843e:	d226                	sw	s1,36(sp)
    8440:	d04a                	sw	s2,32(sp)
    8442:	ca56                	sw	s5,20(sp)
    8444:	c85a                	sw	s6,16(sp)
    8446:	0ff47413          	andi	s0,s0,255
    844a:	0099d993          	srli	s3,s3,0x9
    844e:	01f55a13          	srli	s4,a0,0x1f
    8452:	c469                	beqz	s0,851c <__mulsf3+0xf0>
    8454:	0ff00793          	li	a5,255
    8458:	0ef40863          	beq	s0,a5,8548 <__mulsf3+0x11c>
    845c:	00399793          	slli	a5,s3,0x3
    8460:	04000737          	lui	a4,0x4000
    8464:	00e7e9b3          	or	s3,a5,a4
    8468:	f8140413          	addi	s0,s0,-127 # 7ff81 <__rt_init_end+0x72e69>
    846c:	4481                	li	s1,0
    846e:	4b01                	li	s6,0
    8470:	0175d713          	srli	a4,a1,0x17
    8474:	00959a93          	slli	s5,a1,0x9
    8478:	0ff77713          	andi	a4,a4,255
    847c:	009ada93          	srli	s5,s5,0x9
    8480:	01f5d913          	srli	s2,a1,0x1f
    8484:	cf45                	beqz	a4,853c <__mulsf3+0x110>
    8486:	0ff00793          	li	a5,255
    848a:	02f70c63          	beq	a4,a5,84c2 <__mulsf3+0x96>
    848e:	0a8e                	slli	s5,s5,0x3
    8490:	f8170713          	addi	a4,a4,-127 # 3ffff81 <__rt_init_end+0x3ff2e69>
    8494:	040007b7          	lui	a5,0x4000
    8498:	00faeab3          	or	s5,s5,a5
    849c:	943a                	add	s0,s0,a4
    849e:	4601                	li	a2,0
    84a0:	012a4533          	xor	a0,s4,s2
    84a4:	47bd                	li	a5,15
    84a6:	86aa                	mv	a3,a0
    84a8:	00140593          	addi	a1,s0,1
    84ac:	1097e063          	bltu	a5,s1,85ac <__mulsf3+0x180>
    84b0:	00004717          	auipc	a4,0x4
    84b4:	7b470713          	addi	a4,a4,1972 # cc64 <__fsym___cmd_Read_Buttons_Debug_name+0xdc>
    84b8:	048a                	slli	s1,s1,0x2
    84ba:	94ba                	add	s1,s1,a4
    84bc:	409c                	lw	a5,0(s1)
    84be:	97ba                	add	a5,a5,a4
    84c0:	8782                	jr	a5
    84c2:	0ff40413          	addi	s0,s0,255
    84c6:	0c0a9663          	bnez	s5,8592 <__mulsf3+0x166>
    84ca:	0024e493          	ori	s1,s1,2
    84ce:	4609                	li	a2,2
    84d0:	bfc1                	j	84a0 <__mulsf3+0x74>
    84d2:	4501                	li	a0,0
    84d4:	0ff00713          	li	a4,255
    84d8:	004007b7          	lui	a5,0x400
    84dc:	50b2                	lw	ra,44(sp)
    84de:	5422                	lw	s0,40(sp)
    84e0:	07a6                	slli	a5,a5,0x9
    84e2:	075e                	slli	a4,a4,0x17
    84e4:	83a5                	srli	a5,a5,0x9
    84e6:	057e                	slli	a0,a0,0x1f
    84e8:	8fd9                	or	a5,a5,a4
    84ea:	5492                	lw	s1,36(sp)
    84ec:	5902                	lw	s2,32(sp)
    84ee:	49f2                	lw	s3,28(sp)
    84f0:	4a62                	lw	s4,24(sp)
    84f2:	4ad2                	lw	s5,20(sp)
    84f4:	4b42                	lw	s6,16(sp)
    84f6:	8d5d                	or	a0,a0,a5
    84f8:	6145                	addi	sp,sp,48
    84fa:	8082                	ret
    84fc:	86ca                	mv	a3,s2
    84fe:	89d6                	mv	s3,s5
    8500:	8b32                	mv	s6,a2
    8502:	4789                	li	a5,2
    8504:	08fb0f63          	beq	s6,a5,85a2 <__mulsf3+0x176>
    8508:	478d                	li	a5,3
    850a:	fcfb04e3          	beq	s6,a5,84d2 <__mulsf3+0xa6>
    850e:	4785                	li	a5,1
    8510:	8536                	mv	a0,a3
    8512:	1afb1063          	bne	s6,a5,86b2 <__mulsf3+0x286>
    8516:	4701                	li	a4,0
    8518:	4781                	li	a5,0
    851a:	b7c9                	j	84dc <__mulsf3+0xb0>
    851c:	04099d63          	bnez	s3,8576 <__mulsf3+0x14a>
    8520:	0175d713          	srli	a4,a1,0x17
    8524:	00959a93          	slli	s5,a1,0x9
    8528:	0ff77713          	andi	a4,a4,255
    852c:	4491                	li	s1,4
    852e:	4401                	li	s0,0
    8530:	4b05                	li	s6,1
    8532:	009ada93          	srli	s5,s5,0x9
    8536:	01f5d913          	srli	s2,a1,0x1f
    853a:	f731                	bnez	a4,8486 <__mulsf3+0x5a>
    853c:	000a9d63          	bnez	s5,8556 <__mulsf3+0x12a>
    8540:	0014e493          	ori	s1,s1,1
    8544:	4605                	li	a2,1
    8546:	bfa9                	j	84a0 <__mulsf3+0x74>
    8548:	02099263          	bnez	s3,856c <__mulsf3+0x140>
    854c:	44a1                	li	s1,8
    854e:	0ff00413          	li	s0,255
    8552:	4b09                	li	s6,2
    8554:	bf31                	j	8470 <__mulsf3+0x44>
    8556:	8556                	mv	a0,s5
    8558:	2681                	jal	8898 <__clzsi2>
    855a:	ffb50793          	addi	a5,a0,-5
    855e:	8c09                	sub	s0,s0,a0
    8560:	00fa9ab3          	sll	s5,s5,a5
    8564:	f8a40413          	addi	s0,s0,-118
    8568:	4601                	li	a2,0
    856a:	bf1d                	j	84a0 <__mulsf3+0x74>
    856c:	44b1                	li	s1,12
    856e:	0ff00413          	li	s0,255
    8572:	4b0d                	li	s6,3
    8574:	bdf5                	j	8470 <__mulsf3+0x44>
    8576:	854e                	mv	a0,s3
    8578:	c62e                	sw	a1,12(sp)
    857a:	2e39                	jal	8898 <__clzsi2>
    857c:	ffb50793          	addi	a5,a0,-5
    8580:	f8a00413          	li	s0,-118
    8584:	00f999b3          	sll	s3,s3,a5
    8588:	8c09                	sub	s0,s0,a0
    858a:	4481                	li	s1,0
    858c:	4b01                	li	s6,0
    858e:	45b2                	lw	a1,12(sp)
    8590:	b5c5                	j	8470 <__mulsf3+0x44>
    8592:	0034e493          	ori	s1,s1,3
    8596:	460d                	li	a2,3
    8598:	b721                	j	84a0 <__mulsf3+0x74>
    859a:	4789                	li	a5,2
    859c:	86d2                	mv	a3,s4
    859e:	f6fb15e3          	bne	s6,a5,8508 <__mulsf3+0xdc>
    85a2:	8536                	mv	a0,a3
    85a4:	0ff00713          	li	a4,255
    85a8:	4781                	li	a5,0
    85aa:	bf0d                	j	84dc <__mulsf3+0xb0>
    85ac:	6341                	lui	t1,0x10
    85ae:	fff30693          	addi	a3,t1,-1 # ffff <__rt_init_end+0x2ee7>
    85b2:	0109d613          	srli	a2,s3,0x10
    85b6:	010ad893          	srli	a7,s5,0x10
    85ba:	00d9f7b3          	and	a5,s3,a3
    85be:	00dafab3          	and	s5,s5,a3
    85c2:	03578833          	mul	a6,a5,s5
    85c6:	02f889b3          	mul	s3,a7,a5
    85ca:	01085713          	srli	a4,a6,0x10
    85ce:	03560ab3          	mul	s5,a2,s5
    85d2:	99d6                	add	s3,s3,s5
    85d4:	974e                	add	a4,a4,s3
    85d6:	03160633          	mul	a2,a2,a7
    85da:	01577363          	bgeu	a4,s5,85e0 <__mulsf3+0x1b4>
    85de:	961a                	add	a2,a2,t1
    85e0:	67c1                	lui	a5,0x10
    85e2:	17fd                	addi	a5,a5,-1
    85e4:	00f776b3          	and	a3,a4,a5
    85e8:	00f87833          	and	a6,a6,a5
    85ec:	06c2                	slli	a3,a3,0x10
    85ee:	96c2                	add	a3,a3,a6
    85f0:	00669993          	slli	s3,a3,0x6
    85f4:	01075793          	srli	a5,a4,0x10
    85f8:	013039b3          	snez	s3,s3
    85fc:	82e9                	srli	a3,a3,0x1a
    85fe:	97b2                	add	a5,a5,a2
    8600:	079a                	slli	a5,a5,0x6
    8602:	00d9e6b3          	or	a3,s3,a3
    8606:	00d7e9b3          	or	s3,a5,a3
    860a:	00499793          	slli	a5,s3,0x4
    860e:	0007d963          	bgez	a5,8620 <__mulsf3+0x1f4>
    8612:	0019d713          	srli	a4,s3,0x1
    8616:	0019f793          	andi	a5,s3,1
    861a:	00f769b3          	or	s3,a4,a5
    861e:	842e                	mv	s0,a1
    8620:	07f40713          	addi	a4,s0,127
    8624:	04e05063          	blez	a4,8664 <__mulsf3+0x238>
    8628:	0079f793          	andi	a5,s3,7
    862c:	c799                	beqz	a5,863a <__mulsf3+0x20e>
    862e:	00f9f793          	andi	a5,s3,15
    8632:	4691                	li	a3,4
    8634:	00d78363          	beq	a5,a3,863a <__mulsf3+0x20e>
    8638:	0991                	addi	s3,s3,4
    863a:	00499793          	slli	a5,s3,0x4
    863e:	0007d963          	bgez	a5,8650 <__mulsf3+0x224>
    8642:	f80007b7          	lui	a5,0xf8000
    8646:	17fd                	addi	a5,a5,-1
    8648:	00f9f9b3          	and	s3,s3,a5
    864c:	08040713          	addi	a4,s0,128
    8650:	0fe00793          	li	a5,254
    8654:	04e7cb63          	blt	a5,a4,86aa <__mulsf3+0x27e>
    8658:	00699793          	slli	a5,s3,0x6
    865c:	83a5                	srli	a5,a5,0x9
    865e:	0ff77713          	andi	a4,a4,255
    8662:	bdad                	j	84dc <__mulsf3+0xb0>
    8664:	4785                	li	a5,1
    8666:	40e786b3          	sub	a3,a5,a4
    866a:	c711                	beqz	a4,8676 <__mulsf3+0x24a>
    866c:	466d                	li	a2,27
    866e:	4701                	li	a4,0
    8670:	4781                	li	a5,0
    8672:	e6d645e3          	blt	a2,a3,84dc <__mulsf3+0xb0>
    8676:	09e40713          	addi	a4,s0,158
    867a:	00e99733          	sll	a4,s3,a4
    867e:	00e03733          	snez	a4,a4
    8682:	00d9d7b3          	srl	a5,s3,a3
    8686:	8fd9                	or	a5,a5,a4
    8688:	0077f713          	andi	a4,a5,7
    868c:	c719                	beqz	a4,869a <__mulsf3+0x26e>
    868e:	00f7f713          	andi	a4,a5,15
    8692:	4691                	li	a3,4
    8694:	00d70363          	beq	a4,a3,869a <__mulsf3+0x26e>
    8698:	0791                	addi	a5,a5,4
    869a:	00579713          	slli	a4,a5,0x5
    869e:	00074c63          	bltz	a4,86b6 <__mulsf3+0x28a>
    86a2:	079a                	slli	a5,a5,0x6
    86a4:	83a5                	srli	a5,a5,0x9
    86a6:	4701                	li	a4,0
    86a8:	bd15                	j	84dc <__mulsf3+0xb0>
    86aa:	0ff00713          	li	a4,255
    86ae:	4781                	li	a5,0
    86b0:	b535                	j	84dc <__mulsf3+0xb0>
    86b2:	842e                	mv	s0,a1
    86b4:	b7b5                	j	8620 <__mulsf3+0x1f4>
    86b6:	4705                	li	a4,1
    86b8:	4781                	li	a5,0
    86ba:	b50d                	j	84dc <__mulsf3+0xb0>

000086bc <__fixsfsi>:
    86bc:	00800637          	lui	a2,0x800
    86c0:	01755713          	srli	a4,a0,0x17
    86c4:	fff60793          	addi	a5,a2,-1 # 7fffff <__rt_init_end+0x7f2ee7>
    86c8:	0ff77713          	andi	a4,a4,255
    86cc:	07e00593          	li	a1,126
    86d0:	00a7f6b3          	and	a3,a5,a0
    86d4:	01f55793          	srli	a5,a0,0x1f
    86d8:	00e5fc63          	bgeu	a1,a4,86f0 <__fixsfsi+0x34>
    86dc:	09d00593          	li	a1,157
    86e0:	00e5fa63          	bgeu	a1,a4,86f4 <__fixsfsi+0x38>
    86e4:	80000537          	lui	a0,0x80000
    86e8:	fff54513          	not	a0,a0
    86ec:	953e                	add	a0,a0,a5
    86ee:	8082                	ret
    86f0:	4501                	li	a0,0
    86f2:	8082                	ret
    86f4:	09500593          	li	a1,149
    86f8:	8ed1                	or	a3,a3,a2
    86fa:	00e5cd63          	blt	a1,a4,8714 <__fixsfsi+0x58>
    86fe:	09600613          	li	a2,150
    8702:	40e60733          	sub	a4,a2,a4
    8706:	00e6d733          	srl	a4,a3,a4
    870a:	40e00533          	neg	a0,a4
    870e:	f3f5                	bnez	a5,86f2 <__fixsfsi+0x36>
    8710:	853a                	mv	a0,a4
    8712:	8082                	ret
    8714:	f6a70713          	addi	a4,a4,-150
    8718:	00e69733          	sll	a4,a3,a4
    871c:	b7fd                	j	870a <__fixsfsi+0x4e>

0000871e <__floatunsisf>:
    871e:	1141                	addi	sp,sp,-16
    8720:	c606                	sw	ra,12(sp)
    8722:	c422                	sw	s0,8(sp)
    8724:	cd15                	beqz	a0,8760 <__floatunsisf+0x42>
    8726:	842a                	mv	s0,a0
    8728:	2a85                	jal	8898 <__clzsi2>
    872a:	09e00793          	li	a5,158
    872e:	40a78733          	sub	a4,a5,a0
    8732:	09600793          	li	a5,150
    8736:	04e7c063          	blt	a5,a4,8776 <__floatunsisf+0x58>
    873a:	46a1                	li	a3,8
    873c:	0ff77793          	andi	a5,a4,255
    8740:	00a6d563          	bge	a3,a0,874a <__floatunsisf+0x2c>
    8744:	1561                	addi	a0,a0,-8
    8746:	00a41433          	sll	s0,s0,a0
    874a:	0426                	slli	s0,s0,0x9
    874c:	8025                	srli	s0,s0,0x9
    874e:	0426                	slli	s0,s0,0x9
    8750:	00945513          	srli	a0,s0,0x9
    8754:	40b2                	lw	ra,12(sp)
    8756:	4422                	lw	s0,8(sp)
    8758:	07de                	slli	a5,a5,0x17
    875a:	8d5d                	or	a0,a0,a5
    875c:	0141                	addi	sp,sp,16
    875e:	8082                	ret
    8760:	4401                	li	s0,0
    8762:	0426                	slli	s0,s0,0x9
    8764:	00945513          	srli	a0,s0,0x9
    8768:	40b2                	lw	ra,12(sp)
    876a:	4422                	lw	s0,8(sp)
    876c:	4781                	li	a5,0
    876e:	07de                	slli	a5,a5,0x17
    8770:	8d5d                	or	a0,a0,a5
    8772:	0141                	addi	sp,sp,16
    8774:	8082                	ret
    8776:	09900793          	li	a5,153
    877a:	00e7dd63          	bge	a5,a4,8794 <__floatunsisf+0x76>
    877e:	01b50793          	addi	a5,a0,27 # 8000001b <_eusrstack+0x5fff001b>
    8782:	4695                	li	a3,5
    8784:	00f417b3          	sll	a5,s0,a5
    8788:	8e89                	sub	a3,a3,a0
    878a:	00f037b3          	snez	a5,a5
    878e:	00d45433          	srl	s0,s0,a3
    8792:	8c5d                	or	s0,s0,a5
    8794:	4795                	li	a5,5
    8796:	00a7d663          	bge	a5,a0,87a2 <__floatunsisf+0x84>
    879a:	ffb50793          	addi	a5,a0,-5
    879e:	00f41433          	sll	s0,s0,a5
    87a2:	fc0006b7          	lui	a3,0xfc000
    87a6:	16fd                	addi	a3,a3,-1
    87a8:	00747793          	andi	a5,s0,7
    87ac:	00d47633          	and	a2,s0,a3
    87b0:	c385                	beqz	a5,87d0 <__floatunsisf+0xb2>
    87b2:	00f47793          	andi	a5,s0,15
    87b6:	4591                	li	a1,4
    87b8:	00b78c63          	beq	a5,a1,87d0 <__floatunsisf+0xb2>
    87bc:	0611                	addi	a2,a2,4
    87be:	00561793          	slli	a5,a2,0x5
    87c2:	0007d763          	bgez	a5,87d0 <__floatunsisf+0xb2>
    87c6:	09f00793          	li	a5,159
    87ca:	8e75                	and	a2,a2,a3
    87cc:	40a78733          	sub	a4,a5,a0
    87d0:	00661413          	slli	s0,a2,0x6
    87d4:	8025                	srli	s0,s0,0x9
    87d6:	0426                	slli	s0,s0,0x9
    87d8:	00945513          	srli	a0,s0,0x9
    87dc:	40b2                	lw	ra,12(sp)
    87de:	4422                	lw	s0,8(sp)
    87e0:	0ff77793          	andi	a5,a4,255
    87e4:	07de                	slli	a5,a5,0x17
    87e6:	8d5d                	or	a0,a0,a5
    87e8:	0141                	addi	sp,sp,16
    87ea:	8082                	ret

000087ec <__extendsfdf2>:
    87ec:	01755713          	srli	a4,a0,0x17
    87f0:	0ff77713          	andi	a4,a4,255
    87f4:	1141                	addi	sp,sp,-16
    87f6:	00170793          	addi	a5,a4,1
    87fa:	c422                	sw	s0,8(sp)
    87fc:	c226                	sw	s1,4(sp)
    87fe:	00951413          	slli	s0,a0,0x9
    8802:	c606                	sw	ra,12(sp)
    8804:	0fe7f793          	andi	a5,a5,254
    8808:	8025                	srli	s0,s0,0x9
    880a:	01f55493          	srli	s1,a0,0x1f
    880e:	c785                	beqz	a5,8836 <__extendsfdf2+0x4a>
    8810:	00345793          	srli	a5,s0,0x3
    8814:	38070713          	addi	a4,a4,896
    8818:	0476                	slli	s0,s0,0x1d
    881a:	07b2                	slli	a5,a5,0xc
    881c:	0752                	slli	a4,a4,0x14
    881e:	83b1                	srli	a5,a5,0xc
    8820:	01f49513          	slli	a0,s1,0x1f
    8824:	8fd9                	or	a5,a5,a4
    8826:	8fc9                	or	a5,a5,a0
    8828:	40b2                	lw	ra,12(sp)
    882a:	8522                	mv	a0,s0
    882c:	4422                	lw	s0,8(sp)
    882e:	4492                	lw	s1,4(sp)
    8830:	85be                	mv	a1,a5
    8832:	0141                	addi	sp,sp,16
    8834:	8082                	ret
    8836:	eb05                	bnez	a4,8866 <__extendsfdf2+0x7a>
    8838:	c439                	beqz	s0,8886 <__extendsfdf2+0x9a>
    883a:	8522                	mv	a0,s0
    883c:	28b1                	jal	8898 <__clzsi2>
    883e:	47a9                	li	a5,10
    8840:	04a7c663          	blt	a5,a0,888c <__extendsfdf2+0xa0>
    8844:	472d                	li	a4,11
    8846:	8f09                	sub	a4,a4,a0
    8848:	01550793          	addi	a5,a0,21
    884c:	00e45733          	srl	a4,s0,a4
    8850:	00f41433          	sll	s0,s0,a5
    8854:	00c71793          	slli	a5,a4,0xc
    8858:	38900713          	li	a4,905
    885c:	8f09                	sub	a4,a4,a0
    885e:	83b1                	srli	a5,a5,0xc
    8860:	7ff77713          	andi	a4,a4,2047
    8864:	bf5d                	j	881a <__extendsfdf2+0x2e>
    8866:	cc01                	beqz	s0,887e <__extendsfdf2+0x92>
    8868:	00345713          	srli	a4,s0,0x3
    886c:	000807b7          	lui	a5,0x80
    8870:	8fd9                	or	a5,a5,a4
    8872:	07b2                	slli	a5,a5,0xc
    8874:	0476                	slli	s0,s0,0x1d
    8876:	83b1                	srli	a5,a5,0xc
    8878:	7ff00713          	li	a4,2047
    887c:	bf79                	j	881a <__extendsfdf2+0x2e>
    887e:	7ff00713          	li	a4,2047
    8882:	4781                	li	a5,0
    8884:	bf59                	j	881a <__extendsfdf2+0x2e>
    8886:	4701                	li	a4,0
    8888:	4781                	li	a5,0
    888a:	bf41                	j	881a <__extendsfdf2+0x2e>
    888c:	ff550713          	addi	a4,a0,-11
    8890:	00e41733          	sll	a4,s0,a4
    8894:	4401                	li	s0,0
    8896:	bf7d                	j	8854 <__extendsfdf2+0x68>

00008898 <__clzsi2>:
    8898:	67c1                	lui	a5,0x10
    889a:	02f57c63          	bgeu	a0,a5,88d2 <__clzsi2+0x3a>
    889e:	0ff00793          	li	a5,255
    88a2:	02000713          	li	a4,32
    88a6:	00a7eb63          	bltu	a5,a0,88bc <__clzsi2+0x24>
    88aa:	00004797          	auipc	a5,0x4
    88ae:	3fa78793          	addi	a5,a5,1018 # cca4 <__clz_tab>
    88b2:	97aa                	add	a5,a5,a0
    88b4:	2388                	lbu	a0,0(a5)
    88b6:	40a70533          	sub	a0,a4,a0
    88ba:	8082                	ret
    88bc:	8121                	srli	a0,a0,0x8
    88be:	00004797          	auipc	a5,0x4
    88c2:	3e678793          	addi	a5,a5,998 # cca4 <__clz_tab>
    88c6:	97aa                	add	a5,a5,a0
    88c8:	2388                	lbu	a0,0(a5)
    88ca:	4761                	li	a4,24
    88cc:	40a70533          	sub	a0,a4,a0
    88d0:	8082                	ret
    88d2:	010007b7          	lui	a5,0x1000
    88d6:	00f56d63          	bltu	a0,a5,88f0 <__clzsi2+0x58>
    88da:	8161                	srli	a0,a0,0x18
    88dc:	00004797          	auipc	a5,0x4
    88e0:	3c878793          	addi	a5,a5,968 # cca4 <__clz_tab>
    88e4:	97aa                	add	a5,a5,a0
    88e6:	2388                	lbu	a0,0(a5)
    88e8:	4721                	li	a4,8
    88ea:	40a70533          	sub	a0,a4,a0
    88ee:	8082                	ret
    88f0:	8141                	srli	a0,a0,0x10
    88f2:	00004797          	auipc	a5,0x4
    88f6:	3b278793          	addi	a5,a5,946 # cca4 <__clz_tab>
    88fa:	97aa                	add	a5,a5,a0
    88fc:	2388                	lbu	a0,0(a5)
    88fe:	4741                	li	a4,16
    8900:	40a70533          	sub	a0,a4,a0
    8904:	8082                	ret

00008906 <atoi>:
    8906:	4629                	li	a2,10
    8908:	4581                	li	a1,0
    890a:	acfd                	j	8c08 <strtol>

0000890c <__itoa>:
    890c:	1141                	addi	sp,sp,-16
    890e:	c422                	sw	s0,8(sp)
    8910:	c606                	sw	ra,12(sp)
    8912:	ffe60713          	addi	a4,a2,-2
    8916:	02200793          	li	a5,34
    891a:	842e                	mv	s0,a1
    891c:	00e7fa63          	bgeu	a5,a4,8930 <__itoa+0x24>
    8920:	00058023          	sb	zero,0(a1)
    8924:	4401                	li	s0,0
    8926:	8522                	mv	a0,s0
    8928:	40b2                	lw	ra,12(sp)
    892a:	4422                	lw	s0,8(sp)
    892c:	0141                	addi	sp,sp,16
    892e:	8082                	ret
    8930:	47a9                	li	a5,10
    8932:	00f61d63          	bne	a2,a5,894c <__itoa+0x40>
    8936:	00055b63          	bgez	a0,894c <__itoa+0x40>
    893a:	02d00793          	li	a5,45
    893e:	a19c                	sb	a5,0(a1)
    8940:	40a00533          	neg	a0,a0
    8944:	4585                	li	a1,1
    8946:	95a2                	add	a1,a1,s0
    8948:	2cf9                	jal	8c26 <__utoa>
    894a:	bff1                	j	8926 <__itoa+0x1a>
    894c:	4581                	li	a1,0
    894e:	bfe5                	j	8946 <__itoa+0x3a>

00008950 <itoa>:
    8950:	fbdff06f          	j	890c <__itoa>

00008954 <memcmp>:
    8954:	4701                	li	a4,0
    8956:	00e61463          	bne	a2,a4,895e <memcmp+0xa>
    895a:	4501                	li	a0,0
    895c:	8082                	ret
    895e:	00e507b3          	add	a5,a0,a4
    8962:	0705                	addi	a4,a4,1
    8964:	00e586b3          	add	a3,a1,a4
    8968:	239c                	lbu	a5,0(a5)
    896a:	fff6c683          	lbu	a3,-1(a3) # fbffffff <_eusrstack+0xdbfeffff>
    896e:	fed784e3          	beq	a5,a3,8956 <memcmp+0x2>
    8972:	40d78533          	sub	a0,a5,a3
    8976:	8082                	ret

00008978 <memcpy>:
    8978:	00a5c7b3          	xor	a5,a1,a0
    897c:	8b8d                	andi	a5,a5,3
    897e:	00c50733          	add	a4,a0,a2
    8982:	e781                	bnez	a5,898a <memcpy+0x12>
    8984:	478d                	li	a5,3
    8986:	00c7ed63          	bltu	a5,a2,89a0 <memcpy+0x28>
    898a:	87aa                	mv	a5,a0
    898c:	08e57e63          	bgeu	a0,a4,8a28 <memcpy+0xb0>
    8990:	2194                	lbu	a3,0(a1)
    8992:	0785                	addi	a5,a5,1
    8994:	0585                	addi	a1,a1,1
    8996:	fed78fa3          	sb	a3,-1(a5)
    899a:	fee7ebe3          	bltu	a5,a4,8990 <memcpy+0x18>
    899e:	8082                	ret
    89a0:	00357693          	andi	a3,a0,3
    89a4:	87aa                	mv	a5,a0
    89a6:	ca89                	beqz	a3,89b8 <memcpy+0x40>
    89a8:	2194                	lbu	a3,0(a1)
    89aa:	0785                	addi	a5,a5,1
    89ac:	0585                	addi	a1,a1,1
    89ae:	fed78fa3          	sb	a3,-1(a5)
    89b2:	0037f693          	andi	a3,a5,3
    89b6:	bfc5                	j	89a6 <memcpy+0x2e>
    89b8:	ffc77693          	andi	a3,a4,-4
    89bc:	fe068613          	addi	a2,a3,-32
    89c0:	06c7f063          	bgeu	a5,a2,8a20 <memcpy+0xa8>
    89c4:	0005a383          	lw	t2,0(a1)
    89c8:	0045a283          	lw	t0,4(a1)
    89cc:	0085af83          	lw	t6,8(a1)
    89d0:	00c5af03          	lw	t5,12(a1)
    89d4:	0105ae83          	lw	t4,16(a1)
    89d8:	0145ae03          	lw	t3,20(a1)
    89dc:	0185a303          	lw	t1,24(a1)
    89e0:	01c5a883          	lw	a7,28(a1)
    89e4:	02458593          	addi	a1,a1,36
    89e8:	0077a023          	sw	t2,0(a5)
    89ec:	ffc5a803          	lw	a6,-4(a1)
    89f0:	0057a223          	sw	t0,4(a5)
    89f4:	01f7a423          	sw	t6,8(a5)
    89f8:	01e7a623          	sw	t5,12(a5)
    89fc:	01d7a823          	sw	t4,16(a5)
    8a00:	01c7aa23          	sw	t3,20(a5)
    8a04:	0067ac23          	sw	t1,24(a5)
    8a08:	0117ae23          	sw	a7,28(a5)
    8a0c:	02478793          	addi	a5,a5,36
    8a10:	ff07ae23          	sw	a6,-4(a5)
    8a14:	b775                	j	89c0 <memcpy+0x48>
    8a16:	4190                	lw	a2,0(a1)
    8a18:	0791                	addi	a5,a5,4
    8a1a:	0591                	addi	a1,a1,4
    8a1c:	fec7ae23          	sw	a2,-4(a5)
    8a20:	fed7ebe3          	bltu	a5,a3,8a16 <memcpy+0x9e>
    8a24:	f6e7e6e3          	bltu	a5,a4,8990 <memcpy+0x18>
    8a28:	8082                	ret

00008a2a <iprintf>:
    8a2a:	7139                	addi	sp,sp,-64
    8a2c:	da3e                	sw	a5,52(sp)
    8a2e:	d22e                	sw	a1,36(sp)
    8a30:	d432                	sw	a2,40(sp)
    8a32:	d636                	sw	a3,44(sp)
    8a34:	d83a                	sw	a4,48(sp)
    8a36:	dc42                	sw	a6,56(sp)
    8a38:	de46                	sw	a7,60(sp)
    8a3a:	82818793          	addi	a5,gp,-2008 # 20000348 <_impure_ptr>
    8a3e:	cc22                	sw	s0,24(sp)
    8a40:	4380                	lw	s0,0(a5)
    8a42:	ca26                	sw	s1,20(sp)
    8a44:	ce06                	sw	ra,28(sp)
    8a46:	84aa                	mv	s1,a0
    8a48:	c409                	beqz	s0,8a52 <iprintf+0x28>
    8a4a:	4c1c                	lw	a5,24(s0)
    8a4c:	e399                	bnez	a5,8a52 <iprintf+0x28>
    8a4e:	8522                	mv	a0,s0
    8a50:	2e21                	jal	8d68 <__sinit>
    8a52:	440c                	lw	a1,8(s0)
    8a54:	1054                	addi	a3,sp,36
    8a56:	8626                	mv	a2,s1
    8a58:	8522                	mv	a0,s0
    8a5a:	c636                	sw	a3,12(sp)
    8a5c:	2bdd                	jal	9052 <_vfiprintf_r>
    8a5e:	40f2                	lw	ra,28(sp)
    8a60:	4462                	lw	s0,24(sp)
    8a62:	44d2                	lw	s1,20(sp)
    8a64:	6121                	addi	sp,sp,64
    8a66:	8082                	ret

00008a68 <strcat>:
    8a68:	87aa                	mv	a5,a0
    8a6a:	2398                	lbu	a4,0(a5)
    8a6c:	00178693          	addi	a3,a5,1
    8a70:	eb09                	bnez	a4,8a82 <strcat+0x1a>
    8a72:	0585                	addi	a1,a1,1
    8a74:	fff5c703          	lbu	a4,-1(a1)
    8a78:	0785                	addi	a5,a5,1
    8a7a:	fee78fa3          	sb	a4,-1(a5)
    8a7e:	fb75                	bnez	a4,8a72 <strcat+0xa>
    8a80:	8082                	ret
    8a82:	87b6                	mv	a5,a3
    8a84:	b7dd                	j	8a6a <strcat+0x2>

00008a86 <strcpy>:
    8a86:	87aa                	mv	a5,a0
    8a88:	2198                	lbu	a4,0(a1)
    8a8a:	0785                	addi	a5,a5,1
    8a8c:	0585                	addi	a1,a1,1
    8a8e:	fee78fa3          	sb	a4,-1(a5)
    8a92:	fb7d                	bnez	a4,8a88 <strcpy+0x2>
    8a94:	8082                	ret

00008a96 <strlen>:
    8a96:	87aa                	mv	a5,a0
    8a98:	0785                	addi	a5,a5,1
    8a9a:	fff7c703          	lbu	a4,-1(a5)
    8a9e:	ff6d                	bnez	a4,8a98 <strlen+0x2>
    8aa0:	40a78533          	sub	a0,a5,a0
    8aa4:	157d                	addi	a0,a0,-1
    8aa6:	8082                	ret

00008aa8 <strncmp>:
    8aa8:	c215                	beqz	a2,8acc <strncmp+0x24>
    8aaa:	167d                	addi	a2,a2,-1
    8aac:	4701                	li	a4,0
    8aae:	00e507b3          	add	a5,a0,a4
    8ab2:	00e586b3          	add	a3,a1,a4
    8ab6:	239c                	lbu	a5,0(a5)
    8ab8:	2294                	lbu	a3,0(a3)
    8aba:	00d79663          	bne	a5,a3,8ac6 <strncmp+0x1e>
    8abe:	00c70463          	beq	a4,a2,8ac6 <strncmp+0x1e>
    8ac2:	0705                	addi	a4,a4,1
    8ac4:	f7ed                	bnez	a5,8aae <strncmp+0x6>
    8ac6:	40d78533          	sub	a0,a5,a3
    8aca:	8082                	ret
    8acc:	4501                	li	a0,0
    8ace:	8082                	ret

00008ad0 <_strtol_l.isra.0>:
    8ad0:	7179                	addi	sp,sp,-48
    8ad2:	d04a                	sw	s2,32(sp)
    8ad4:	ce4e                	sw	s3,28(sp)
    8ad6:	d606                	sw	ra,44(sp)
    8ad8:	d422                	sw	s0,40(sp)
    8ada:	d226                	sw	s1,36(sp)
    8adc:	89aa                	mv	s3,a0
    8ade:	892e                	mv	s2,a1
    8ae0:	00190493          	addi	s1,s2,1 # 800001 <__rt_init_end+0x7f2ee9>
    8ae4:	fff4c403          	lbu	s0,-1(s1)
    8ae8:	853a                	mv	a0,a4
    8aea:	c636                	sw	a3,12(sp)
    8aec:	c432                	sw	a2,8(sp)
    8aee:	c22e                	sw	a1,4(sp)
    8af0:	c03a                	sw	a4,0(sp)
    8af2:	26f5                	jal	8ede <__locale_ctype_ptr_l>
    8af4:	9522                	add	a0,a0,s0
    8af6:	311c                	lbu	a5,1(a0)
    8af8:	4702                	lw	a4,0(sp)
    8afa:	4592                	lw	a1,4(sp)
    8afc:	8ba1                	andi	a5,a5,8
    8afe:	4622                	lw	a2,8(sp)
    8b00:	46b2                	lw	a3,12(sp)
    8b02:	e3d1                	bnez	a5,8b86 <_strtol_l.isra.0+0xb6>
    8b04:	02d00793          	li	a5,45
    8b08:	08f41163          	bne	s0,a5,8b8a <_strtol_l.isra.0+0xba>
    8b0c:	209c                	lbu	a5,0(s1)
    8b0e:	4305                	li	t1,1
    8b10:	00290493          	addi	s1,s2,2
    8b14:	c6e5                	beqz	a3,8bfc <_strtol_l.isra.0+0x12c>
    8b16:	4741                	li	a4,16
    8b18:	02e69063          	bne	a3,a4,8b38 <_strtol_l.isra.0+0x68>
    8b1c:	03000713          	li	a4,48
    8b20:	00e79c63          	bne	a5,a4,8b38 <_strtol_l.isra.0+0x68>
    8b24:	209c                	lbu	a5,0(s1)
    8b26:	05800713          	li	a4,88
    8b2a:	0df7f793          	andi	a5,a5,223
    8b2e:	0ce79263          	bne	a5,a4,8bf2 <_strtol_l.isra.0+0x122>
    8b32:	309c                	lbu	a5,1(s1)
    8b34:	46c1                	li	a3,16
    8b36:	0489                	addi	s1,s1,2
    8b38:	800008b7          	lui	a7,0x80000
    8b3c:	00031463          	bnez	t1,8b44 <_strtol_l.isra.0+0x74>
    8b40:	fff8c893          	not	a7,a7
    8b44:	02d8ff33          	remu	t5,a7,a3
    8b48:	4801                	li	a6,0
    8b4a:	4501                	li	a0,0
    8b4c:	4fa5                	li	t6,9
    8b4e:	4ee5                	li	t4,25
    8b50:	52fd                	li	t0,-1
    8b52:	02d8de33          	divu	t3,a7,a3
    8b56:	fd078713          	addi	a4,a5,-48
    8b5a:	04efe363          	bltu	t6,a4,8ba0 <_strtol_l.isra.0+0xd0>
    8b5e:	87ba                	mv	a5,a4
    8b60:	04d7de63          	bge	a5,a3,8bbc <_strtol_l.isra.0+0xec>
    8b64:	00580d63          	beq	a6,t0,8b7e <_strtol_l.isra.0+0xae>
    8b68:	587d                	li	a6,-1
    8b6a:	00ae6a63          	bltu	t3,a0,8b7e <_strtol_l.isra.0+0xae>
    8b6e:	00ae1463          	bne	t3,a0,8b76 <_strtol_l.isra.0+0xa6>
    8b72:	00ff4663          	blt	t5,a5,8b7e <_strtol_l.isra.0+0xae>
    8b76:	4805                	li	a6,1
    8b78:	02a68533          	mul	a0,a3,a0
    8b7c:	953e                	add	a0,a0,a5
    8b7e:	0485                	addi	s1,s1,1
    8b80:	fff4c783          	lbu	a5,-1(s1)
    8b84:	bfc9                	j	8b56 <_strtol_l.isra.0+0x86>
    8b86:	8926                	mv	s2,s1
    8b88:	bfa1                	j	8ae0 <_strtol_l.isra.0+0x10>
    8b8a:	02b00793          	li	a5,43
    8b8e:	00f40563          	beq	s0,a5,8b98 <_strtol_l.isra.0+0xc8>
    8b92:	87a2                	mv	a5,s0
    8b94:	4301                	li	t1,0
    8b96:	bfbd                	j	8b14 <_strtol_l.isra.0+0x44>
    8b98:	209c                	lbu	a5,0(s1)
    8b9a:	00290493          	addi	s1,s2,2
    8b9e:	bfdd                	j	8b94 <_strtol_l.isra.0+0xc4>
    8ba0:	fbf78713          	addi	a4,a5,-65
    8ba4:	00eee563          	bltu	t4,a4,8bae <_strtol_l.isra.0+0xde>
    8ba8:	fc978793          	addi	a5,a5,-55
    8bac:	bf55                	j	8b60 <_strtol_l.isra.0+0x90>
    8bae:	f9f78713          	addi	a4,a5,-97
    8bb2:	00eee563          	bltu	t4,a4,8bbc <_strtol_l.isra.0+0xec>
    8bb6:	fa978793          	addi	a5,a5,-87
    8bba:	b75d                	j	8b60 <_strtol_l.isra.0+0x90>
    8bbc:	57fd                	li	a5,-1
    8bbe:	00f81f63          	bne	a6,a5,8bdc <_strtol_l.isra.0+0x10c>
    8bc2:	02200793          	li	a5,34
    8bc6:	00f9a023          	sw	a5,0(s3)
    8bca:	8546                	mv	a0,a7
    8bcc:	ee19                	bnez	a2,8bea <_strtol_l.isra.0+0x11a>
    8bce:	50b2                	lw	ra,44(sp)
    8bd0:	5422                	lw	s0,40(sp)
    8bd2:	5492                	lw	s1,36(sp)
    8bd4:	5902                	lw	s2,32(sp)
    8bd6:	49f2                	lw	s3,28(sp)
    8bd8:	6145                	addi	sp,sp,48
    8bda:	8082                	ret
    8bdc:	00030463          	beqz	t1,8be4 <_strtol_l.isra.0+0x114>
    8be0:	40a00533          	neg	a0,a0
    8be4:	d66d                	beqz	a2,8bce <_strtol_l.isra.0+0xfe>
    8be6:	00080463          	beqz	a6,8bee <_strtol_l.isra.0+0x11e>
    8bea:	fff48593          	addi	a1,s1,-1
    8bee:	c20c                	sw	a1,0(a2)
    8bf0:	bff9                	j	8bce <_strtol_l.isra.0+0xfe>
    8bf2:	03000793          	li	a5,48
    8bf6:	f2a9                	bnez	a3,8b38 <_strtol_l.isra.0+0x68>
    8bf8:	46a1                	li	a3,8
    8bfa:	bf3d                	j	8b38 <_strtol_l.isra.0+0x68>
    8bfc:	03000713          	li	a4,48
    8c00:	f2e782e3          	beq	a5,a4,8b24 <_strtol_l.isra.0+0x54>
    8c04:	46a9                	li	a3,10
    8c06:	bf0d                	j	8b38 <_strtol_l.isra.0+0x68>

00008c08 <strtol>:
    8c08:	82818793          	addi	a5,gp,-2008 # 20000348 <_impure_ptr>
    8c0c:	439c                	lw	a5,0(a5)
    8c0e:	86b2                	mv	a3,a2
    8c10:	5398                	lw	a4,32(a5)
    8c12:	e709                	bnez	a4,8c1c <strtol+0x14>
    8c14:	1fff7717          	auipc	a4,0x1fff7
    8c18:	59c70713          	addi	a4,a4,1436 # 200001b0 <__global_locale>
    8c1c:	862e                	mv	a2,a1
    8c1e:	85aa                	mv	a1,a0
    8c20:	853e                	mv	a0,a5
    8c22:	eafff06f          	j	8ad0 <_strtol_l.isra.0>

00008c26 <__utoa>:
    8c26:	7139                	addi	sp,sp,-64
    8c28:	dc22                	sw	s0,56(sp)
    8c2a:	da26                	sw	s1,52(sp)
    8c2c:	d84a                	sw	s2,48(sp)
    8c2e:	84aa                	mv	s1,a0
    8c30:	8932                	mv	s2,a2
    8c32:	842e                	mv	s0,a1
    8c34:	02500613          	li	a2,37
    8c38:	00004597          	auipc	a1,0x4
    8c3c:	16c58593          	addi	a1,a1,364 # cda4 <__clz_tab+0x100>
    8c40:	0028                	addi	a0,sp,8
    8c42:	de06                	sw	ra,60(sp)
    8c44:	d35ff0ef          	jal	ra,8978 <memcpy>
    8c48:	ffe90693          	addi	a3,s2,-2
    8c4c:	02200793          	li	a5,34
    8c50:	4701                	li	a4,0
    8c52:	00d7fe63          	bgeu	a5,a3,8c6e <__utoa+0x48>
    8c56:	00040023          	sb	zero,0(s0)
    8c5a:	4401                	li	s0,0
    8c5c:	8522                	mv	a0,s0
    8c5e:	50f2                	lw	ra,60(sp)
    8c60:	5462                	lw	s0,56(sp)
    8c62:	54d2                	lw	s1,52(sp)
    8c64:	5942                	lw	s2,48(sp)
    8c66:	6121                	addi	sp,sp,64
    8c68:	8082                	ret
    8c6a:	8732                	mv	a4,a2
    8c6c:	84be                	mv	s1,a5
    8c6e:	0324f7b3          	remu	a5,s1,s2
    8c72:	180c                	addi	a1,sp,48
    8c74:	00170613          	addi	a2,a4,1
    8c78:	00c406b3          	add	a3,s0,a2
    8c7c:	97ae                	add	a5,a5,a1
    8c7e:	fd87c783          	lbu	a5,-40(a5)
    8c82:	fef68fa3          	sb	a5,-1(a3)
    8c86:	0324d7b3          	divu	a5,s1,s2
    8c8a:	ff24f0e3          	bgeu	s1,s2,8c6a <__utoa+0x44>
    8c8e:	00068023          	sb	zero,0(a3)
    8c92:	4781                	li	a5,0
    8c94:	00e406b3          	add	a3,s0,a4
    8c98:	40f70633          	sub	a2,a4,a5
    8c9c:	fcc7d0e3          	bge	a5,a2,8c5c <__utoa+0x36>
    8ca0:	00f40633          	add	a2,s0,a5
    8ca4:	2288                	lbu	a0,0(a3)
    8ca6:	220c                	lbu	a1,0(a2)
    8ca8:	0785                	addi	a5,a5,1
    8caa:	a208                	sb	a0,0(a2)
    8cac:	a28c                	sb	a1,0(a3)
    8cae:	16fd                	addi	a3,a3,-1
    8cb0:	b7e5                	j	8c98 <__utoa+0x72>

00008cb2 <std>:
    8cb2:	1141                	addi	sp,sp,-16
    8cb4:	c422                	sw	s0,8(sp)
    8cb6:	c606                	sw	ra,12(sp)
    8cb8:	842a                	mv	s0,a0
    8cba:	a54e                	sh	a1,12(a0)
    8cbc:	a572                	sh	a2,14(a0)
    8cbe:	00052023          	sw	zero,0(a0)
    8cc2:	00052223          	sw	zero,4(a0)
    8cc6:	00052423          	sw	zero,8(a0)
    8cca:	06052223          	sw	zero,100(a0)
    8cce:	00052823          	sw	zero,16(a0)
    8cd2:	00052a23          	sw	zero,20(a0)
    8cd6:	00052c23          	sw	zero,24(a0)
    8cda:	4621                	li	a2,8
    8cdc:	4581                	li	a1,0
    8cde:	05c50513          	addi	a0,a0,92
    8ce2:	f30f70ef          	jal	ra,412 <memset>
    8ce6:	00001797          	auipc	a5,0x1
    8cea:	9da78793          	addi	a5,a5,-1574 # 96c0 <__sread>
    8cee:	d05c                	sw	a5,36(s0)
    8cf0:	00001797          	auipc	a5,0x1
    8cf4:	9fc78793          	addi	a5,a5,-1540 # 96ec <__swrite>
    8cf8:	d41c                	sw	a5,40(s0)
    8cfa:	00001797          	auipc	a5,0x1
    8cfe:	a3a78793          	addi	a5,a5,-1478 # 9734 <__sseek>
    8d02:	d45c                	sw	a5,44(s0)
    8d04:	00001797          	auipc	a5,0x1
    8d08:	a6078793          	addi	a5,a5,-1440 # 9764 <__sclose>
    8d0c:	d000                	sw	s0,32(s0)
    8d0e:	d81c                	sw	a5,48(s0)
    8d10:	40b2                	lw	ra,12(sp)
    8d12:	4422                	lw	s0,8(sp)
    8d14:	0141                	addi	sp,sp,16
    8d16:	8082                	ret

00008d18 <_cleanup_r>:
    8d18:	00001597          	auipc	a1,0x1
    8d1c:	dc258593          	addi	a1,a1,-574 # 9ada <_fflush_r>
    8d20:	aa91                	j	8e74 <_fwalk_reent>

00008d22 <__sfmoreglue>:
    8d22:	1141                	addi	sp,sp,-16
    8d24:	c226                	sw	s1,4(sp)
    8d26:	06800613          	li	a2,104
    8d2a:	fff58493          	addi	s1,a1,-1
    8d2e:	02c484b3          	mul	s1,s1,a2
    8d32:	c04a                	sw	s2,0(sp)
    8d34:	892e                	mv	s2,a1
    8d36:	c422                	sw	s0,8(sp)
    8d38:	c606                	sw	ra,12(sp)
    8d3a:	07448593          	addi	a1,s1,116
    8d3e:	2ae1                	jal	8f16 <_malloc_r>
    8d40:	842a                	mv	s0,a0
    8d42:	cd01                	beqz	a0,8d5a <__sfmoreglue+0x38>
    8d44:	00052023          	sw	zero,0(a0)
    8d48:	01252223          	sw	s2,4(a0)
    8d4c:	0531                	addi	a0,a0,12
    8d4e:	c408                	sw	a0,8(s0)
    8d50:	06848613          	addi	a2,s1,104
    8d54:	4581                	li	a1,0
    8d56:	ebcf70ef          	jal	ra,412 <memset>
    8d5a:	8522                	mv	a0,s0
    8d5c:	40b2                	lw	ra,12(sp)
    8d5e:	4422                	lw	s0,8(sp)
    8d60:	4492                	lw	s1,4(sp)
    8d62:	4902                	lw	s2,0(sp)
    8d64:	0141                	addi	sp,sp,16
    8d66:	8082                	ret

00008d68 <__sinit>:
    8d68:	4d1c                	lw	a5,24(a0)
    8d6a:	e7a5                	bnez	a5,8dd2 <__sinit+0x6a>
    8d6c:	1141                	addi	sp,sp,-16
    8d6e:	c606                	sw	ra,12(sp)
    8d70:	c422                	sw	s0,8(sp)
    8d72:	00000797          	auipc	a5,0x0
    8d76:	fa678793          	addi	a5,a5,-90 # 8d18 <_cleanup_r>
    8d7a:	d51c                	sw	a5,40(a0)
    8d7c:	82c18793          	addi	a5,gp,-2004 # 2000034c <_global_impure_ptr>
    8d80:	439c                	lw	a5,0(a5)
    8d82:	04052423          	sw	zero,72(a0)
    8d86:	04052623          	sw	zero,76(a0)
    8d8a:	04052823          	sw	zero,80(a0)
    8d8e:	00f51463          	bne	a0,a5,8d96 <__sinit+0x2e>
    8d92:	4785                	li	a5,1
    8d94:	cd1c                	sw	a5,24(a0)
    8d96:	842a                	mv	s0,a0
    8d98:	2835                	jal	8dd4 <__sfp>
    8d9a:	c048                	sw	a0,4(s0)
    8d9c:	8522                	mv	a0,s0
    8d9e:	281d                	jal	8dd4 <__sfp>
    8da0:	c408                	sw	a0,8(s0)
    8da2:	8522                	mv	a0,s0
    8da4:	2805                	jal	8dd4 <__sfp>
    8da6:	c448                	sw	a0,12(s0)
    8da8:	4048                	lw	a0,4(s0)
    8daa:	4601                	li	a2,0
    8dac:	4591                	li	a1,4
    8dae:	f05ff0ef          	jal	ra,8cb2 <std>
    8db2:	4408                	lw	a0,8(s0)
    8db4:	4605                	li	a2,1
    8db6:	45a5                	li	a1,9
    8db8:	efbff0ef          	jal	ra,8cb2 <std>
    8dbc:	4448                	lw	a0,12(s0)
    8dbe:	4609                	li	a2,2
    8dc0:	45c9                	li	a1,18
    8dc2:	ef1ff0ef          	jal	ra,8cb2 <std>
    8dc6:	4785                	li	a5,1
    8dc8:	cc1c                	sw	a5,24(s0)
    8dca:	40b2                	lw	ra,12(sp)
    8dcc:	4422                	lw	s0,8(sp)
    8dce:	0141                	addi	sp,sp,16
    8dd0:	8082                	ret
    8dd2:	8082                	ret

00008dd4 <__sfp>:
    8dd4:	1141                	addi	sp,sp,-16
    8dd6:	82c18793          	addi	a5,gp,-2004 # 2000034c <_global_impure_ptr>
    8dda:	c226                	sw	s1,4(sp)
    8ddc:	4384                	lw	s1,0(a5)
    8dde:	c04a                	sw	s2,0(sp)
    8de0:	c606                	sw	ra,12(sp)
    8de2:	4c9c                	lw	a5,24(s1)
    8de4:	c422                	sw	s0,8(sp)
    8de6:	892a                	mv	s2,a0
    8de8:	e781                	bnez	a5,8df0 <__sfp+0x1c>
    8dea:	8526                	mv	a0,s1
    8dec:	f7dff0ef          	jal	ra,8d68 <__sinit>
    8df0:	04848493          	addi	s1,s1,72
    8df4:	4480                	lw	s0,8(s1)
    8df6:	40dc                	lw	a5,4(s1)
    8df8:	17fd                	addi	a5,a5,-1
    8dfa:	0007d663          	bgez	a5,8e06 <__sfp+0x32>
    8dfe:	409c                	lw	a5,0(s1)
    8e00:	cfb9                	beqz	a5,8e5e <__sfp+0x8a>
    8e02:	4084                	lw	s1,0(s1)
    8e04:	bfc5                	j	8df4 <__sfp+0x20>
    8e06:	00c41703          	lh	a4,12(s0)
    8e0a:	e739                	bnez	a4,8e58 <__sfp+0x84>
    8e0c:	77c1                	lui	a5,0xffff0
    8e0e:	0785                	addi	a5,a5,1
    8e10:	06042223          	sw	zero,100(s0)
    8e14:	00042023          	sw	zero,0(s0)
    8e18:	00042223          	sw	zero,4(s0)
    8e1c:	00042423          	sw	zero,8(s0)
    8e20:	c45c                	sw	a5,12(s0)
    8e22:	00042823          	sw	zero,16(s0)
    8e26:	00042a23          	sw	zero,20(s0)
    8e2a:	00042c23          	sw	zero,24(s0)
    8e2e:	4621                	li	a2,8
    8e30:	4581                	li	a1,0
    8e32:	05c40513          	addi	a0,s0,92
    8e36:	ddcf70ef          	jal	ra,412 <memset>
    8e3a:	02042a23          	sw	zero,52(s0)
    8e3e:	02042c23          	sw	zero,56(s0)
    8e42:	04042423          	sw	zero,72(s0)
    8e46:	04042623          	sw	zero,76(s0)
    8e4a:	8522                	mv	a0,s0
    8e4c:	40b2                	lw	ra,12(sp)
    8e4e:	4422                	lw	s0,8(sp)
    8e50:	4492                	lw	s1,4(sp)
    8e52:	4902                	lw	s2,0(sp)
    8e54:	0141                	addi	sp,sp,16
    8e56:	8082                	ret
    8e58:	06840413          	addi	s0,s0,104
    8e5c:	bf71                	j	8df8 <__sfp+0x24>
    8e5e:	4591                	li	a1,4
    8e60:	854a                	mv	a0,s2
    8e62:	ec1ff0ef          	jal	ra,8d22 <__sfmoreglue>
    8e66:	c088                	sw	a0,0(s1)
    8e68:	fd49                	bnez	a0,8e02 <__sfp+0x2e>
    8e6a:	47b1                	li	a5,12
    8e6c:	00f92023          	sw	a5,0(s2)
    8e70:	4401                	li	s0,0
    8e72:	bfe1                	j	8e4a <__sfp+0x76>

00008e74 <_fwalk_reent>:
    8e74:	7179                	addi	sp,sp,-48
    8e76:	d422                	sw	s0,40(sp)
    8e78:	d04a                	sw	s2,32(sp)
    8e7a:	cc52                	sw	s4,24(sp)
    8e7c:	ca56                	sw	s5,20(sp)
    8e7e:	c85a                	sw	s6,16(sp)
    8e80:	c65e                	sw	s7,12(sp)
    8e82:	d606                	sw	ra,44(sp)
    8e84:	d226                	sw	s1,36(sp)
    8e86:	ce4e                	sw	s3,28(sp)
    8e88:	8a2a                	mv	s4,a0
    8e8a:	8aae                	mv	s5,a1
    8e8c:	04850413          	addi	s0,a0,72
    8e90:	4901                	li	s2,0
    8e92:	4b05                	li	s6,1
    8e94:	5bfd                	li	s7,-1
    8e96:	ec09                	bnez	s0,8eb0 <_fwalk_reent+0x3c>
    8e98:	50b2                	lw	ra,44(sp)
    8e9a:	5422                	lw	s0,40(sp)
    8e9c:	854a                	mv	a0,s2
    8e9e:	5492                	lw	s1,36(sp)
    8ea0:	5902                	lw	s2,32(sp)
    8ea2:	49f2                	lw	s3,28(sp)
    8ea4:	4a62                	lw	s4,24(sp)
    8ea6:	4ad2                	lw	s5,20(sp)
    8ea8:	4b42                	lw	s6,16(sp)
    8eaa:	4bb2                	lw	s7,12(sp)
    8eac:	6145                	addi	sp,sp,48
    8eae:	8082                	ret
    8eb0:	4404                	lw	s1,8(s0)
    8eb2:	00442983          	lw	s3,4(s0)
    8eb6:	19fd                	addi	s3,s3,-1
    8eb8:	0009d463          	bgez	s3,8ec0 <_fwalk_reent+0x4c>
    8ebc:	4000                	lw	s0,0(s0)
    8ebe:	bfe1                	j	8e96 <_fwalk_reent+0x22>
    8ec0:	24de                	lhu	a5,12(s1)
    8ec2:	00fb7b63          	bgeu	s6,a5,8ed8 <_fwalk_reent+0x64>
    8ec6:	00e49783          	lh	a5,14(s1)
    8eca:	01778763          	beq	a5,s7,8ed8 <_fwalk_reent+0x64>
    8ece:	85a6                	mv	a1,s1
    8ed0:	8552                	mv	a0,s4
    8ed2:	9a82                	jalr	s5
    8ed4:	00a96933          	or	s2,s2,a0
    8ed8:	06848493          	addi	s1,s1,104
    8edc:	bfe9                	j	8eb6 <_fwalk_reent+0x42>

00008ede <__locale_ctype_ptr_l>:
    8ede:	0ec52503          	lw	a0,236(a0)
    8ee2:	8082                	ret

00008ee4 <__ascii_mbtowc>:
    8ee4:	ed91                	bnez	a1,8f00 <__ascii_mbtowc+0x1c>
    8ee6:	1141                	addi	sp,sp,-16
    8ee8:	006c                	addi	a1,sp,12
    8eea:	4501                	li	a0,0
    8eec:	ca01                	beqz	a2,8efc <__ascii_mbtowc+0x18>
    8eee:	5579                	li	a0,-2
    8ef0:	c691                	beqz	a3,8efc <__ascii_mbtowc+0x18>
    8ef2:	221c                	lbu	a5,0(a2)
    8ef4:	c19c                	sw	a5,0(a1)
    8ef6:	2208                	lbu	a0,0(a2)
    8ef8:	00a03533          	snez	a0,a0
    8efc:	0141                	addi	sp,sp,16
    8efe:	8082                	ret
    8f00:	4501                	li	a0,0
    8f02:	ca09                	beqz	a2,8f14 <__ascii_mbtowc+0x30>
    8f04:	5579                	li	a0,-2
    8f06:	c699                	beqz	a3,8f14 <__ascii_mbtowc+0x30>
    8f08:	221c                	lbu	a5,0(a2)
    8f0a:	c19c                	sw	a5,0(a1)
    8f0c:	2208                	lbu	a0,0(a2)
    8f0e:	00a03533          	snez	a0,a0
    8f12:	8082                	ret
    8f14:	8082                	ret

00008f16 <_malloc_r>:
    8f16:	1101                	addi	sp,sp,-32
    8f18:	ca26                	sw	s1,20(sp)
    8f1a:	00358493          	addi	s1,a1,3
    8f1e:	98f1                	andi	s1,s1,-4
    8f20:	ce06                	sw	ra,28(sp)
    8f22:	cc22                	sw	s0,24(sp)
    8f24:	c84a                	sw	s2,16(sp)
    8f26:	c64e                	sw	s3,12(sp)
    8f28:	04a1                	addi	s1,s1,8
    8f2a:	47b1                	li	a5,12
    8f2c:	04f4f363          	bgeu	s1,a5,8f72 <_malloc_r+0x5c>
    8f30:	44b1                	li	s1,12
    8f32:	04b4e263          	bltu	s1,a1,8f76 <_malloc_r+0x60>
    8f36:	892a                	mv	s2,a0
    8f38:	53f000ef          	jal	ra,9c76 <__malloc_lock>
    8f3c:	93818793          	addi	a5,gp,-1736 # 20000458 <__malloc_free_list>
    8f40:	4398                	lw	a4,0(a5)
    8f42:	843a                	mv	s0,a4
    8f44:	e039                	bnez	s0,8f8a <_malloc_r+0x74>
    8f46:	93c18793          	addi	a5,gp,-1732 # 2000045c <__malloc_sbrk_start>
    8f4a:	439c                	lw	a5,0(a5)
    8f4c:	e791                	bnez	a5,8f58 <_malloc_r+0x42>
    8f4e:	4581                	li	a1,0
    8f50:	854a                	mv	a0,s2
    8f52:	2f35                	jal	968e <_sbrk_r>
    8f54:	92a1ae23          	sw	a0,-1732(gp) # 2000045c <__malloc_sbrk_start>
    8f58:	85a6                	mv	a1,s1
    8f5a:	854a                	mv	a0,s2
    8f5c:	2f0d                	jal	968e <_sbrk_r>
    8f5e:	59fd                	li	s3,-1
    8f60:	07351963          	bne	a0,s3,8fd2 <_malloc_r+0xbc>
    8f64:	47b1                	li	a5,12
    8f66:	00f92023          	sw	a5,0(s2)
    8f6a:	854a                	mv	a0,s2
    8f6c:	50d000ef          	jal	ra,9c78 <__malloc_unlock>
    8f70:	a029                	j	8f7a <_malloc_r+0x64>
    8f72:	fc04d0e3          	bgez	s1,8f32 <_malloc_r+0x1c>
    8f76:	47b1                	li	a5,12
    8f78:	c11c                	sw	a5,0(a0)
    8f7a:	4501                	li	a0,0
    8f7c:	40f2                	lw	ra,28(sp)
    8f7e:	4462                	lw	s0,24(sp)
    8f80:	44d2                	lw	s1,20(sp)
    8f82:	4942                	lw	s2,16(sp)
    8f84:	49b2                	lw	s3,12(sp)
    8f86:	6105                	addi	sp,sp,32
    8f88:	8082                	ret
    8f8a:	401c                	lw	a5,0(s0)
    8f8c:	8f85                	sub	a5,a5,s1
    8f8e:	0207cf63          	bltz	a5,8fcc <_malloc_r+0xb6>
    8f92:	46ad                	li	a3,11
    8f94:	00f6f663          	bgeu	a3,a5,8fa0 <_malloc_r+0x8a>
    8f98:	c01c                	sw	a5,0(s0)
    8f9a:	943e                	add	s0,s0,a5
    8f9c:	c004                	sw	s1,0(s0)
    8f9e:	a031                	j	8faa <_malloc_r+0x94>
    8fa0:	405c                	lw	a5,4(s0)
    8fa2:	02871363          	bne	a4,s0,8fc8 <_malloc_r+0xb2>
    8fa6:	92f1ac23          	sw	a5,-1736(gp) # 20000458 <__malloc_free_list>
    8faa:	854a                	mv	a0,s2
    8fac:	4cd000ef          	jal	ra,9c78 <__malloc_unlock>
    8fb0:	00b40513          	addi	a0,s0,11
    8fb4:	00440793          	addi	a5,s0,4
    8fb8:	9961                	andi	a0,a0,-8
    8fba:	40f50733          	sub	a4,a0,a5
    8fbe:	df5d                	beqz	a4,8f7c <_malloc_r+0x66>
    8fc0:	943a                	add	s0,s0,a4
    8fc2:	8f89                	sub	a5,a5,a0
    8fc4:	c01c                	sw	a5,0(s0)
    8fc6:	bf5d                	j	8f7c <_malloc_r+0x66>
    8fc8:	c35c                	sw	a5,4(a4)
    8fca:	b7c5                	j	8faa <_malloc_r+0x94>
    8fcc:	8722                	mv	a4,s0
    8fce:	4040                	lw	s0,4(s0)
    8fd0:	bf95                	j	8f44 <_malloc_r+0x2e>
    8fd2:	00350413          	addi	s0,a0,3
    8fd6:	9871                	andi	s0,s0,-4
    8fd8:	fc8502e3          	beq	a0,s0,8f9c <_malloc_r+0x86>
    8fdc:	40a405b3          	sub	a1,s0,a0
    8fe0:	854a                	mv	a0,s2
    8fe2:	2575                	jal	968e <_sbrk_r>
    8fe4:	fb351ce3          	bne	a0,s3,8f9c <_malloc_r+0x86>
    8fe8:	bfb5                	j	8f64 <_malloc_r+0x4e>

00008fea <__sfputc_r>:
    8fea:	461c                	lw	a5,8(a2)
    8fec:	17fd                	addi	a5,a5,-1
    8fee:	c61c                	sw	a5,8(a2)
    8ff0:	0007d963          	bgez	a5,9002 <__sfputc_r+0x18>
    8ff4:	4e18                	lw	a4,24(a2)
    8ff6:	00e7c563          	blt	a5,a4,9000 <__sfputc_r+0x16>
    8ffa:	47a9                	li	a5,10
    8ffc:	00f59363          	bne	a1,a5,9002 <__sfputc_r+0x18>
    9000:	a7ad                	j	976a <__swbuf_r>
    9002:	421c                	lw	a5,0(a2)
    9004:	852e                	mv	a0,a1
    9006:	00178713          	addi	a4,a5,1 # ffff0001 <_eusrstack+0xdffe0001>
    900a:	c218                	sw	a4,0(a2)
    900c:	a38c                	sb	a1,0(a5)
    900e:	8082                	ret

00009010 <__sfputs_r>:
    9010:	1101                	addi	sp,sp,-32
    9012:	cc22                	sw	s0,24(sp)
    9014:	ca26                	sw	s1,20(sp)
    9016:	c84a                	sw	s2,16(sp)
    9018:	c64e                	sw	s3,12(sp)
    901a:	c452                	sw	s4,8(sp)
    901c:	ce06                	sw	ra,28(sp)
    901e:	892a                	mv	s2,a0
    9020:	89ae                	mv	s3,a1
    9022:	8432                	mv	s0,a2
    9024:	00d604b3          	add	s1,a2,a3
    9028:	5a7d                	li	s4,-1
    902a:	00941463          	bne	s0,s1,9032 <__sfputs_r+0x22>
    902e:	4501                	li	a0,0
    9030:	a809                	j	9042 <__sfputs_r+0x32>
    9032:	200c                	lbu	a1,0(s0)
    9034:	864e                	mv	a2,s3
    9036:	854a                	mv	a0,s2
    9038:	fb3ff0ef          	jal	ra,8fea <__sfputc_r>
    903c:	0405                	addi	s0,s0,1
    903e:	ff4516e3          	bne	a0,s4,902a <__sfputs_r+0x1a>
    9042:	40f2                	lw	ra,28(sp)
    9044:	4462                	lw	s0,24(sp)
    9046:	44d2                	lw	s1,20(sp)
    9048:	4942                	lw	s2,16(sp)
    904a:	49b2                	lw	s3,12(sp)
    904c:	4a22                	lw	s4,8(sp)
    904e:	6105                	addi	sp,sp,32
    9050:	8082                	ret

00009052 <_vfiprintf_r>:
    9052:	7135                	addi	sp,sp,-160
    9054:	cd22                	sw	s0,152(sp)
    9056:	cb26                	sw	s1,148(sp)
    9058:	c94a                	sw	s2,144(sp)
    905a:	c74e                	sw	s3,140(sp)
    905c:	cf06                	sw	ra,156(sp)
    905e:	c552                	sw	s4,136(sp)
    9060:	c356                	sw	s5,132(sp)
    9062:	c15a                	sw	s6,128(sp)
    9064:	dede                	sw	s7,124(sp)
    9066:	dce2                	sw	s8,120(sp)
    9068:	dae6                	sw	s9,116(sp)
    906a:	89aa                	mv	s3,a0
    906c:	84ae                	mv	s1,a1
    906e:	8932                	mv	s2,a2
    9070:	8436                	mv	s0,a3
    9072:	c509                	beqz	a0,907c <_vfiprintf_r+0x2a>
    9074:	4d1c                	lw	a5,24(a0)
    9076:	e399                	bnez	a5,907c <_vfiprintf_r+0x2a>
    9078:	cf1ff0ef          	jal	ra,8d68 <__sinit>
    907c:	00004797          	auipc	a5,0x4
    9080:	d7078793          	addi	a5,a5,-656 # cdec <__sf_fake_stdin>
    9084:	0cf49963          	bne	s1,a5,9156 <_vfiprintf_r+0x104>
    9088:	0049a483          	lw	s1,4(s3)
    908c:	24de                	lhu	a5,12(s1)
    908e:	8ba1                	andi	a5,a5,8
    9090:	c7ed                	beqz	a5,917a <_vfiprintf_r+0x128>
    9092:	489c                	lw	a5,16(s1)
    9094:	c3fd                	beqz	a5,917a <_vfiprintf_r+0x128>
    9096:	02000793          	li	a5,32
    909a:	02f104a3          	sb	a5,41(sp)
    909e:	03000793          	li	a5,48
    90a2:	d202                	sw	zero,36(sp)
    90a4:	02f10523          	sb	a5,42(sp)
    90a8:	c622                	sw	s0,12(sp)
    90aa:	02500b93          	li	s7,37
    90ae:	00004a97          	auipc	s5,0x4
    90b2:	d8ea8a93          	addi	s5,s5,-626 # ce3c <__sf_fake_stdout+0x30>
    90b6:	4c05                	li	s8,1
    90b8:	4b29                	li	s6,10
    90ba:	844a                	mv	s0,s2
    90bc:	201c                	lbu	a5,0(s0)
    90be:	c399                	beqz	a5,90c4 <_vfiprintf_r+0x72>
    90c0:	0d779f63          	bne	a5,s7,919e <_vfiprintf_r+0x14c>
    90c4:	41240cb3          	sub	s9,s0,s2
    90c8:	000c8e63          	beqz	s9,90e4 <_vfiprintf_r+0x92>
    90cc:	86e6                	mv	a3,s9
    90ce:	864a                	mv	a2,s2
    90d0:	85a6                	mv	a1,s1
    90d2:	854e                	mv	a0,s3
    90d4:	f3dff0ef          	jal	ra,9010 <__sfputs_r>
    90d8:	57fd                	li	a5,-1
    90da:	1ef50163          	beq	a0,a5,92bc <_vfiprintf_r+0x26a>
    90de:	5692                	lw	a3,36(sp)
    90e0:	96e6                	add	a3,a3,s9
    90e2:	d236                	sw	a3,36(sp)
    90e4:	201c                	lbu	a5,0(s0)
    90e6:	1c078b63          	beqz	a5,92bc <_vfiprintf_r+0x26a>
    90ea:	57fd                	li	a5,-1
    90ec:	00140913          	addi	s2,s0,1
    90f0:	c802                	sw	zero,16(sp)
    90f2:	ce02                	sw	zero,28(sp)
    90f4:	ca3e                	sw	a5,20(sp)
    90f6:	cc02                	sw	zero,24(sp)
    90f8:	040109a3          	sb	zero,83(sp)
    90fc:	d482                	sw	zero,104(sp)
    90fe:	00094583          	lbu	a1,0(s2)
    9102:	4615                	li	a2,5
    9104:	8556                	mv	a0,s5
    9106:	359000ef          	jal	ra,9c5e <memchr>
    910a:	00190413          	addi	s0,s2,1
    910e:	47c2                	lw	a5,16(sp)
    9110:	e949                	bnez	a0,91a2 <_vfiprintf_r+0x150>
    9112:	0107f713          	andi	a4,a5,16
    9116:	c709                	beqz	a4,9120 <_vfiprintf_r+0xce>
    9118:	02000713          	li	a4,32
    911c:	04e109a3          	sb	a4,83(sp)
    9120:	0087f713          	andi	a4,a5,8
    9124:	c709                	beqz	a4,912e <_vfiprintf_r+0xdc>
    9126:	02b00713          	li	a4,43
    912a:	04e109a3          	sb	a4,83(sp)
    912e:	00094683          	lbu	a3,0(s2)
    9132:	02a00713          	li	a4,42
    9136:	06e68e63          	beq	a3,a4,91b2 <_vfiprintf_r+0x160>
    913a:	47f2                	lw	a5,28(sp)
    913c:	844a                	mv	s0,s2
    913e:	4681                	li	a3,0
    9140:	4625                	li	a2,9
    9142:	2018                	lbu	a4,0(s0)
    9144:	00140593          	addi	a1,s0,1
    9148:	fd070713          	addi	a4,a4,-48
    914c:	0ae67663          	bgeu	a2,a4,91f8 <_vfiprintf_r+0x1a6>
    9150:	caad                	beqz	a3,91c2 <_vfiprintf_r+0x170>
    9152:	ce3e                	sw	a5,28(sp)
    9154:	a0bd                	j	91c2 <_vfiprintf_r+0x170>
    9156:	00004797          	auipc	a5,0x4
    915a:	cb678793          	addi	a5,a5,-842 # ce0c <__sf_fake_stdout>
    915e:	00f49563          	bne	s1,a5,9168 <_vfiprintf_r+0x116>
    9162:	0089a483          	lw	s1,8(s3)
    9166:	b71d                	j	908c <_vfiprintf_r+0x3a>
    9168:	00004797          	auipc	a5,0x4
    916c:	c6478793          	addi	a5,a5,-924 # cdcc <__sf_fake_stderr>
    9170:	f0f49ee3          	bne	s1,a5,908c <_vfiprintf_r+0x3a>
    9174:	00c9a483          	lw	s1,12(s3)
    9178:	bf11                	j	908c <_vfiprintf_r+0x3a>
    917a:	85a6                	mv	a1,s1
    917c:	854e                	mv	a0,s3
    917e:	2dfd                	jal	987c <__swsetup_r>
    9180:	d919                	beqz	a0,9096 <_vfiprintf_r+0x44>
    9182:	557d                	li	a0,-1
    9184:	40fa                	lw	ra,156(sp)
    9186:	446a                	lw	s0,152(sp)
    9188:	44da                	lw	s1,148(sp)
    918a:	494a                	lw	s2,144(sp)
    918c:	49ba                	lw	s3,140(sp)
    918e:	4a2a                	lw	s4,136(sp)
    9190:	4a9a                	lw	s5,132(sp)
    9192:	4b0a                	lw	s6,128(sp)
    9194:	5bf6                	lw	s7,124(sp)
    9196:	5c66                	lw	s8,120(sp)
    9198:	5cd6                	lw	s9,116(sp)
    919a:	610d                	addi	sp,sp,160
    919c:	8082                	ret
    919e:	0405                	addi	s0,s0,1
    91a0:	bf31                	j	90bc <_vfiprintf_r+0x6a>
    91a2:	41550533          	sub	a0,a0,s5
    91a6:	00ac1533          	sll	a0,s8,a0
    91aa:	8fc9                	or	a5,a5,a0
    91ac:	c83e                	sw	a5,16(sp)
    91ae:	8922                	mv	s2,s0
    91b0:	b7b9                	j	90fe <_vfiprintf_r+0xac>
    91b2:	4732                	lw	a4,12(sp)
    91b4:	00470693          	addi	a3,a4,4
    91b8:	4318                	lw	a4,0(a4)
    91ba:	c636                	sw	a3,12(sp)
    91bc:	02074763          	bltz	a4,91ea <_vfiprintf_r+0x198>
    91c0:	ce3a                	sw	a4,28(sp)
    91c2:	2018                	lbu	a4,0(s0)
    91c4:	02e00793          	li	a5,46
    91c8:	04f71d63          	bne	a4,a5,9222 <_vfiprintf_r+0x1d0>
    91cc:	3018                	lbu	a4,1(s0)
    91ce:	02a00793          	li	a5,42
    91d2:	02f71b63          	bne	a4,a5,9208 <_vfiprintf_r+0x1b6>
    91d6:	47b2                	lw	a5,12(sp)
    91d8:	0409                	addi	s0,s0,2
    91da:	00478713          	addi	a4,a5,4
    91de:	439c                	lw	a5,0(a5)
    91e0:	c63a                	sw	a4,12(sp)
    91e2:	0207c163          	bltz	a5,9204 <_vfiprintf_r+0x1b2>
    91e6:	ca3e                	sw	a5,20(sp)
    91e8:	a82d                	j	9222 <_vfiprintf_r+0x1d0>
    91ea:	40e00733          	neg	a4,a4
    91ee:	0027e793          	ori	a5,a5,2
    91f2:	ce3a                	sw	a4,28(sp)
    91f4:	c83e                	sw	a5,16(sp)
    91f6:	b7f1                	j	91c2 <_vfiprintf_r+0x170>
    91f8:	036787b3          	mul	a5,a5,s6
    91fc:	4685                	li	a3,1
    91fe:	842e                	mv	s0,a1
    9200:	97ba                	add	a5,a5,a4
    9202:	b781                	j	9142 <_vfiprintf_r+0xf0>
    9204:	57fd                	li	a5,-1
    9206:	b7c5                	j	91e6 <_vfiprintf_r+0x194>
    9208:	0405                	addi	s0,s0,1
    920a:	ca02                	sw	zero,20(sp)
    920c:	4681                	li	a3,0
    920e:	4781                	li	a5,0
    9210:	4625                	li	a2,9
    9212:	2018                	lbu	a4,0(s0)
    9214:	00140593          	addi	a1,s0,1
    9218:	fd070713          	addi	a4,a4,-48
    921c:	06e67663          	bgeu	a2,a4,9288 <_vfiprintf_r+0x236>
    9220:	f2f9                	bnez	a3,91e6 <_vfiprintf_r+0x194>
    9222:	200c                	lbu	a1,0(s0)
    9224:	460d                	li	a2,3
    9226:	00004517          	auipc	a0,0x4
    922a:	c1e50513          	addi	a0,a0,-994 # ce44 <__sf_fake_stdout+0x38>
    922e:	231000ef          	jal	ra,9c5e <memchr>
    9232:	cd11                	beqz	a0,924e <_vfiprintf_r+0x1fc>
    9234:	00004797          	auipc	a5,0x4
    9238:	c1078793          	addi	a5,a5,-1008 # ce44 <__sf_fake_stdout+0x38>
    923c:	8d1d                	sub	a0,a0,a5
    923e:	04000793          	li	a5,64
    9242:	00a797b3          	sll	a5,a5,a0
    9246:	4542                	lw	a0,16(sp)
    9248:	0405                	addi	s0,s0,1
    924a:	8d5d                	or	a0,a0,a5
    924c:	c82a                	sw	a0,16(sp)
    924e:	200c                	lbu	a1,0(s0)
    9250:	4619                	li	a2,6
    9252:	00004517          	auipc	a0,0x4
    9256:	bf650513          	addi	a0,a0,-1034 # ce48 <__sf_fake_stdout+0x3c>
    925a:	00140913          	addi	s2,s0,1
    925e:	02b10423          	sb	a1,40(sp)
    9262:	1fd000ef          	jal	ra,9c5e <memchr>
    9266:	c135                	beqz	a0,92ca <_vfiprintf_r+0x278>
    9268:	ffff7797          	auipc	a5,0xffff7
    926c:	d9878793          	addi	a5,a5,-616 # 0 <_sinit>
    9270:	e795                	bnez	a5,929c <_vfiprintf_r+0x24a>
    9272:	4742                	lw	a4,16(sp)
    9274:	47b2                	lw	a5,12(sp)
    9276:	10077713          	andi	a4,a4,256
    927a:	cf09                	beqz	a4,9294 <_vfiprintf_r+0x242>
    927c:	0791                	addi	a5,a5,4
    927e:	c63e                	sw	a5,12(sp)
    9280:	5792                	lw	a5,36(sp)
    9282:	97d2                	add	a5,a5,s4
    9284:	d23e                	sw	a5,36(sp)
    9286:	bd15                	j	90ba <_vfiprintf_r+0x68>
    9288:	036787b3          	mul	a5,a5,s6
    928c:	4685                	li	a3,1
    928e:	842e                	mv	s0,a1
    9290:	97ba                	add	a5,a5,a4
    9292:	b741                	j	9212 <_vfiprintf_r+0x1c0>
    9294:	079d                	addi	a5,a5,7
    9296:	9be1                	andi	a5,a5,-8
    9298:	07a1                	addi	a5,a5,8
    929a:	b7d5                	j	927e <_vfiprintf_r+0x22c>
    929c:	0078                	addi	a4,sp,12
    929e:	00000697          	auipc	a3,0x0
    92a2:	d7268693          	addi	a3,a3,-654 # 9010 <__sfputs_r>
    92a6:	8626                	mv	a2,s1
    92a8:	080c                	addi	a1,sp,16
    92aa:	854e                	mv	a0,s3
    92ac:	00000097          	auipc	ra,0x0
    92b0:	000000e7          	jalr	zero # 0 <_sinit>
    92b4:	57fd                	li	a5,-1
    92b6:	8a2a                	mv	s4,a0
    92b8:	fcf514e3          	bne	a0,a5,9280 <_vfiprintf_r+0x22e>
    92bc:	24de                	lhu	a5,12(s1)
    92be:	0407f793          	andi	a5,a5,64
    92c2:	ec0790e3          	bnez	a5,9182 <_vfiprintf_r+0x130>
    92c6:	5512                	lw	a0,36(sp)
    92c8:	bd75                	j	9184 <_vfiprintf_r+0x132>
    92ca:	0078                	addi	a4,sp,12
    92cc:	00000697          	auipc	a3,0x0
    92d0:	d4468693          	addi	a3,a3,-700 # 9010 <__sfputs_r>
    92d4:	8626                	mv	a2,s1
    92d6:	080c                	addi	a1,sp,16
    92d8:	854e                	mv	a0,s3
    92da:	2a01                	jal	93ea <_printf_i>
    92dc:	bfe1                	j	92b4 <_vfiprintf_r+0x262>

000092de <_printf_common>:
    92de:	7179                	addi	sp,sp,-48
    92e0:	ca56                	sw	s5,20(sp)
    92e2:	499c                	lw	a5,16(a1)
    92e4:	8aba                	mv	s5,a4
    92e6:	4598                	lw	a4,8(a1)
    92e8:	d422                	sw	s0,40(sp)
    92ea:	d226                	sw	s1,36(sp)
    92ec:	ce4e                	sw	s3,28(sp)
    92ee:	cc52                	sw	s4,24(sp)
    92f0:	d606                	sw	ra,44(sp)
    92f2:	d04a                	sw	s2,32(sp)
    92f4:	c85a                	sw	s6,16(sp)
    92f6:	c65e                	sw	s7,12(sp)
    92f8:	89aa                	mv	s3,a0
    92fa:	842e                	mv	s0,a1
    92fc:	84b2                	mv	s1,a2
    92fe:	8a36                	mv	s4,a3
    9300:	00e7d363          	bge	a5,a4,9306 <_printf_common+0x28>
    9304:	87ba                	mv	a5,a4
    9306:	c09c                	sw	a5,0(s1)
    9308:	04344703          	lbu	a4,67(s0)
    930c:	c319                	beqz	a4,9312 <_printf_common+0x34>
    930e:	0785                	addi	a5,a5,1
    9310:	c09c                	sw	a5,0(s1)
    9312:	401c                	lw	a5,0(s0)
    9314:	0207f793          	andi	a5,a5,32
    9318:	c781                	beqz	a5,9320 <_printf_common+0x42>
    931a:	409c                	lw	a5,0(s1)
    931c:	0789                	addi	a5,a5,2
    931e:	c09c                	sw	a5,0(s1)
    9320:	00042903          	lw	s2,0(s0)
    9324:	00697913          	andi	s2,s2,6
    9328:	00091a63          	bnez	s2,933c <_printf_common+0x5e>
    932c:	01940b13          	addi	s6,s0,25
    9330:	5bfd                	li	s7,-1
    9332:	445c                	lw	a5,12(s0)
    9334:	4098                	lw	a4,0(s1)
    9336:	8f99                	sub	a5,a5,a4
    9338:	04f94c63          	blt	s2,a5,9390 <_printf_common+0xb2>
    933c:	401c                	lw	a5,0(s0)
    933e:	04344683          	lbu	a3,67(s0)
    9342:	0207f793          	andi	a5,a5,32
    9346:	00d036b3          	snez	a3,a3
    934a:	eba5                	bnez	a5,93ba <_printf_common+0xdc>
    934c:	04340613          	addi	a2,s0,67
    9350:	85d2                	mv	a1,s4
    9352:	854e                	mv	a0,s3
    9354:	9a82                	jalr	s5
    9356:	57fd                	li	a5,-1
    9358:	04f50363          	beq	a0,a5,939e <_printf_common+0xc0>
    935c:	401c                	lw	a5,0(s0)
    935e:	4611                	li	a2,4
    9360:	4098                	lw	a4,0(s1)
    9362:	8b99                	andi	a5,a5,6
    9364:	4454                	lw	a3,12(s0)
    9366:	4481                	li	s1,0
    9368:	00c79763          	bne	a5,a2,9376 <_printf_common+0x98>
    936c:	40e684b3          	sub	s1,a3,a4
    9370:	0004d363          	bgez	s1,9376 <_printf_common+0x98>
    9374:	4481                	li	s1,0
    9376:	441c                	lw	a5,8(s0)
    9378:	4818                	lw	a4,16(s0)
    937a:	00f75463          	bge	a4,a5,9382 <_printf_common+0xa4>
    937e:	8f99                	sub	a5,a5,a4
    9380:	94be                	add	s1,s1,a5
    9382:	4901                	li	s2,0
    9384:	0469                	addi	s0,s0,26
    9386:	5b7d                	li	s6,-1
    9388:	05249863          	bne	s1,s2,93d8 <_printf_common+0xfa>
    938c:	4501                	li	a0,0
    938e:	a809                	j	93a0 <_printf_common+0xc2>
    9390:	4685                	li	a3,1
    9392:	865a                	mv	a2,s6
    9394:	85d2                	mv	a1,s4
    9396:	854e                	mv	a0,s3
    9398:	9a82                	jalr	s5
    939a:	01751e63          	bne	a0,s7,93b6 <_printf_common+0xd8>
    939e:	557d                	li	a0,-1
    93a0:	50b2                	lw	ra,44(sp)
    93a2:	5422                	lw	s0,40(sp)
    93a4:	5492                	lw	s1,36(sp)
    93a6:	5902                	lw	s2,32(sp)
    93a8:	49f2                	lw	s3,28(sp)
    93aa:	4a62                	lw	s4,24(sp)
    93ac:	4ad2                	lw	s5,20(sp)
    93ae:	4b42                	lw	s6,16(sp)
    93b0:	4bb2                	lw	s7,12(sp)
    93b2:	6145                	addi	sp,sp,48
    93b4:	8082                	ret
    93b6:	0905                	addi	s2,s2,1
    93b8:	bfad                	j	9332 <_printf_common+0x54>
    93ba:	00d40733          	add	a4,s0,a3
    93be:	03000613          	li	a2,48
    93c2:	04c701a3          	sb	a2,67(a4)
    93c6:	04544703          	lbu	a4,69(s0)
    93ca:	00168793          	addi	a5,a3,1
    93ce:	97a2                	add	a5,a5,s0
    93d0:	0689                	addi	a3,a3,2
    93d2:	04e781a3          	sb	a4,67(a5)
    93d6:	bf9d                	j	934c <_printf_common+0x6e>
    93d8:	4685                	li	a3,1
    93da:	8622                	mv	a2,s0
    93dc:	85d2                	mv	a1,s4
    93de:	854e                	mv	a0,s3
    93e0:	9a82                	jalr	s5
    93e2:	fb650ee3          	beq	a0,s6,939e <_printf_common+0xc0>
    93e6:	0905                	addi	s2,s2,1
    93e8:	b745                	j	9388 <_printf_common+0xaa>

000093ea <_printf_i>:
    93ea:	7179                	addi	sp,sp,-48
    93ec:	d422                	sw	s0,40(sp)
    93ee:	d226                	sw	s1,36(sp)
    93f0:	d04a                	sw	s2,32(sp)
    93f2:	ce4e                	sw	s3,28(sp)
    93f4:	d606                	sw	ra,44(sp)
    93f6:	cc52                	sw	s4,24(sp)
    93f8:	ca56                	sw	s5,20(sp)
    93fa:	c85a                	sw	s6,16(sp)
    93fc:	89b6                	mv	s3,a3
    93fe:	2d94                	lbu	a3,24(a1)
    9400:	06900793          	li	a5,105
    9404:	8932                	mv	s2,a2
    9406:	84aa                	mv	s1,a0
    9408:	842e                	mv	s0,a1
    940a:	04358613          	addi	a2,a1,67
    940e:	02f68d63          	beq	a3,a5,9448 <_printf_i+0x5e>
    9412:	06d7e263          	bltu	a5,a3,9476 <_printf_i+0x8c>
    9416:	05800793          	li	a5,88
    941a:	18f68763          	beq	a3,a5,95a8 <_printf_i+0x1be>
    941e:	00d7ed63          	bltu	a5,a3,9438 <_printf_i+0x4e>
    9422:	20068f63          	beqz	a3,9640 <_printf_i+0x256>
    9426:	04300793          	li	a5,67
    942a:	0af68f63          	beq	a3,a5,94e8 <_printf_i+0xfe>
    942e:	04240a93          	addi	s5,s0,66
    9432:	04d40123          	sb	a3,66(s0)
    9436:	a0d1                	j	94fa <_printf_i+0x110>
    9438:	06300793          	li	a5,99
    943c:	0af68663          	beq	a3,a5,94e8 <_printf_i+0xfe>
    9440:	06400793          	li	a5,100
    9444:	fef695e3          	bne	a3,a5,942e <_printf_i+0x44>
    9448:	401c                	lw	a5,0(s0)
    944a:	4308                	lw	a0,0(a4)
    944c:	0807f693          	andi	a3,a5,128
    9450:	00450593          	addi	a1,a0,4
    9454:	c6cd                	beqz	a3,94fe <_printf_i+0x114>
    9456:	411c                	lw	a5,0(a0)
    9458:	c30c                	sw	a1,0(a4)
    945a:	0007d863          	bgez	a5,946a <_printf_i+0x80>
    945e:	02d00713          	li	a4,45
    9462:	40f007b3          	neg	a5,a5
    9466:	04e401a3          	sb	a4,67(s0)
    946a:	00004697          	auipc	a3,0x4
    946e:	9e668693          	addi	a3,a3,-1562 # ce50 <__sf_fake_stdout+0x44>
    9472:	4729                	li	a4,10
    9474:	a86d                	j	952e <_printf_i+0x144>
    9476:	07000793          	li	a5,112
    947a:	16f68363          	beq	a3,a5,95e0 <_printf_i+0x1f6>
    947e:	02d7e563          	bltu	a5,a3,94a8 <_printf_i+0xbe>
    9482:	06e00793          	li	a5,110
    9486:	18f68a63          	beq	a3,a5,961a <_printf_i+0x230>
    948a:	06f00793          	li	a5,111
    948e:	faf690e3          	bne	a3,a5,942e <_printf_i+0x44>
    9492:	400c                	lw	a1,0(s0)
    9494:	431c                	lw	a5,0(a4)
    9496:	0805f813          	andi	a6,a1,128
    949a:	00478513          	addi	a0,a5,4
    949e:	06080863          	beqz	a6,950e <_printf_i+0x124>
    94a2:	c308                	sw	a0,0(a4)
    94a4:	439c                	lw	a5,0(a5)
    94a6:	a88d                	j	9518 <_printf_i+0x12e>
    94a8:	07500793          	li	a5,117
    94ac:	fef683e3          	beq	a3,a5,9492 <_printf_i+0xa8>
    94b0:	07800793          	li	a5,120
    94b4:	12f68a63          	beq	a3,a5,95e8 <_printf_i+0x1fe>
    94b8:	07300793          	li	a5,115
    94bc:	f6f699e3          	bne	a3,a5,942e <_printf_i+0x44>
    94c0:	431c                	lw	a5,0(a4)
    94c2:	41d0                	lw	a2,4(a1)
    94c4:	4581                	li	a1,0
    94c6:	00478693          	addi	a3,a5,4
    94ca:	c314                	sw	a3,0(a4)
    94cc:	0007aa83          	lw	s5,0(a5)
    94d0:	8556                	mv	a0,s5
    94d2:	78c000ef          	jal	ra,9c5e <memchr>
    94d6:	c501                	beqz	a0,94de <_printf_i+0xf4>
    94d8:	41550533          	sub	a0,a0,s5
    94dc:	c048                	sw	a0,4(s0)
    94de:	405c                	lw	a5,4(s0)
    94e0:	c81c                	sw	a5,16(s0)
    94e2:	040401a3          	sb	zero,67(s0)
    94e6:	a861                	j	957e <_printf_i+0x194>
    94e8:	431c                	lw	a5,0(a4)
    94ea:	04240a93          	addi	s5,s0,66
    94ee:	00478693          	addi	a3,a5,4
    94f2:	439c                	lw	a5,0(a5)
    94f4:	c314                	sw	a3,0(a4)
    94f6:	04f40123          	sb	a5,66(s0)
    94fa:	4785                	li	a5,1
    94fc:	b7d5                	j	94e0 <_printf_i+0xf6>
    94fe:	0407f693          	andi	a3,a5,64
    9502:	411c                	lw	a5,0(a0)
    9504:	c30c                	sw	a1,0(a4)
    9506:	dab1                	beqz	a3,945a <_printf_i+0x70>
    9508:	07c2                	slli	a5,a5,0x10
    950a:	87c1                	srai	a5,a5,0x10
    950c:	b7b9                	j	945a <_printf_i+0x70>
    950e:	0405f593          	andi	a1,a1,64
    9512:	c308                	sw	a0,0(a4)
    9514:	d9c1                	beqz	a1,94a4 <_printf_i+0xba>
    9516:	239e                	lhu	a5,0(a5)
    9518:	06f00713          	li	a4,111
    951c:	0ee68763          	beq	a3,a4,960a <_printf_i+0x220>
    9520:	00004697          	auipc	a3,0x4
    9524:	93068693          	addi	a3,a3,-1744 # ce50 <__sf_fake_stdout+0x44>
    9528:	4729                	li	a4,10
    952a:	040401a3          	sb	zero,67(s0)
    952e:	404c                	lw	a1,4(s0)
    9530:	c40c                	sw	a1,8(s0)
    9532:	0005c563          	bltz	a1,953c <_printf_i+0x152>
    9536:	4008                	lw	a0,0(s0)
    9538:	996d                	andi	a0,a0,-5
    953a:	c008                	sw	a0,0(s0)
    953c:	e399                	bnez	a5,9542 <_printf_i+0x158>
    953e:	8ab2                	mv	s5,a2
    9540:	cd89                	beqz	a1,955a <_printf_i+0x170>
    9542:	8ab2                	mv	s5,a2
    9544:	02e7f5b3          	remu	a1,a5,a4
    9548:	1afd                	addi	s5,s5,-1
    954a:	95b6                	add	a1,a1,a3
    954c:	218c                	lbu	a1,0(a1)
    954e:	00ba8023          	sb	a1,0(s5)
    9552:	02e7d5b3          	divu	a1,a5,a4
    9556:	0ce7f063          	bgeu	a5,a4,9616 <_printf_i+0x22c>
    955a:	47a1                	li	a5,8
    955c:	00f71e63          	bne	a4,a5,9578 <_printf_i+0x18e>
    9560:	401c                	lw	a5,0(s0)
    9562:	8b85                	andi	a5,a5,1
    9564:	cb91                	beqz	a5,9578 <_printf_i+0x18e>
    9566:	4058                	lw	a4,4(s0)
    9568:	481c                	lw	a5,16(s0)
    956a:	00e7c763          	blt	a5,a4,9578 <_printf_i+0x18e>
    956e:	03000793          	li	a5,48
    9572:	fefa8fa3          	sb	a5,-1(s5)
    9576:	1afd                	addi	s5,s5,-1
    9578:	41560633          	sub	a2,a2,s5
    957c:	c810                	sw	a2,16(s0)
    957e:	874e                	mv	a4,s3
    9580:	86ca                	mv	a3,s2
    9582:	0070                	addi	a2,sp,12
    9584:	85a2                	mv	a1,s0
    9586:	8526                	mv	a0,s1
    9588:	d57ff0ef          	jal	ra,92de <_printf_common>
    958c:	5a7d                	li	s4,-1
    958e:	0b451d63          	bne	a0,s4,9648 <_printf_i+0x25e>
    9592:	557d                	li	a0,-1
    9594:	50b2                	lw	ra,44(sp)
    9596:	5422                	lw	s0,40(sp)
    9598:	5492                	lw	s1,36(sp)
    959a:	5902                	lw	s2,32(sp)
    959c:	49f2                	lw	s3,28(sp)
    959e:	4a62                	lw	s4,24(sp)
    95a0:	4ad2                	lw	s5,20(sp)
    95a2:	4b42                	lw	s6,16(sp)
    95a4:	6145                	addi	sp,sp,48
    95a6:	8082                	ret
    95a8:	04d582a3          	sb	a3,69(a1)
    95ac:	00004697          	auipc	a3,0x4
    95b0:	8a468693          	addi	a3,a3,-1884 # ce50 <__sf_fake_stdout+0x44>
    95b4:	400c                	lw	a1,0(s0)
    95b6:	4308                	lw	a0,0(a4)
    95b8:	0805f813          	andi	a6,a1,128
    95bc:	411c                	lw	a5,0(a0)
    95be:	0511                	addi	a0,a0,4
    95c0:	02080d63          	beqz	a6,95fa <_printf_i+0x210>
    95c4:	c308                	sw	a0,0(a4)
    95c6:	0015f713          	andi	a4,a1,1
    95ca:	c701                	beqz	a4,95d2 <_printf_i+0x1e8>
    95cc:	0205e593          	ori	a1,a1,32
    95d0:	c00c                	sw	a1,0(s0)
    95d2:	4741                	li	a4,16
    95d4:	fbb9                	bnez	a5,952a <_printf_i+0x140>
    95d6:	400c                	lw	a1,0(s0)
    95d8:	fdf5f593          	andi	a1,a1,-33
    95dc:	c00c                	sw	a1,0(s0)
    95de:	b7b1                	j	952a <_printf_i+0x140>
    95e0:	419c                	lw	a5,0(a1)
    95e2:	0207e793          	ori	a5,a5,32
    95e6:	c19c                	sw	a5,0(a1)
    95e8:	07800793          	li	a5,120
    95ec:	04f402a3          	sb	a5,69(s0)
    95f0:	00004697          	auipc	a3,0x4
    95f4:	87468693          	addi	a3,a3,-1932 # ce64 <__sf_fake_stdout+0x58>
    95f8:	bf75                	j	95b4 <_printf_i+0x1ca>
    95fa:	0405f813          	andi	a6,a1,64
    95fe:	c308                	sw	a0,0(a4)
    9600:	fc0803e3          	beqz	a6,95c6 <_printf_i+0x1dc>
    9604:	07c2                	slli	a5,a5,0x10
    9606:	83c1                	srli	a5,a5,0x10
    9608:	bf7d                	j	95c6 <_printf_i+0x1dc>
    960a:	00004697          	auipc	a3,0x4
    960e:	84668693          	addi	a3,a3,-1978 # ce50 <__sf_fake_stdout+0x44>
    9612:	4721                	li	a4,8
    9614:	bf19                	j	952a <_printf_i+0x140>
    9616:	87ae                	mv	a5,a1
    9618:	b735                	j	9544 <_printf_i+0x15a>
    961a:	4194                	lw	a3,0(a1)
    961c:	431c                	lw	a5,0(a4)
    961e:	49cc                	lw	a1,20(a1)
    9620:	0806f813          	andi	a6,a3,128
    9624:	00478513          	addi	a0,a5,4
    9628:	00080663          	beqz	a6,9634 <_printf_i+0x24a>
    962c:	c308                	sw	a0,0(a4)
    962e:	439c                	lw	a5,0(a5)
    9630:	c38c                	sw	a1,0(a5)
    9632:	a039                	j	9640 <_printf_i+0x256>
    9634:	c308                	sw	a0,0(a4)
    9636:	0406f693          	andi	a3,a3,64
    963a:	439c                	lw	a5,0(a5)
    963c:	daf5                	beqz	a3,9630 <_printf_i+0x246>
    963e:	a38e                	sh	a1,0(a5)
    9640:	00042823          	sw	zero,16(s0)
    9644:	8ab2                	mv	s5,a2
    9646:	bf25                	j	957e <_printf_i+0x194>
    9648:	4814                	lw	a3,16(s0)
    964a:	8656                	mv	a2,s5
    964c:	85ca                	mv	a1,s2
    964e:	8526                	mv	a0,s1
    9650:	9982                	jalr	s3
    9652:	f54500e3          	beq	a0,s4,9592 <_printf_i+0x1a8>
    9656:	401c                	lw	a5,0(s0)
    9658:	8b89                	andi	a5,a5,2
    965a:	e78d                	bnez	a5,9684 <_printf_i+0x29a>
    965c:	47b2                	lw	a5,12(sp)
    965e:	4448                	lw	a0,12(s0)
    9660:	f2f55ae3          	bge	a0,a5,9594 <_printf_i+0x1aa>
    9664:	853e                	mv	a0,a5
    9666:	b73d                	j	9594 <_printf_i+0x1aa>
    9668:	4685                	li	a3,1
    966a:	8656                	mv	a2,s5
    966c:	85ca                	mv	a1,s2
    966e:	8526                	mv	a0,s1
    9670:	9982                	jalr	s3
    9672:	f36500e3          	beq	a0,s6,9592 <_printf_i+0x1a8>
    9676:	0a05                	addi	s4,s4,1
    9678:	445c                	lw	a5,12(s0)
    967a:	4732                	lw	a4,12(sp)
    967c:	8f99                	sub	a5,a5,a4
    967e:	fefa45e3          	blt	s4,a5,9668 <_printf_i+0x27e>
    9682:	bfe9                	j	965c <_printf_i+0x272>
    9684:	4a01                	li	s4,0
    9686:	01940a93          	addi	s5,s0,25
    968a:	5b7d                	li	s6,-1
    968c:	b7f5                	j	9678 <_printf_i+0x28e>

0000968e <_sbrk_r>:
    968e:	1141                	addi	sp,sp,-16
    9690:	c422                	sw	s0,8(sp)
    9692:	842a                	mv	s0,a0
    9694:	852e                	mv	a0,a1
    9696:	1fff8797          	auipc	a5,0x1fff8
    969a:	4607a723          	sw	zero,1134(a5) # 20001b04 <errno>
    969e:	c606                	sw	ra,12(sp)
    96a0:	d51fd0ef          	jal	ra,73f0 <_sbrk>
    96a4:	57fd                	li	a5,-1
    96a6:	00f51963          	bne	a0,a5,96b8 <_sbrk_r+0x2a>
    96aa:	1fff8797          	auipc	a5,0x1fff8
    96ae:	45a78793          	addi	a5,a5,1114 # 20001b04 <errno>
    96b2:	439c                	lw	a5,0(a5)
    96b4:	c391                	beqz	a5,96b8 <_sbrk_r+0x2a>
    96b6:	c01c                	sw	a5,0(s0)
    96b8:	40b2                	lw	ra,12(sp)
    96ba:	4422                	lw	s0,8(sp)
    96bc:	0141                	addi	sp,sp,16
    96be:	8082                	ret

000096c0 <__sread>:
    96c0:	1141                	addi	sp,sp,-16
    96c2:	c422                	sw	s0,8(sp)
    96c4:	842e                	mv	s0,a1
    96c6:	00e59583          	lh	a1,14(a1)
    96ca:	c606                	sw	ra,12(sp)
    96cc:	2d99                	jal	9d22 <_read_r>
    96ce:	00054963          	bltz	a0,96e0 <__sread+0x20>
    96d2:	487c                	lw	a5,84(s0)
    96d4:	97aa                	add	a5,a5,a0
    96d6:	c87c                	sw	a5,84(s0)
    96d8:	40b2                	lw	ra,12(sp)
    96da:	4422                	lw	s0,8(sp)
    96dc:	0141                	addi	sp,sp,16
    96de:	8082                	ret
    96e0:	245e                	lhu	a5,12(s0)
    96e2:	777d                	lui	a4,0xfffff
    96e4:	177d                	addi	a4,a4,-1
    96e6:	8ff9                	and	a5,a5,a4
    96e8:	a45e                	sh	a5,12(s0)
    96ea:	b7fd                	j	96d8 <__sread+0x18>

000096ec <__swrite>:
    96ec:	25de                	lhu	a5,12(a1)
    96ee:	1101                	addi	sp,sp,-32
    96f0:	cc22                	sw	s0,24(sp)
    96f2:	ca26                	sw	s1,20(sp)
    96f4:	c84a                	sw	s2,16(sp)
    96f6:	c64e                	sw	s3,12(sp)
    96f8:	ce06                	sw	ra,28(sp)
    96fa:	1007f793          	andi	a5,a5,256
    96fe:	84aa                	mv	s1,a0
    9700:	842e                	mv	s0,a1
    9702:	8932                	mv	s2,a2
    9704:	89b6                	mv	s3,a3
    9706:	c791                	beqz	a5,9712 <__swrite+0x26>
    9708:	00e59583          	lh	a1,14(a1)
    970c:	4689                	li	a3,2
    970e:	4601                	li	a2,0
    9710:	290d                	jal	9b42 <_lseek_r>
    9712:	245e                	lhu	a5,12(s0)
    9714:	777d                	lui	a4,0xfffff
    9716:	177d                	addi	a4,a4,-1
    9718:	8ff9                	and	a5,a5,a4
    971a:	a45e                	sh	a5,12(s0)
    971c:	00e41583          	lh	a1,14(s0)
    9720:	4462                	lw	s0,24(sp)
    9722:	40f2                	lw	ra,28(sp)
    9724:	86ce                	mv	a3,s3
    9726:	864a                	mv	a2,s2
    9728:	49b2                	lw	s3,12(sp)
    972a:	4942                	lw	s2,16(sp)
    972c:	8526                	mv	a0,s1
    972e:	44d2                	lw	s1,20(sp)
    9730:	6105                	addi	sp,sp,32
    9732:	aa11                	j	9846 <_write_r>

00009734 <__sseek>:
    9734:	1141                	addi	sp,sp,-16
    9736:	c422                	sw	s0,8(sp)
    9738:	842e                	mv	s0,a1
    973a:	00e59583          	lh	a1,14(a1)
    973e:	c606                	sw	ra,12(sp)
    9740:	2109                	jal	9b42 <_lseek_r>
    9742:	57fd                	li	a5,-1
    9744:	245a                	lhu	a4,12(s0)
    9746:	00f51a63          	bne	a0,a5,975a <__sseek+0x26>
    974a:	77fd                	lui	a5,0xfffff
    974c:	17fd                	addi	a5,a5,-1
    974e:	8ff9                	and	a5,a5,a4
    9750:	a45e                	sh	a5,12(s0)
    9752:	40b2                	lw	ra,12(sp)
    9754:	4422                	lw	s0,8(sp)
    9756:	0141                	addi	sp,sp,16
    9758:	8082                	ret
    975a:	6785                	lui	a5,0x1
    975c:	8fd9                	or	a5,a5,a4
    975e:	a45e                	sh	a5,12(s0)
    9760:	c868                	sw	a0,84(s0)
    9762:	bfc5                	j	9752 <__sseek+0x1e>

00009764 <__sclose>:
    9764:	00e59583          	lh	a1,14(a1)
    9768:	ac09                	j	997a <_close_r>

0000976a <__swbuf_r>:
    976a:	1101                	addi	sp,sp,-32
    976c:	cc22                	sw	s0,24(sp)
    976e:	ca26                	sw	s1,20(sp)
    9770:	c84a                	sw	s2,16(sp)
    9772:	ce06                	sw	ra,28(sp)
    9774:	c64e                	sw	s3,12(sp)
    9776:	84aa                	mv	s1,a0
    9778:	892e                	mv	s2,a1
    977a:	8432                	mv	s0,a2
    977c:	c509                	beqz	a0,9786 <__swbuf_r+0x1c>
    977e:	4d1c                	lw	a5,24(a0)
    9780:	e399                	bnez	a5,9786 <__swbuf_r+0x1c>
    9782:	de6ff0ef          	jal	ra,8d68 <__sinit>
    9786:	00003797          	auipc	a5,0x3
    978a:	66678793          	addi	a5,a5,1638 # cdec <__sf_fake_stdin>
    978e:	06f41763          	bne	s0,a5,97fc <__swbuf_r+0x92>
    9792:	40c0                	lw	s0,4(s1)
    9794:	4c1c                	lw	a5,24(s0)
    9796:	c41c                	sw	a5,8(s0)
    9798:	245e                	lhu	a5,12(s0)
    979a:	8ba1                	andi	a5,a5,8
    979c:	c3c1                	beqz	a5,981c <__swbuf_r+0xb2>
    979e:	481c                	lw	a5,16(s0)
    97a0:	cfb5                	beqz	a5,981c <__swbuf_r+0xb2>
    97a2:	481c                	lw	a5,16(s0)
    97a4:	4008                	lw	a0,0(s0)
    97a6:	0ff97993          	andi	s3,s2,255
    97aa:	0ff97913          	andi	s2,s2,255
    97ae:	8d1d                	sub	a0,a0,a5
    97b0:	485c                	lw	a5,20(s0)
    97b2:	00f54663          	blt	a0,a5,97be <__swbuf_r+0x54>
    97b6:	85a2                	mv	a1,s0
    97b8:	8526                	mv	a0,s1
    97ba:	2605                	jal	9ada <_fflush_r>
    97bc:	e525                	bnez	a0,9824 <__swbuf_r+0xba>
    97be:	441c                	lw	a5,8(s0)
    97c0:	0505                	addi	a0,a0,1
    97c2:	17fd                	addi	a5,a5,-1
    97c4:	c41c                	sw	a5,8(s0)
    97c6:	401c                	lw	a5,0(s0)
    97c8:	00178713          	addi	a4,a5,1
    97cc:	c018                	sw	a4,0(s0)
    97ce:	01378023          	sb	s3,0(a5)
    97d2:	485c                	lw	a5,20(s0)
    97d4:	00a78863          	beq	a5,a0,97e4 <__swbuf_r+0x7a>
    97d8:	245e                	lhu	a5,12(s0)
    97da:	8b85                	andi	a5,a5,1
    97dc:	cb81                	beqz	a5,97ec <__swbuf_r+0x82>
    97de:	47a9                	li	a5,10
    97e0:	00f91663          	bne	s2,a5,97ec <__swbuf_r+0x82>
    97e4:	85a2                	mv	a1,s0
    97e6:	8526                	mv	a0,s1
    97e8:	2ccd                	jal	9ada <_fflush_r>
    97ea:	ed0d                	bnez	a0,9824 <__swbuf_r+0xba>
    97ec:	40f2                	lw	ra,28(sp)
    97ee:	4462                	lw	s0,24(sp)
    97f0:	854a                	mv	a0,s2
    97f2:	44d2                	lw	s1,20(sp)
    97f4:	4942                	lw	s2,16(sp)
    97f6:	49b2                	lw	s3,12(sp)
    97f8:	6105                	addi	sp,sp,32
    97fa:	8082                	ret
    97fc:	00003797          	auipc	a5,0x3
    9800:	61078793          	addi	a5,a5,1552 # ce0c <__sf_fake_stdout>
    9804:	00f41463          	bne	s0,a5,980c <__swbuf_r+0xa2>
    9808:	4480                	lw	s0,8(s1)
    980a:	b769                	j	9794 <__swbuf_r+0x2a>
    980c:	00003797          	auipc	a5,0x3
    9810:	5c078793          	addi	a5,a5,1472 # cdcc <__sf_fake_stderr>
    9814:	f8f410e3          	bne	s0,a5,9794 <__swbuf_r+0x2a>
    9818:	44c0                	lw	s0,12(s1)
    981a:	bfad                	j	9794 <__swbuf_r+0x2a>
    981c:	85a2                	mv	a1,s0
    981e:	8526                	mv	a0,s1
    9820:	28b1                	jal	987c <__swsetup_r>
    9822:	d141                	beqz	a0,97a2 <__swbuf_r+0x38>
    9824:	597d                	li	s2,-1
    9826:	b7d9                	j	97ec <__swbuf_r+0x82>

00009828 <__ascii_wctomb>:
    9828:	cd89                	beqz	a1,9842 <__ascii_wctomb+0x1a>
    982a:	0ff00793          	li	a5,255
    982e:	00c7f763          	bgeu	a5,a2,983c <__ascii_wctomb+0x14>
    9832:	08a00793          	li	a5,138
    9836:	c11c                	sw	a5,0(a0)
    9838:	557d                	li	a0,-1
    983a:	8082                	ret
    983c:	a190                	sb	a2,0(a1)
    983e:	4505                	li	a0,1
    9840:	8082                	ret
    9842:	4501                	li	a0,0
    9844:	8082                	ret

00009846 <_write_r>:
    9846:	1141                	addi	sp,sp,-16
    9848:	c422                	sw	s0,8(sp)
    984a:	842a                	mv	s0,a0
    984c:	852e                	mv	a0,a1
    984e:	85b2                	mv	a1,a2
    9850:	8636                	mv	a2,a3
    9852:	1fff8797          	auipc	a5,0x1fff8
    9856:	2a07a923          	sw	zero,690(a5) # 20001b04 <errno>
    985a:	c606                	sw	ra,12(sp)
    985c:	b57fd0ef          	jal	ra,73b2 <_write>
    9860:	57fd                	li	a5,-1
    9862:	00f51963          	bne	a0,a5,9874 <_write_r+0x2e>
    9866:	1fff8797          	auipc	a5,0x1fff8
    986a:	29e78793          	addi	a5,a5,670 # 20001b04 <errno>
    986e:	439c                	lw	a5,0(a5)
    9870:	c391                	beqz	a5,9874 <_write_r+0x2e>
    9872:	c01c                	sw	a5,0(s0)
    9874:	40b2                	lw	ra,12(sp)
    9876:	4422                	lw	s0,8(sp)
    9878:	0141                	addi	sp,sp,16
    987a:	8082                	ret

0000987c <__swsetup_r>:
    987c:	1141                	addi	sp,sp,-16
    987e:	82818793          	addi	a5,gp,-2008 # 20000348 <_impure_ptr>
    9882:	c226                	sw	s1,4(sp)
    9884:	4384                	lw	s1,0(a5)
    9886:	c422                	sw	s0,8(sp)
    9888:	c04a                	sw	s2,0(sp)
    988a:	c606                	sw	ra,12(sp)
    988c:	892a                	mv	s2,a0
    988e:	842e                	mv	s0,a1
    9890:	c491                	beqz	s1,989c <__swsetup_r+0x20>
    9892:	4c9c                	lw	a5,24(s1)
    9894:	e781                	bnez	a5,989c <__swsetup_r+0x20>
    9896:	8526                	mv	a0,s1
    9898:	cd0ff0ef          	jal	ra,8d68 <__sinit>
    989c:	00003797          	auipc	a5,0x3
    98a0:	55078793          	addi	a5,a5,1360 # cdec <__sf_fake_stdin>
    98a4:	02f41b63          	bne	s0,a5,98da <__swsetup_r+0x5e>
    98a8:	40c0                	lw	s0,4(s1)
    98aa:	00c41703          	lh	a4,12(s0)
    98ae:	01071793          	slli	a5,a4,0x10
    98b2:	83c1                	srli	a5,a5,0x10
    98b4:	0087f693          	andi	a3,a5,8
    98b8:	eaad                	bnez	a3,992a <__swsetup_r+0xae>
    98ba:	0107f693          	andi	a3,a5,16
    98be:	ee95                	bnez	a3,98fa <__swsetup_r+0x7e>
    98c0:	47a5                	li	a5,9
    98c2:	00f92023          	sw	a5,0(s2)
    98c6:	04076713          	ori	a4,a4,64
    98ca:	a45a                	sh	a4,12(s0)
    98cc:	557d                	li	a0,-1
    98ce:	40b2                	lw	ra,12(sp)
    98d0:	4422                	lw	s0,8(sp)
    98d2:	4492                	lw	s1,4(sp)
    98d4:	4902                	lw	s2,0(sp)
    98d6:	0141                	addi	sp,sp,16
    98d8:	8082                	ret
    98da:	00003797          	auipc	a5,0x3
    98de:	53278793          	addi	a5,a5,1330 # ce0c <__sf_fake_stdout>
    98e2:	00f41463          	bne	s0,a5,98ea <__swsetup_r+0x6e>
    98e6:	4480                	lw	s0,8(s1)
    98e8:	b7c9                	j	98aa <__swsetup_r+0x2e>
    98ea:	00003797          	auipc	a5,0x3
    98ee:	4e278793          	addi	a5,a5,1250 # cdcc <__sf_fake_stderr>
    98f2:	faf41ce3          	bne	s0,a5,98aa <__swsetup_r+0x2e>
    98f6:	44c0                	lw	s0,12(s1)
    98f8:	bf4d                	j	98aa <__swsetup_r+0x2e>
    98fa:	8b91                	andi	a5,a5,4
    98fc:	c39d                	beqz	a5,9922 <__swsetup_r+0xa6>
    98fe:	584c                	lw	a1,52(s0)
    9900:	c989                	beqz	a1,9912 <__swsetup_r+0x96>
    9902:	04440793          	addi	a5,s0,68
    9906:	00f58463          	beq	a1,a5,990e <__swsetup_r+0x92>
    990a:	854a                	mv	a0,s2
    990c:	26bd                	jal	9c7a <_free_r>
    990e:	02042a23          	sw	zero,52(s0)
    9912:	245e                	lhu	a5,12(s0)
    9914:	00042223          	sw	zero,4(s0)
    9918:	fdb7f793          	andi	a5,a5,-37
    991c:	a45e                	sh	a5,12(s0)
    991e:	481c                	lw	a5,16(s0)
    9920:	c01c                	sw	a5,0(s0)
    9922:	245e                	lhu	a5,12(s0)
    9924:	0087e793          	ori	a5,a5,8
    9928:	a45e                	sh	a5,12(s0)
    992a:	481c                	lw	a5,16(s0)
    992c:	eb99                	bnez	a5,9942 <__swsetup_r+0xc6>
    992e:	245e                	lhu	a5,12(s0)
    9930:	20000713          	li	a4,512
    9934:	2807f793          	andi	a5,a5,640
    9938:	00e78563          	beq	a5,a4,9942 <__swsetup_r+0xc6>
    993c:	85a2                	mv	a1,s0
    993e:	854a                	mv	a0,s2
    9940:	2471                	jal	9bcc <__smakebuf_r>
    9942:	245e                	lhu	a5,12(s0)
    9944:	0017f713          	andi	a4,a5,1
    9948:	c31d                	beqz	a4,996e <__swsetup_r+0xf2>
    994a:	485c                	lw	a5,20(s0)
    994c:	00042423          	sw	zero,8(s0)
    9950:	40f007b3          	neg	a5,a5
    9954:	cc1c                	sw	a5,24(s0)
    9956:	481c                	lw	a5,16(s0)
    9958:	4501                	li	a0,0
    995a:	fbb5                	bnez	a5,98ce <__swsetup_r+0x52>
    995c:	00c41783          	lh	a5,12(s0)
    9960:	0807f713          	andi	a4,a5,128
    9964:	d72d                	beqz	a4,98ce <__swsetup_r+0x52>
    9966:	0407e793          	ori	a5,a5,64
    996a:	a45e                	sh	a5,12(s0)
    996c:	b785                	j	98cc <__swsetup_r+0x50>
    996e:	8b89                	andi	a5,a5,2
    9970:	4701                	li	a4,0
    9972:	e391                	bnez	a5,9976 <__swsetup_r+0xfa>
    9974:	4858                	lw	a4,20(s0)
    9976:	c418                	sw	a4,8(s0)
    9978:	bff9                	j	9956 <__swsetup_r+0xda>

0000997a <_close_r>:
    997a:	1141                	addi	sp,sp,-16
    997c:	c422                	sw	s0,8(sp)
    997e:	842a                	mv	s0,a0
    9980:	852e                	mv	a0,a1
    9982:	1fff8797          	auipc	a5,0x1fff8
    9986:	1807a123          	sw	zero,386(a5) # 20001b04 <errno>
    998a:	c606                	sw	ra,12(sp)
    998c:	2135                	jal	9db8 <_close>
    998e:	57fd                	li	a5,-1
    9990:	00f51963          	bne	a0,a5,99a2 <_close_r+0x28>
    9994:	1fff8797          	auipc	a5,0x1fff8
    9998:	17078793          	addi	a5,a5,368 # 20001b04 <errno>
    999c:	439c                	lw	a5,0(a5)
    999e:	c391                	beqz	a5,99a2 <_close_r+0x28>
    99a0:	c01c                	sw	a5,0(s0)
    99a2:	40b2                	lw	ra,12(sp)
    99a4:	4422                	lw	s0,8(sp)
    99a6:	0141                	addi	sp,sp,16
    99a8:	8082                	ret

000099aa <__sflush_r>:
    99aa:	25de                	lhu	a5,12(a1)
    99ac:	1101                	addi	sp,sp,-32
    99ae:	cc22                	sw	s0,24(sp)
    99b0:	ca26                	sw	s1,20(sp)
    99b2:	ce06                	sw	ra,28(sp)
    99b4:	c84a                	sw	s2,16(sp)
    99b6:	c64e                	sw	s3,12(sp)
    99b8:	0087f713          	andi	a4,a5,8
    99bc:	84aa                	mv	s1,a0
    99be:	842e                	mv	s0,a1
    99c0:	eb79                	bnez	a4,9a96 <__sflush_r+0xec>
    99c2:	41d8                	lw	a4,4(a1)
    99c4:	00e04d63          	bgtz	a4,99de <__sflush_r+0x34>
    99c8:	41b8                	lw	a4,64(a1)
    99ca:	00e04a63          	bgtz	a4,99de <__sflush_r+0x34>
    99ce:	4501                	li	a0,0
    99d0:	40f2                	lw	ra,28(sp)
    99d2:	4462                	lw	s0,24(sp)
    99d4:	44d2                	lw	s1,20(sp)
    99d6:	4942                	lw	s2,16(sp)
    99d8:	49b2                	lw	s3,12(sp)
    99da:	6105                	addi	sp,sp,32
    99dc:	8082                	ret
    99de:	5458                	lw	a4,44(s0)
    99e0:	d77d                	beqz	a4,99ce <__sflush_r+0x24>
    99e2:	0004a903          	lw	s2,0(s1)
    99e6:	01379693          	slli	a3,a5,0x13
    99ea:	0004a023          	sw	zero,0(s1)
    99ee:	0606db63          	bgez	a3,9a64 <__sflush_r+0xba>
    99f2:	4870                	lw	a2,84(s0)
    99f4:	245e                	lhu	a5,12(s0)
    99f6:	8b91                	andi	a5,a5,4
    99f8:	c799                	beqz	a5,9a06 <__sflush_r+0x5c>
    99fa:	405c                	lw	a5,4(s0)
    99fc:	8e1d                	sub	a2,a2,a5
    99fe:	585c                	lw	a5,52(s0)
    9a00:	c399                	beqz	a5,9a06 <__sflush_r+0x5c>
    9a02:	403c                	lw	a5,64(s0)
    9a04:	8e1d                	sub	a2,a2,a5
    9a06:	545c                	lw	a5,44(s0)
    9a08:	500c                	lw	a1,32(s0)
    9a0a:	4681                	li	a3,0
    9a0c:	8526                	mv	a0,s1
    9a0e:	9782                	jalr	a5
    9a10:	57fd                	li	a5,-1
    9a12:	245a                	lhu	a4,12(s0)
    9a14:	00f51d63          	bne	a0,a5,9a2e <__sflush_r+0x84>
    9a18:	4094                	lw	a3,0(s1)
    9a1a:	47f5                	li	a5,29
    9a1c:	06d7e863          	bltu	a5,a3,9a8c <__sflush_r+0xe2>
    9a20:	204007b7          	lui	a5,0x20400
    9a24:	0785                	addi	a5,a5,1
    9a26:	00d7d7b3          	srl	a5,a5,a3
    9a2a:	8b85                	andi	a5,a5,1
    9a2c:	c3a5                	beqz	a5,9a8c <__sflush_r+0xe2>
    9a2e:	481c                	lw	a5,16(s0)
    9a30:	00042223          	sw	zero,4(s0)
    9a34:	c01c                	sw	a5,0(s0)
    9a36:	01371793          	slli	a5,a4,0x13
    9a3a:	0007d863          	bgez	a5,9a4a <__sflush_r+0xa0>
    9a3e:	57fd                	li	a5,-1
    9a40:	00f51463          	bne	a0,a5,9a48 <__sflush_r+0x9e>
    9a44:	409c                	lw	a5,0(s1)
    9a46:	e391                	bnez	a5,9a4a <__sflush_r+0xa0>
    9a48:	c868                	sw	a0,84(s0)
    9a4a:	584c                	lw	a1,52(s0)
    9a4c:	0124a023          	sw	s2,0(s1)
    9a50:	ddbd                	beqz	a1,99ce <__sflush_r+0x24>
    9a52:	04440793          	addi	a5,s0,68
    9a56:	00f58463          	beq	a1,a5,9a5e <__sflush_r+0xb4>
    9a5a:	8526                	mv	a0,s1
    9a5c:	2c39                	jal	9c7a <_free_r>
    9a5e:	02042a23          	sw	zero,52(s0)
    9a62:	b7b5                	j	99ce <__sflush_r+0x24>
    9a64:	500c                	lw	a1,32(s0)
    9a66:	4601                	li	a2,0
    9a68:	4685                	li	a3,1
    9a6a:	8526                	mv	a0,s1
    9a6c:	9702                	jalr	a4
    9a6e:	57fd                	li	a5,-1
    9a70:	862a                	mv	a2,a0
    9a72:	f8f511e3          	bne	a0,a5,99f4 <__sflush_r+0x4a>
    9a76:	409c                	lw	a5,0(s1)
    9a78:	dfb5                	beqz	a5,99f4 <__sflush_r+0x4a>
    9a7a:	4775                	li	a4,29
    9a7c:	00e78563          	beq	a5,a4,9a86 <__sflush_r+0xdc>
    9a80:	4759                	li	a4,22
    9a82:	04e79363          	bne	a5,a4,9ac8 <__sflush_r+0x11e>
    9a86:	0124a023          	sw	s2,0(s1)
    9a8a:	b791                	j	99ce <__sflush_r+0x24>
    9a8c:	04076713          	ori	a4,a4,64
    9a90:	a45a                	sh	a4,12(s0)
    9a92:	557d                	li	a0,-1
    9a94:	bf35                	j	99d0 <__sflush_r+0x26>
    9a96:	0105a983          	lw	s3,16(a1)
    9a9a:	f2098ae3          	beqz	s3,99ce <__sflush_r+0x24>
    9a9e:	0005a903          	lw	s2,0(a1)
    9aa2:	8b8d                	andi	a5,a5,3
    9aa4:	0135a023          	sw	s3,0(a1)
    9aa8:	41390933          	sub	s2,s2,s3
    9aac:	4701                	li	a4,0
    9aae:	e391                	bnez	a5,9ab2 <__sflush_r+0x108>
    9ab0:	49d8                	lw	a4,20(a1)
    9ab2:	c418                	sw	a4,8(s0)
    9ab4:	f1205de3          	blez	s2,99ce <__sflush_r+0x24>
    9ab8:	541c                	lw	a5,40(s0)
    9aba:	500c                	lw	a1,32(s0)
    9abc:	86ca                	mv	a3,s2
    9abe:	864e                	mv	a2,s3
    9ac0:	8526                	mv	a0,s1
    9ac2:	9782                	jalr	a5
    9ac4:	00a04763          	bgtz	a0,9ad2 <__sflush_r+0x128>
    9ac8:	245e                	lhu	a5,12(s0)
    9aca:	0407e793          	ori	a5,a5,64
    9ace:	a45e                	sh	a5,12(s0)
    9ad0:	b7c9                	j	9a92 <__sflush_r+0xe8>
    9ad2:	99aa                	add	s3,s3,a0
    9ad4:	40a90933          	sub	s2,s2,a0
    9ad8:	bff1                	j	9ab4 <__sflush_r+0x10a>

00009ada <_fflush_r>:
    9ada:	499c                	lw	a5,16(a1)
    9adc:	c3ad                	beqz	a5,9b3e <_fflush_r+0x64>
    9ade:	1101                	addi	sp,sp,-32
    9ae0:	cc22                	sw	s0,24(sp)
    9ae2:	ce06                	sw	ra,28(sp)
    9ae4:	842a                	mv	s0,a0
    9ae6:	c519                	beqz	a0,9af4 <_fflush_r+0x1a>
    9ae8:	4d1c                	lw	a5,24(a0)
    9aea:	e789                	bnez	a5,9af4 <_fflush_r+0x1a>
    9aec:	c62e                	sw	a1,12(sp)
    9aee:	a7aff0ef          	jal	ra,8d68 <__sinit>
    9af2:	45b2                	lw	a1,12(sp)
    9af4:	00003797          	auipc	a5,0x3
    9af8:	2f878793          	addi	a5,a5,760 # cdec <__sf_fake_stdin>
    9afc:	00f59c63          	bne	a1,a5,9b14 <_fflush_r+0x3a>
    9b00:	404c                	lw	a1,4(s0)
    9b02:	00c59783          	lh	a5,12(a1)
    9b06:	c79d                	beqz	a5,9b34 <_fflush_r+0x5a>
    9b08:	8522                	mv	a0,s0
    9b0a:	4462                	lw	s0,24(sp)
    9b0c:	40f2                	lw	ra,28(sp)
    9b0e:	6105                	addi	sp,sp,32
    9b10:	e9bff06f          	j	99aa <__sflush_r>
    9b14:	00003797          	auipc	a5,0x3
    9b18:	2f878793          	addi	a5,a5,760 # ce0c <__sf_fake_stdout>
    9b1c:	00f59463          	bne	a1,a5,9b24 <_fflush_r+0x4a>
    9b20:	440c                	lw	a1,8(s0)
    9b22:	b7c5                	j	9b02 <_fflush_r+0x28>
    9b24:	00003797          	auipc	a5,0x3
    9b28:	2a878793          	addi	a5,a5,680 # cdcc <__sf_fake_stderr>
    9b2c:	fcf59be3          	bne	a1,a5,9b02 <_fflush_r+0x28>
    9b30:	444c                	lw	a1,12(s0)
    9b32:	bfc1                	j	9b02 <_fflush_r+0x28>
    9b34:	40f2                	lw	ra,28(sp)
    9b36:	4462                	lw	s0,24(sp)
    9b38:	4501                	li	a0,0
    9b3a:	6105                	addi	sp,sp,32
    9b3c:	8082                	ret
    9b3e:	4501                	li	a0,0
    9b40:	8082                	ret

00009b42 <_lseek_r>:
    9b42:	1141                	addi	sp,sp,-16
    9b44:	c422                	sw	s0,8(sp)
    9b46:	842a                	mv	s0,a0
    9b48:	852e                	mv	a0,a1
    9b4a:	85b2                	mv	a1,a2
    9b4c:	8636                	mv	a2,a3
    9b4e:	1fff8797          	auipc	a5,0x1fff8
    9b52:	fa07ab23          	sw	zero,-74(a5) # 20001b04 <errno>
    9b56:	c606                	sw	ra,12(sp)
    9b58:	2c41                	jal	9de8 <_lseek>
    9b5a:	57fd                	li	a5,-1
    9b5c:	00f51963          	bne	a0,a5,9b6e <_lseek_r+0x2c>
    9b60:	1fff8797          	auipc	a5,0x1fff8
    9b64:	fa478793          	addi	a5,a5,-92 # 20001b04 <errno>
    9b68:	439c                	lw	a5,0(a5)
    9b6a:	c391                	beqz	a5,9b6e <_lseek_r+0x2c>
    9b6c:	c01c                	sw	a5,0(s0)
    9b6e:	40b2                	lw	ra,12(sp)
    9b70:	4422                	lw	s0,8(sp)
    9b72:	0141                	addi	sp,sp,16
    9b74:	8082                	ret

00009b76 <__swhatbuf_r>:
    9b76:	7119                	addi	sp,sp,-128
    9b78:	daa6                	sw	s1,116(sp)
    9b7a:	84ae                	mv	s1,a1
    9b7c:	00e59583          	lh	a1,14(a1)
    9b80:	dca2                	sw	s0,120(sp)
    9b82:	de86                	sw	ra,124(sp)
    9b84:	8432                	mv	s0,a2
    9b86:	0005db63          	bgez	a1,9b9c <__swhatbuf_r+0x26>
    9b8a:	24de                	lhu	a5,12(s1)
    9b8c:	0006a023          	sw	zero,0(a3)
    9b90:	0807f793          	andi	a5,a5,128
    9b94:	e39d                	bnez	a5,9bba <__swhatbuf_r+0x44>
    9b96:	40000793          	li	a5,1024
    9b9a:	a015                	j	9bbe <__swhatbuf_r+0x48>
    9b9c:	0830                	addi	a2,sp,24
    9b9e:	c636                	sw	a3,12(sp)
    9ba0:	2a5d                	jal	9d56 <_fstat_r>
    9ba2:	46b2                	lw	a3,12(sp)
    9ba4:	fe0543e3          	bltz	a0,9b8a <__swhatbuf_r+0x14>
    9ba8:	4772                	lw	a4,28(sp)
    9baa:	67bd                	lui	a5,0xf
    9bac:	8ff9                	and	a5,a5,a4
    9bae:	7779                	lui	a4,0xffffe
    9bb0:	97ba                	add	a5,a5,a4
    9bb2:	0017b793          	seqz	a5,a5
    9bb6:	c29c                	sw	a5,0(a3)
    9bb8:	bff9                	j	9b96 <__swhatbuf_r+0x20>
    9bba:	04000793          	li	a5,64
    9bbe:	c01c                	sw	a5,0(s0)
    9bc0:	50f6                	lw	ra,124(sp)
    9bc2:	5466                	lw	s0,120(sp)
    9bc4:	54d6                	lw	s1,116(sp)
    9bc6:	4501                	li	a0,0
    9bc8:	6109                	addi	sp,sp,128
    9bca:	8082                	ret

00009bcc <__smakebuf_r>:
    9bcc:	25de                	lhu	a5,12(a1)
    9bce:	1101                	addi	sp,sp,-32
    9bd0:	cc22                	sw	s0,24(sp)
    9bd2:	ce06                	sw	ra,28(sp)
    9bd4:	ca26                	sw	s1,20(sp)
    9bd6:	c84a                	sw	s2,16(sp)
    9bd8:	8b89                	andi	a5,a5,2
    9bda:	842e                	mv	s0,a1
    9bdc:	cf89                	beqz	a5,9bf6 <__smakebuf_r+0x2a>
    9bde:	04740793          	addi	a5,s0,71
    9be2:	c01c                	sw	a5,0(s0)
    9be4:	c81c                	sw	a5,16(s0)
    9be6:	4785                	li	a5,1
    9be8:	c85c                	sw	a5,20(s0)
    9bea:	40f2                	lw	ra,28(sp)
    9bec:	4462                	lw	s0,24(sp)
    9bee:	44d2                	lw	s1,20(sp)
    9bf0:	4942                	lw	s2,16(sp)
    9bf2:	6105                	addi	sp,sp,32
    9bf4:	8082                	ret
    9bf6:	0074                	addi	a3,sp,12
    9bf8:	0030                	addi	a2,sp,8
    9bfa:	84aa                	mv	s1,a0
    9bfc:	f7bff0ef          	jal	ra,9b76 <__swhatbuf_r>
    9c00:	45a2                	lw	a1,8(sp)
    9c02:	892a                	mv	s2,a0
    9c04:	8526                	mv	a0,s1
    9c06:	b10ff0ef          	jal	ra,8f16 <_malloc_r>
    9c0a:	e919                	bnez	a0,9c20 <__smakebuf_r+0x54>
    9c0c:	00c41783          	lh	a5,12(s0)
    9c10:	2007f713          	andi	a4,a5,512
    9c14:	fb79                	bnez	a4,9bea <__smakebuf_r+0x1e>
    9c16:	9bf1                	andi	a5,a5,-4
    9c18:	0027e793          	ori	a5,a5,2
    9c1c:	a45e                	sh	a5,12(s0)
    9c1e:	b7c1                	j	9bde <__smakebuf_r+0x12>
    9c20:	fffff797          	auipc	a5,0xfffff
    9c24:	0f878793          	addi	a5,a5,248 # 8d18 <_cleanup_r>
    9c28:	d49c                	sw	a5,40(s1)
    9c2a:	245e                	lhu	a5,12(s0)
    9c2c:	c008                	sw	a0,0(s0)
    9c2e:	c808                	sw	a0,16(s0)
    9c30:	0807e793          	ori	a5,a5,128
    9c34:	a45e                	sh	a5,12(s0)
    9c36:	47a2                	lw	a5,8(sp)
    9c38:	c85c                	sw	a5,20(s0)
    9c3a:	47b2                	lw	a5,12(sp)
    9c3c:	cb99                	beqz	a5,9c52 <__smakebuf_r+0x86>
    9c3e:	00e41583          	lh	a1,14(s0)
    9c42:	8526                	mv	a0,s1
    9c44:	2291                	jal	9d88 <_isatty_r>
    9c46:	c511                	beqz	a0,9c52 <__smakebuf_r+0x86>
    9c48:	245e                	lhu	a5,12(s0)
    9c4a:	9bf1                	andi	a5,a5,-4
    9c4c:	0017e793          	ori	a5,a5,1
    9c50:	a45e                	sh	a5,12(s0)
    9c52:	245e                	lhu	a5,12(s0)
    9c54:	00f96933          	or	s2,s2,a5
    9c58:	01241623          	sh	s2,12(s0)
    9c5c:	b779                	j	9bea <__smakebuf_r+0x1e>

00009c5e <memchr>:
    9c5e:	0ff5f593          	andi	a1,a1,255
    9c62:	962a                	add	a2,a2,a0
    9c64:	00c51463          	bne	a0,a2,9c6c <memchr+0xe>
    9c68:	4501                	li	a0,0
    9c6a:	8082                	ret
    9c6c:	211c                	lbu	a5,0(a0)
    9c6e:	feb78ee3          	beq	a5,a1,9c6a <memchr+0xc>
    9c72:	0505                	addi	a0,a0,1
    9c74:	bfc5                	j	9c64 <memchr+0x6>

00009c76 <__malloc_lock>:
    9c76:	8082                	ret

00009c78 <__malloc_unlock>:
    9c78:	8082                	ret

00009c7a <_free_r>:
    9c7a:	c1dd                	beqz	a1,9d20 <_free_r+0xa6>
    9c7c:	ffc5a783          	lw	a5,-4(a1)
    9c80:	1141                	addi	sp,sp,-16
    9c82:	c422                	sw	s0,8(sp)
    9c84:	c606                	sw	ra,12(sp)
    9c86:	c226                	sw	s1,4(sp)
    9c88:	ffc58413          	addi	s0,a1,-4
    9c8c:	0007d363          	bgez	a5,9c92 <_free_r+0x18>
    9c90:	943e                	add	s0,s0,a5
    9c92:	84aa                	mv	s1,a0
    9c94:	fe3ff0ef          	jal	ra,9c76 <__malloc_lock>
    9c98:	93818793          	addi	a5,gp,-1736 # 20000458 <__malloc_free_list>
    9c9c:	439c                	lw	a5,0(a5)
    9c9e:	ef81                	bnez	a5,9cb6 <_free_r+0x3c>
    9ca0:	00042223          	sw	zero,4(s0)
    9ca4:	9281ac23          	sw	s0,-1736(gp) # 20000458 <__malloc_free_list>
    9ca8:	4422                	lw	s0,8(sp)
    9caa:	40b2                	lw	ra,12(sp)
    9cac:	8526                	mv	a0,s1
    9cae:	4492                	lw	s1,4(sp)
    9cb0:	0141                	addi	sp,sp,16
    9cb2:	fc7ff06f          	j	9c78 <__malloc_unlock>
    9cb6:	00f47e63          	bgeu	s0,a5,9cd2 <_free_r+0x58>
    9cba:	4014                	lw	a3,0(s0)
    9cbc:	00d40733          	add	a4,s0,a3
    9cc0:	00e79663          	bne	a5,a4,9ccc <_free_r+0x52>
    9cc4:	4398                	lw	a4,0(a5)
    9cc6:	43dc                	lw	a5,4(a5)
    9cc8:	9736                	add	a4,a4,a3
    9cca:	c018                	sw	a4,0(s0)
    9ccc:	c05c                	sw	a5,4(s0)
    9cce:	bfd9                	j	9ca4 <_free_r+0x2a>
    9cd0:	87ba                	mv	a5,a4
    9cd2:	43d8                	lw	a4,4(a5)
    9cd4:	c319                	beqz	a4,9cda <_free_r+0x60>
    9cd6:	fee47de3          	bgeu	s0,a4,9cd0 <_free_r+0x56>
    9cda:	4394                	lw	a3,0(a5)
    9cdc:	00d78633          	add	a2,a5,a3
    9ce0:	00861f63          	bne	a2,s0,9cfe <_free_r+0x84>
    9ce4:	4010                	lw	a2,0(s0)
    9ce6:	96b2                	add	a3,a3,a2
    9ce8:	c394                	sw	a3,0(a5)
    9cea:	00d78633          	add	a2,a5,a3
    9cee:	fac71de3          	bne	a4,a2,9ca8 <_free_r+0x2e>
    9cf2:	4310                	lw	a2,0(a4)
    9cf4:	4358                	lw	a4,4(a4)
    9cf6:	96b2                	add	a3,a3,a2
    9cf8:	c394                	sw	a3,0(a5)
    9cfa:	c3d8                	sw	a4,4(a5)
    9cfc:	b775                	j	9ca8 <_free_r+0x2e>
    9cfe:	00c47563          	bgeu	s0,a2,9d08 <_free_r+0x8e>
    9d02:	47b1                	li	a5,12
    9d04:	c09c                	sw	a5,0(s1)
    9d06:	b74d                	j	9ca8 <_free_r+0x2e>
    9d08:	4010                	lw	a2,0(s0)
    9d0a:	00c406b3          	add	a3,s0,a2
    9d0e:	00d71663          	bne	a4,a3,9d1a <_free_r+0xa0>
    9d12:	4314                	lw	a3,0(a4)
    9d14:	4358                	lw	a4,4(a4)
    9d16:	96b2                	add	a3,a3,a2
    9d18:	c014                	sw	a3,0(s0)
    9d1a:	c058                	sw	a4,4(s0)
    9d1c:	c3c0                	sw	s0,4(a5)
    9d1e:	b769                	j	9ca8 <_free_r+0x2e>
    9d20:	8082                	ret

00009d22 <_read_r>:
    9d22:	1141                	addi	sp,sp,-16
    9d24:	c422                	sw	s0,8(sp)
    9d26:	842a                	mv	s0,a0
    9d28:	852e                	mv	a0,a1
    9d2a:	85b2                	mv	a1,a2
    9d2c:	8636                	mv	a2,a3
    9d2e:	1fff8797          	auipc	a5,0x1fff8
    9d32:	dc07ab23          	sw	zero,-554(a5) # 20001b04 <errno>
    9d36:	c606                	sw	ra,12(sp)
    9d38:	20c1                	jal	9df8 <_read>
    9d3a:	57fd                	li	a5,-1
    9d3c:	00f51963          	bne	a0,a5,9d4e <_read_r+0x2c>
    9d40:	1fff8797          	auipc	a5,0x1fff8
    9d44:	dc478793          	addi	a5,a5,-572 # 20001b04 <errno>
    9d48:	439c                	lw	a5,0(a5)
    9d4a:	c391                	beqz	a5,9d4e <_read_r+0x2c>
    9d4c:	c01c                	sw	a5,0(s0)
    9d4e:	40b2                	lw	ra,12(sp)
    9d50:	4422                	lw	s0,8(sp)
    9d52:	0141                	addi	sp,sp,16
    9d54:	8082                	ret

00009d56 <_fstat_r>:
    9d56:	1141                	addi	sp,sp,-16
    9d58:	c422                	sw	s0,8(sp)
    9d5a:	842a                	mv	s0,a0
    9d5c:	852e                	mv	a0,a1
    9d5e:	85b2                	mv	a1,a2
    9d60:	1fff8797          	auipc	a5,0x1fff8
    9d64:	da07a223          	sw	zero,-604(a5) # 20001b04 <errno>
    9d68:	c606                	sw	ra,12(sp)
    9d6a:	28b9                	jal	9dc8 <_fstat>
    9d6c:	57fd                	li	a5,-1
    9d6e:	00f51963          	bne	a0,a5,9d80 <_fstat_r+0x2a>
    9d72:	1fff8797          	auipc	a5,0x1fff8
    9d76:	d9278793          	addi	a5,a5,-622 # 20001b04 <errno>
    9d7a:	439c                	lw	a5,0(a5)
    9d7c:	c391                	beqz	a5,9d80 <_fstat_r+0x2a>
    9d7e:	c01c                	sw	a5,0(s0)
    9d80:	40b2                	lw	ra,12(sp)
    9d82:	4422                	lw	s0,8(sp)
    9d84:	0141                	addi	sp,sp,16
    9d86:	8082                	ret

00009d88 <_isatty_r>:
    9d88:	1141                	addi	sp,sp,-16
    9d8a:	c422                	sw	s0,8(sp)
    9d8c:	842a                	mv	s0,a0
    9d8e:	852e                	mv	a0,a1
    9d90:	1fff8797          	auipc	a5,0x1fff8
    9d94:	d607aa23          	sw	zero,-652(a5) # 20001b04 <errno>
    9d98:	c606                	sw	ra,12(sp)
    9d9a:	283d                	jal	9dd8 <_isatty>
    9d9c:	57fd                	li	a5,-1
    9d9e:	00f51963          	bne	a0,a5,9db0 <_isatty_r+0x28>
    9da2:	1fff8797          	auipc	a5,0x1fff8
    9da6:	d6278793          	addi	a5,a5,-670 # 20001b04 <errno>
    9daa:	439c                	lw	a5,0(a5)
    9dac:	c391                	beqz	a5,9db0 <_isatty_r+0x28>
    9dae:	c01c                	sw	a5,0(s0)
    9db0:	40b2                	lw	ra,12(sp)
    9db2:	4422                	lw	s0,8(sp)
    9db4:	0141                	addi	sp,sp,16
    9db6:	8082                	ret

00009db8 <_close>:
    9db8:	05800793          	li	a5,88
    9dbc:	1fff8717          	auipc	a4,0x1fff8
    9dc0:	d4f72423          	sw	a5,-696(a4) # 20001b04 <errno>
    9dc4:	557d                	li	a0,-1
    9dc6:	8082                	ret

00009dc8 <_fstat>:
    9dc8:	05800793          	li	a5,88
    9dcc:	1fff8717          	auipc	a4,0x1fff8
    9dd0:	d2f72c23          	sw	a5,-712(a4) # 20001b04 <errno>
    9dd4:	557d                	li	a0,-1
    9dd6:	8082                	ret

00009dd8 <_isatty>:
    9dd8:	05800793          	li	a5,88
    9ddc:	1fff8717          	auipc	a4,0x1fff8
    9de0:	d2f72423          	sw	a5,-728(a4) # 20001b04 <errno>
    9de4:	4501                	li	a0,0
    9de6:	8082                	ret

00009de8 <_lseek>:
    9de8:	05800793          	li	a5,88
    9dec:	1fff8717          	auipc	a4,0x1fff8
    9df0:	d0f72c23          	sw	a5,-744(a4) # 20001b04 <errno>
    9df4:	557d                	li	a0,-1
    9df6:	8082                	ret

00009df8 <_read>:
    9df8:	05800793          	li	a5,88
    9dfc:	1fff8717          	auipc	a4,0x1fff8
    9e00:	d0f72423          	sw	a5,-760(a4) # 20001b04 <errno>
    9e04:	557d                	li	a0,-1
    9e06:	8082                	ret
    9e08:	a8f0                	sb	a2,22(s1)
    9e0a:	0000                	unimp
    9e0c:	a904                	sb	s1,16(a0)
    9e0e:	0000                	unimp
    9e10:	a914                	sb	a3,16(a0)
    9e12:	0000                	unimp
    9e14:	a928                	sb	a0,18(a0)
    9e16:	0000                	unimp
    9e18:	a934                	sb	a3,18(a0)
    9e1a:	0000                	unimp
    9e1c:	a940                	sb	s0,20(a0)
    9e1e:	0000                	unimp
    9e20:	a944                	sb	s1,20(a0)
    9e22:	0000                	unimp
    9e24:	a954                	sb	a3,20(a0)
    9e26:	0000                	unimp
    9e28:	a964                	sb	s1,22(a0)
    9e2a:	0000                	unimp
    9e2c:	a96c                	sb	a1,22(a0)
    9e2e:	0000                	unimp
    9e30:	a980                	sb	s0,16(a1)
    9e32:	0000                	unimp
    9e34:	a990                	sb	a2,16(a1)
    9e36:	0000                	unimp
    9e38:	a998                	sb	a4,16(a1)
    9e3a:	0000                	unimp
    9e3c:	a9a4                	sb	s1,18(a1)
    9e3e:	0000                	unimp
    9e40:	a9b0                	sb	a2,18(a1)
    9e42:	0000                	unimp
    9e44:	a9c4                	sb	s1,20(a1)
    9e46:	0000                	unimp
    9e48:	a9cc                	sb	a1,20(a1)
    9e4a:	0000                	unimp
    9e4c:	a9dc                	sb	a5,20(a1)
    9e4e:	0000                	unimp
    9e50:	a9ec                	sb	a1,22(a1)
    9e52:	0000                	unimp
    9e54:	aa04                	sb	s1,16(a2)
    9e56:	0000                	unimp
    9e58:	0c2b310f          	0xc2b310f
    9e5c:	080e                	slli	a6,a6,0x3
    9e5e:	f14e                	fsw	fs3,160(sp)
    9e60:	03100737          	lui	a4,0x3100
    9e64:	090e                	slli	s2,s2,0x3
    9e66:	0000                	unimp
    9e68:	0e00                	addi	s0,sp,784
    9e6a:	0314                	addi	a3,sp,384
    9e6c:	0711                	addi	a4,a4,4
    9e6e:	c131                	beqz	a0,9eb2 <_read+0xba>
    9e70:	0848                	addi	a0,sp,20
    9e72:	36310c0f          	0x36310c0f
    9e76:	616d000f          	0x616d000f
    9e7a:	6e69                	lui	t3,0x1a
    9e7c:	0000                	unimp
    9e7e:	0000                	unimp
    9e80:	6f54                	flw	fa3,28(a4)
    9e82:	6920                	flw	fs0,80(a0)
    9e84:	696e                	flw	fs2,216(sp)
    9e86:	6974                	flw	fa3,84(a0)
    9e88:	6c61                	lui	s8,0x18
    9e8a:	7a69                	lui	s4,0xffffa
    9e8c:	2065                	jal	9f34 <__lowest_bit_bitmap+0x74>
    9e8e:	6564                	flw	fs1,76(a0)
    9e90:	6976                	flw	fs2,92(sp)
    9e92:	253a6563          	bltu	s4,s3,a0dc <__fsym_list_mem_desc+0x1c>
    9e96:	61662073          	csrs	0x616,a2
    9e9a:	6c69                	lui	s8,0x1a
    9e9c:	6465                	lui	s0,0x19
    9e9e:	202e                	lhu	a1,2(s0)
    9ea0:	6854                	flw	fa3,20(s0)
    9ea2:	2065                	jal	9f4a <__lowest_bit_bitmap+0x8a>
    9ea4:	7265                	lui	tp,0xffff9
    9ea6:	6f72                	flw	ft10,28(sp)
    9ea8:	2072                	lhu	a2,6(s0)
    9eaa:	65646f63          	bltu	s0,s6,a508 <__fsym_list_mem_name+0x428>
    9eae:	6920                	flw	fs0,80(a0)
    9eb0:	64252073          	csrs	0x642,a0
    9eb4:	000a                	c.slli	zero,0x2
    9eb6:	0000                	unimp
    9eb8:	6974                	flw	fa3,84(a0)
    9eba:	6c64                	flw	fs1,92(s0)
    9ebc:	0065                	c.nop	25
	...

00009ec0 <__lowest_bit_bitmap>:
    9ec0:	0000 0001 0002 0001 0003 0001 0002 0001     ................
    9ed0:	0004 0001 0002 0001 0003 0001 0002 0001     ................
    9ee0:	0005 0001 0002 0001 0003 0001 0002 0001     ................
    9ef0:	0004 0001 0002 0001 0003 0001 0002 0001     ................
    9f00:	0006 0001 0002 0001 0003 0001 0002 0001     ................
    9f10:	0004 0001 0002 0001 0003 0001 0002 0001     ................
    9f20:	0005 0001 0002 0001 0003 0001 0002 0001     ................
    9f30:	0004 0001 0002 0001 0003 0001 0002 0001     ................
    9f40:	0007 0001 0002 0001 0003 0001 0002 0001     ................
    9f50:	0004 0001 0002 0001 0003 0001 0002 0001     ................
    9f60:	0005 0001 0002 0001 0003 0001 0002 0001     ................
    9f70:	0004 0001 0002 0001 0003 0001 0002 0001     ................
    9f80:	0006 0001 0002 0001 0003 0001 0002 0001     ................
    9f90:	0004 0001 0002 0001 0003 0001 0002 0001     ................
    9fa0:	0005 0001 0002 0001 0003 0001 0002 0001     ................
    9fb0:	0004 0001 0002 0001 0003 0001 0002 0001     ................

00009fc0 <large_digits.2583>:
    9fc0:	3130 3332 3534 3736 3938 4241 4443 4645     0123456789ABCDEF
    9fd0:	0000 0000 200a 205c 207c 0a2f 0000 0000     ..... \ | /.....
    9fe0:	202d 5452 2d20 2020 2020 5420 7268 6165     - RT -     Threa
    9ff0:	2064 704f 7265 7461 6e69 2067 7953 7473     d Operating Syst
    a000:	6d65 000a 7541 2067 3720 3220 3230 0032     em..Aug  7 2022.
    a010:	2f20 7c20 5c20 2020 2020 2520 2e64 6425      / | \     %d.%d
    a020:	252e 2064 7562 6c69 2064 7325 000a 0000     .%d build %s....
    a030:	3220 3030 2036 202d 3032 3931 4320 706f      2006 - 2019 Cop
    a040:	7279 6769 7468 6220 2079 7472 742d 7268     yright by rt-thr
    a050:	6165 2064 6574 6d61 000a 0000 4e28 4c55     ead team....(NUL
    a060:	294c 0000                                   L)..

0000a064 <small_digits.2582>:
    a064:	3130 3332 3534 3736 3938 6261 6463 6665     0123456789abcdef
    a074:	0000 0000 6f74 6174 206c 656d 6f6d 7972     ....total memory
    a084:	203a 6425 000a 0000 7375 6465 6d20 6d65     : %d....used mem
    a094:	726f 2079 203a 6425 000a 0000 616d 6978     ory : %d....maxi
    a0a4:	756d 206d 6c61 6f6c 6163 6574 2064 656d     mum allocated me
    a0b4:	6f6d 7972 203a 6425 000a 0000               mory: %d....

0000a0c0 <__fsym_list_mem_desc>:
    a0c0:	696c 7473 6d20 6d65 726f 2079 7375 6761     list memory usag
    a0d0:	2065 6e69 6f66 6d72 7461 6f69 006e 0000     e information...

0000a0e0 <__fsym_list_mem_name>:
    a0e0:	696c 7473 6d5f 6d65 0000 0000 6f74 6620     list_mem....to f
    a0f0:	6572 2065 2061 6162 2064 6164 6174 6220     ree a bad data b
    a100:	6f6c 6b63 0a3a 0000 656d 3a6d 3020 2578     lock:...mem: 0x%
    a110:	3830 2c78 7520 6573 2064 6c66 6761 203a     08x, used flag: 
    a120:	6425 202c 616d 6967 2063 6f63 6564 203a     %d, magic code: 
    a130:	7830 3025 7834 000a 6568 7061 0000 0000     0x%04x..heap....
    a140:	656d 206d 6e69 7469 202c 7265 6f72 2072     mem init, error 
    a150:	6562 6967 206e 6461 7264 7365 2073 7830     begin address 0x
    a160:	7825 202c 6e61 2064 6e65 2064 6461 7264     %x, and end addr
    a170:	7365 2073 7830 7825 000a 0000 5b1b 4a32     ess 0x%x.....[2J
    a180:	5b1b 0048 2d2d 7546 636e 6974 6e6f 4c20     .[H.--Function L
    a190:	7369 3a74 000a 0000 5f5f 0000 2d25 3631     ist:....__..%-16
    a1a0:	2073 2d2d 2520 0a73 0000 0000 6564 6976     s -- %s.....devi
    a1b0:	6563 0000 2d25 2e2a 2073 2020 2020 2020     ce..%-*.s       
    a1c0:	2020 7974 6570 2020 2020 2020 2020 7220       type         r
    a1d0:	6665 6320 756f 746e 000a 0000 2d20 2d2d     ef count.... ---
    a1e0:	2d2d 2d2d 2d2d 2d2d 2d2d 2d2d 2d2d 2d2d     ----------------
    a1f0:	202d 2d2d 2d2d 2d2d 2d2d 2d2d 000a 0000     - ----------....
    a200:	2d25 2e2a 732a 2520 322d 7330 2520 382d     %-*.*s %-20s %-8
    a210:	0a64 0000 7665 6e65 0074 0000 2d25 2e2a     d...event...%-*.
    a220:	2073 2020 2020 7320 7465 2020 2020 7573     s      set    su
    a230:	7073 6e65 2064 6874 6572 6461 000a 0000     spend thread....
    a240:	2020 2d2d 2d2d 2d2d 2d2d 2d2d 2d20 2d2d       ---------- ---
    a250:	2d2d 2d2d 2d2d 2d2d 2d2d 0a2d 0000 0000     -----------.....
    a260:	2d25 2e2a 732a 2020 7830 3025 7838 2520     %-*.*s  0x%08x %
    a270:	3330 3a64 0000 0000 2d25 2e2a 732a 2020     03d:....%-*.*s  
    a280:	7830 3025 7838 3020 000a 0000 616d 6c69     0x%08x 0....mail
    a290:	6f62 0078 2d25 2e2a 2073 6e65 7274 2079     box.%-*.s entry 
    a2a0:	6973 657a 7320 7375 6570 646e 7420 7268     size suspend thr
    a2b0:	6165 0a64 0000 0000 2d20 2d2d 202d 2d20     ead..... ----  -
    a2c0:	2d2d 202d 2d2d 2d2d 2d2d 2d2d 2d2d 2d2d     --- ------------
    a2d0:	2d2d 000a 2d25 2e2a 732a 2520 3430 2064     --..%-*.*s %04d 
    a2e0:	2520 3430 2064 6425 003a 0000 2d25 2e2a      %04d %d:...%-*.
    a2f0:	732a 2520 3430 2064 2520 3430 2064 6425     *s %04d  %04d %d
    a300:	000a 0000 736d 7167 6575 6575 0000 0000     ....msgqueue....
    a310:	2d25 2e2a 2073 6e65 7274 2079 7573 7073     %-*.s entry susp
    a320:	6e65 2064 6874 6572 6461 000a 2d20 2d2d     end thread.. ---
    a330:	202d 2d20 2d2d 2d2d 2d2d 2d2d 2d2d 2d2d     -  -------------
    a340:	0a2d 0000 2d25 2e2a 732a 2520 3430 2064     -...%-*.*s %04d 
    a350:	2520 3a64 0000 0000 2d25 2e2a 732a 2520      %d:....%-*.*s %
    a360:	3430 2064 2520 0a64 0000 0000 756d 6574     04d  %d.....mute
    a370:	0078 0000 2d25 2e2a 2073 2020 776f 656e     x...%-*.s   owne
    a380:	2072 6820 6c6f 2064 7573 7073 6e65 2064     r  hold suspend 
    a390:	6874 6572 6461 000a 2d20 2d2d 2d2d 2d2d     thread.. -------
    a3a0:	202d 2d2d 2d2d 2d20 2d2d 2d2d 2d2d 2d2d     - ---- ---------
    a3b0:	2d2d 2d2d 0a2d 0000 2d25 2e2a 732a 2520     -----...%-*.*s %
    a3c0:	382d 2a2e 2073 3025 6434 2520 0a64 0000     -8.*s %04d %d...
    a3d0:	6573 616d 6870 726f 0065 0000 2d25 2e2a     semaphore...%-*.
    a3e0:	2073 2076 2020 7573 7073 6e65 2064 6874     s v   suspend th
    a3f0:	6572 6461 000a 0000 2d20 2d2d 2d20 2d2d     read.... --- ---
    a400:	2d2d 2d2d 2d2d 2d2d 2d2d 0a2d 0000 0000     -----------.....
    a410:	2d25 2e2a 732a 2520 3330 2064 6425 003a     %-*.*s %03d %d:.
    a420:	2d25 2e2a 732a 2520 3330 2064 6425 000a     %-*.*s %03d %d..
    a430:	6874 6572 6461 0000 2d25 2e2a 2073 7270     thread..%-*.s pr
    a440:	2069 7320 6174 7574 2073 2020 2020 7320     i  status      s
    a450:	2070 2020 2020 7473 6361 206b 6973 657a     p     stack size
    a460:	6d20 7861 7520 6573 2064 656c 7466 7420      max used left t
    a470:	6369 206b 6520 7272 726f 000a 2d20 2d2d     ick  error.. ---
    a480:	2020 2d2d 2d2d 2d2d 202d 2d2d 2d2d 2d2d       ------- ------
    a490:	2d2d 2d2d 2d20 2d2d 2d2d 2d2d 2d2d 202d     ---- ---------- 
    a4a0:	2d20 2d2d 2d2d 202d 2d20 2d2d 2d2d 2d2d      ------  -------
    a4b0:	2d2d 202d 2d2d 0a2d 0000 0000 2d25 2e2a     --- ---.....%-*.
    a4c0:	732a 2520 6433 0020 7220 6165 7964 2020     *s %3d . ready  
    a4d0:	0000 0000 7320 7375 6570 646e 0000 0000     .... suspend....
    a4e0:	6920 696e 2074 2020 0000 0000 6320 6f6c      init   .... clo
    a4f0:	6573 2020 0000 0000 3020 2578 3830 2078     se  .... 0x%08x 
    a500:	7830 3025 7838 2020 2020 3025 6432 2525     0x%08x    %02d%%
    a510:	2020 3020 2578 3830 2078 3025 6433 000a        0x%08x %03d..
    a520:	6974 656d 0072 0000 2d25 2e2a 2073 7020     timer...%-*.s  p
    a530:	7265 6f69 6964 2063 2020 6974 656d 756f     eriodic   timeou
    a540:	2074 2020 2020 2020 6c66 6761 000a 0000     t       flag....
    a550:	2d20 2d2d 2d2d 2d2d 2d2d 202d 2d2d 2d2d      ---------- ----
    a560:	2d2d 2d2d 2d2d 2d20 2d2d 2d2d 2d2d 2d2d     ------ ---------
    a570:	2d2d 000a 2d25 2e2a 732a 3020 2578 3830     --..%-*.*s 0x%08
    a580:	2078 7830 3025 7838 0020 0000 6361 6974     x 0x%08x ...acti
    a590:	6176 6574 0a64 0000 6564 6361 6974 6176     vated...deactiva
    a5a0:	6574 0a64 0000 0000 7563 7272 6e65 2074     ted.....current 
    a5b0:	6974 6b63 303a 2578 3830 0a78 0000 0000     tick:0x%08x.....

0000a5c0 <__fsym_list_desc>:
    a5c0:	696c 7473 6120 6c6c 7320 6d79 6f62 206c     list all symbol 
    a5d0:	6e69 7320 7379 6574 006d 0000               in system...

0000a5dc <__fsym_list_name>:
    a5dc:	696c 7473 0000 0000                         list....

0000a5e4 <__fsym___cmd_list_device_desc>:
    a5e4:	696c 7473 6420 7665 6369 2065 6e69 7320     list device in s
    a5f4:	7379 6574 006d 0000                         ystem...

0000a5fc <__fsym___cmd_list_device_name>:
    a5fc:	5f5f 6d63 5f64 696c 7473 645f 7665 6369     __cmd_list_devic
    a60c:	0065 0000                                   e...

0000a610 <__fsym_list_device_desc>:
    a610:	696c 7473 6420 7665 6369 2065 6e69 7320     list device in s
    a620:	7379 6574 006d 0000                         ystem...

0000a628 <__fsym_list_device_name>:
    a628:	696c 7473 645f 7665 6369 0065               list_device.

0000a634 <__fsym___cmd_list_timer_desc>:
    a634:	696c 7473 7420 6d69 7265 6920 206e 7973     list timer in sy
    a644:	7473 6d65 0000 0000                         stem....

0000a64c <__fsym___cmd_list_timer_name>:
    a64c:	5f5f 6d63 5f64 696c 7473 745f 6d69 7265     __cmd_list_timer
    a65c:	0000 0000                                   ....

0000a660 <__fsym_list_timer_desc>:
    a660:	696c 7473 7420 6d69 7265 6920 206e 7973     list timer in sy
    a670:	7473 6d65 0000 0000                         stem....

0000a678 <__fsym_list_timer_name>:
    a678:	696c 7473 745f 6d69 7265 0000               list_timer..

0000a684 <__fsym___cmd_list_msgqueue_desc>:
    a684:	696c 7473 6d20 7365 6173 6567 7120 6575     list message que
    a694:	6575 6920 206e 7973 7473 6d65 0000 0000     ue in system....

0000a6a4 <__fsym___cmd_list_msgqueue_name>:
    a6a4:	5f5f 6d63 5f64 696c 7473 6d5f 6773 7571     __cmd_list_msgqu
    a6b4:	7565 0065                                   eue.

0000a6b8 <__fsym_list_msgqueue_desc>:
    a6b8:	696c 7473 6d20 7365 6173 6567 7120 6575     list message que
    a6c8:	6575 6920 206e 7973 7473 6d65 0000 0000     ue in system....

0000a6d8 <__fsym_list_msgqueue_name>:
    a6d8:	696c 7473 6d5f 6773 7571 7565 0065 0000     list_msgqueue...

0000a6e8 <__fsym___cmd_list_mailbox_desc>:
    a6e8:	696c 7473 6d20 6961 206c 6f62 2078 6e69     list mail box in
    a6f8:	7320 7379 6574 006d                          system.

0000a700 <__fsym___cmd_list_mailbox_name>:
    a700:	5f5f 6d63 5f64 696c 7473 6d5f 6961 626c     __cmd_list_mailb
    a710:	786f 0000                                   ox..

0000a714 <__fsym_list_mailbox_desc>:
    a714:	696c 7473 6d20 6961 206c 6f62 2078 6e69     list mail box in
    a724:	7320 7379 6574 006d                          system.

0000a72c <__fsym_list_mailbox_name>:
    a72c:	696c 7473 6d5f 6961 626c 786f 0000 0000     list_mailbox....

0000a73c <__fsym___cmd_list_mutex_desc>:
    a73c:	696c 7473 6d20 7475 7865 6920 206e 7973     list mutex in sy
    a74c:	7473 6d65 0000 0000                         stem....

0000a754 <__fsym___cmd_list_mutex_name>:
    a754:	5f5f 6d63 5f64 696c 7473 6d5f 7475 7865     __cmd_list_mutex
    a764:	0000 0000                                   ....

0000a768 <__fsym_list_mutex_desc>:
    a768:	696c 7473 6d20 7475 7865 6920 206e 7973     list mutex in sy
    a778:	7473 6d65 0000 0000                         stem....

0000a780 <__fsym_list_mutex_name>:
    a780:	696c 7473 6d5f 7475 7865 0000               list_mutex..

0000a78c <__fsym___cmd_list_event_desc>:
    a78c:	696c 7473 6520 6576 746e 6920 206e 7973     list event in sy
    a79c:	7473 6d65 0000 0000                         stem....

0000a7a4 <__fsym___cmd_list_event_name>:
    a7a4:	5f5f 6d63 5f64 696c 7473 655f 6576 746e     __cmd_list_event
    a7b4:	0000 0000                                   ....

0000a7b8 <__fsym_list_event_desc>:
    a7b8:	696c 7473 6520 6576 746e 6920 206e 7973     list event in sy
    a7c8:	7473 6d65 0000 0000                         stem....

0000a7d0 <__fsym_list_event_name>:
    a7d0:	696c 7473 655f 6576 746e 0000               list_event..

0000a7dc <__fsym___cmd_list_sem_desc>:
    a7dc:	696c 7473 7320 6d65 7061 6f68 6572 6920     list semaphore i
    a7ec:	206e 7973 7473 6d65 0000 0000               n system....

0000a7f8 <__fsym___cmd_list_sem_name>:
    a7f8:	5f5f 6d63 5f64 696c 7473 735f 6d65 0000     __cmd_list_sem..

0000a808 <__fsym_list_sem_desc>:
    a808:	696c 7473 7320 6d65 7061 6f68 656e 6920     list semaphone i
    a818:	206e 7973 7473 6d65 0000 0000               n system....

0000a824 <__fsym_list_sem_name>:
    a824:	696c 7473 735f 6d65 0000 0000               list_sem....

0000a830 <__fsym___cmd_list_thread_desc>:
    a830:	696c 7473 7420 7268 6165 0064               list thread.

0000a83c <__fsym___cmd_list_thread_name>:
    a83c:	5f5f 6d63 5f64 696c 7473 745f 7268 6165     __cmd_list_threa
    a84c:	0064 0000                                   d...

0000a850 <__fsym_list_thread_desc>:
    a850:	696c 7473 7420 7268 6165 0064               list thread.

0000a85c <__fsym_list_thread_name>:
    a85c:	696c 7473 745f 7268 6165 0064               list_thread.

0000a868 <__fsym___cmd_clear_desc>:
    a868:	6874 2065 6574 6d72 6e69 6c61 7320 7263     the terminal scr
    a878:	6565 006e                                   een.

0000a87c <__fsym___cmd_clear_name>:
    a87c:	5f5f 6d63 5f64 6c63 6165 0072               __cmd_clear.

0000a888 <__fsym_clear_desc>:
    a888:	6874 2065 6574 6d72 6e69 6c61 7320 7263     the terminal scr
    a898:	6565 006e                                   een.

0000a89c <__fsym_clear_name>:
    a89c:	6c63 6165 0072 0000                         clear...

0000a8a4 <__fsym___cmd_reboot_desc>:
    a8a4:	6572 6f62 746f 7420 6568 6220 616f 6472     reboot the board
    a8b4:	0000 0000                                   ....

0000a8b8 <__fsym___cmd_reboot_name>:
    a8b8:	5f5f 6d63 5f64 6572 6f62 746f 0000 0000     __cmd_reboot....

0000a8c8 <__fsym_reboot_desc>:
    a8c8:	6572 6f62 746f 7420 6568 6220 616f 6472     reboot the board
    a8d8:	0000 0000                                   ....

0000a8dc <__fsym_reboot_name>:
    a8dc:	6572 6f62 746f 0000 002d 0000 7325 0000     reboot..-...%s..
    a8ec:	002f 0000 6843 7261 6361 6574 2072 6544     /...Character De
    a8fc:	6976 6563 0000 0000 6c42 636f 206b 6544     vice....Block De
    a90c:	6976 6563 0000 0000 654e 7774 726f 206b     vice....Network 
    a91c:	6e49 6574 6672 6361 0065 0000 544d 2044     Interface...MTD 
    a92c:	6544 6976 6563 0000 4143 204e 6544 6976     Device..CAN Devi
    a93c:	6563 0000 5452 0043 6f53 6e75 2064 6544     ce..RTC.Sound De
    a94c:	6976 6563 0000 0000 7247 7061 6968 2063     vice....Graphic 
    a95c:	6544 6976 6563 0000 3249 2043 7542 0073     Device..I2C Bus.
    a96c:	5355 2042 6c53 7661 2065 6544 6976 6563     USB Slave Device
    a97c:	0000 0000 5355 2042 6f48 7473 4220 7375     ....USB Host Bus
    a98c:	0000 0000 5053 2049 7542 0073 5053 2049     ....SPI Bus.SPI 
    a99c:	6544 6976 6563 0000 4453 4f49 4220 7375     Device..SDIO Bus
    a9ac:	0000 0000 4d50 5020 6573 6475 206f 6544     ....PM Pseudo De
    a9bc:	6976 6563 0000 0000 6950 6570 0000 0000     vice....Pipe....
    a9cc:	6f50 7472 6c61 4420 7665 6369 0065 0000     Portal Device...
    a9dc:	6954 656d 2072 6544 6976 6563 0000 0000     Timer Device....
    a9ec:	694d 6373 6c65 616c 656e 756f 2073 6544     Miscellaneous De
    a9fc:	6976 6563 0000 0000 6e55 6e6b 776f 006e     vice....Unknown.
    aa0c:	6f54 206f 616d 796e 6120 6772 2073 2021     Too many args ! 
    aa1c:	6557 6f20 6c6e 2079 7355 3a65 000a 0000     We only Use:....
    aa2c:	7325 0020 7325 203a 6f63 6d6d 6e61 2064     %s .%s: command 
    aa3c:	6f6e 2074 6f66 6e75 2e64 000a 5452 542d     not found...RT-T
    aa4c:	7268 6165 2064 6873 6c65 206c 6f63 6d6d     hread shell comm
    aa5c:	6e61 7364 0a3a 0000 5f5f 6d63 5f64 0000     ands:...__cmd_..
    aa6c:	2d25 3631 2073 202d 7325 000a               %-16s - %s..

0000aa78 <__fsym___cmd_help_desc>:
    aa78:	5452 542d 7268 6165 2064 6873 6c65 206c     RT-Thread shell 
    aa88:	6568 706c 0000 0000                         help....

0000aa90 <__fsym___cmd_help_name>:
    aa90:	5f5f 6d63 5f64 6568 706c 0000               __cmd_help..

0000aa9c <__fsym___cmd_free_desc>:
    aa9c:	6853 776f 7420 6568 6d20 6d65 726f 2079     Show the memory 
    aaac:	7375 6761 2065 6e69 7420 6568 7320 7379     usage in the sys
    aabc:	6574 006d                                   tem.

0000aac0 <__fsym___cmd_free_name>:
    aac0:	5f5f 6d63 5f64 7266 6565 0000               __cmd_free..

0000aacc <__fsym___cmd_ps_desc>:
    aacc:	694c 7473 7420 7268 6165 7364 6920 206e     List threads in 
    aadc:	6874 2065 7973 7473 6d65 0000               the system..

0000aae8 <__fsym___cmd_ps_name>:
    aae8:	5f5f 6d63 5f64 7370 0000 0000 736d 2068     __cmd_ps....msh 
    aaf8:	0000 0000 6966 736e 2068 0000 003e 0000     ....finsh ..>...
    ab08:	6966 736e 3a68 6320 6e61 6e20 746f 6620     finsh: can not f
    ab18:	6e69 2064 6564 6976 6563 203a 7325 000a     ind device: %s..
    ab28:	6f6e 6d20 6d65 726f 2079 6f66 2072 6873     no memory for sh
    ab38:	6c65 0a6c 0000 0000 7374 6568 6c6c 0000     ell.....tshell..
    ab48:	6873 7872 0000 0000 0008 0000 6325 0000     shrx........%c..
    ab58:	2508 2073 0820 0000 2008 0008 5b1b 4b32     .%s  .... ...[2K
    ab68:	000d 0000 7325 7325 0000 0000               ....%s%s....

0000ab74 <__fsym_pinRead_desc>:
    ab74:	6572 6461 7320 6174 7574 2073 7266 6d6f     read status from
    ab84:	6820 7261 7764 7261 2065 6970 006e 0000      hardware pin...

0000ab94 <__fsym_pinRead_name>:
    ab94:	6970 526e 6165 0064                         pinRead.

0000ab9c <__fsym_pinWrite_desc>:
    ab9c:	7277 7469 2065 6176 756c 2065 6f74 6820     write value to h
    abac:	7261 7764 7261 2065 6970 006e               ardware pin.

0000abb8 <__fsym_pinWrite_name>:
    abb8:	6970 576e 6972 6574 0000 0000               pinWrite....

0000abc4 <__fsym_pinMode_desc>:
    abc4:	6573 2074 6168 6472 6177 6572 7020 6e69     set hardware pin
    abd4:	6d20 646f 0065 0000                          mode...

0000abdc <__fsym_pinMode_name>:
    abdc:	6970 4d6e 646f 0065 6175 7472 0031 0000     pinMode.uart1...

0000abec <_ch32_pin_ops>:
    abec:	30d4 0000 3094 0000 30b6 0000 3152 0000     .0...0...0..R1..
    abfc:	31e4 0000 323e 0000                         .1..>2..

0000ac04 <pin_irq_map>:
    ac04:	0001 0000 0016 0000 0002 0000 0017 0000     ................
    ac14:	0004 0000 0018 0000 0008 0000 0019 0000     ................
    ac24:	0010 0000 001a 0000 0020 0000 0027 0000     ........ ...'...
    ac34:	0040 0000 0027 0000 0080 0000 0027 0000     @...'.......'...
    ac44:	0100 0000 0027 0000 0200 0000 0027 0000     ....'.......'...
    ac54:	0400 0000 0038 0000 0800 0000 0038 0000     ....8.......8...
    ac64:	1000 0000 0038 0000 2000 0000 0038 0000     ....8.... ..8...
    ac74:	4000 0000 0038 0000 8000 0000 0038 0000     .@..8.......8...

0000ac84 <pins>:
    ac84:	ffff ffff 0000 0000 0000 0000 0000 0000     ................
    ac94:	0001 0000 3046 0000 1800 4001 0004 0000     ....F0.....@....
    aca4:	0002 0000 3046 0000 1800 4001 0008 0000     ....F0.....@....
    acb4:	0003 0000 3046 0000 1800 4001 0010 0000     ....F0.....@....
    acc4:	0004 0000 3046 0000 1800 4001 0020 0000     ....F0.....@ ...
    acd4:	0005 0000 3046 0000 1800 4001 0040 0000     ....F0.....@@...
    ace4:	ffff ffff 0000 0000 0000 0000 0000 0000     ................
    acf4:	0007 0000 3036 0000 1000 4001 2000 0000     ....60.....@. ..
    ad04:	0008 0000 3036 0000 1000 4001 4000 0000     ....60.....@.@..
    ad14:	0009 0000 3036 0000 1000 4001 8000 0000     ....60.....@....
    ad24:	ffff ffff 0000 0000 0000 0000 0000 0000     ................
    ad34:	ffff ffff 0000 0000 0000 0000 0000 0000     ................
    ad44:	ffff ffff 0000 0000 0000 0000 0000 0000     ................
    ad54:	ffff ffff 0000 0000 0000 0000 0000 0000     ................
    ad64:	ffff ffff 0000 0000 0000 0000 0000 0000     ................
    ad74:	000f 0000 3036 0000 1000 4001 0001 0000     ....60.....@....
    ad84:	0010 0000 3036 0000 1000 4001 0002 0000     ....60.....@....
    ad94:	0011 0000 3036 0000 1000 4001 0004 0000     ....60.....@....
    ada4:	0012 0000 3036 0000 1000 4001 0008 0000     ....60.....@....
    adb4:	ffff ffff 0000 0000 0000 0000 0000 0000     ................
    adc4:	ffff ffff 0000 0000 0000 0000 0000 0000     ................
    add4:	ffff ffff 0000 0000 0000 0000 0000 0000     ................
    ade4:	ffff ffff 0000 0000 0000 0000 0000 0000     ................
    adf4:	0017 0000 3026 0000 0800 4001 0001 0000     ....&0.....@....
    ae04:	0018 0000 3026 0000 0800 4001 0002 0000     ....&0.....@....
    ae14:	0019 0000 3026 0000 0800 4001 0004 0000     ....&0.....@....
    ae24:	001a 0000 3026 0000 0800 4001 0008 0000     ....&0.....@....
    ae34:	ffff ffff 0000 0000 0000 0000 0000 0000     ................
    ae44:	ffff ffff 0000 0000 0000 0000 0000 0000     ................
    ae54:	001d 0000 3026 0000 0800 4001 0010 0000     ....&0.....@....
    ae64:	001e 0000 3026 0000 0800 4001 0020 0000     ....&0.....@ ...
    ae74:	001f 0000 3026 0000 0800 4001 0040 0000     ....&0.....@@...
    ae84:	0020 0000 3026 0000 0800 4001 0080 0000      ...&0.....@....
    ae94:	0021 0000 3036 0000 1000 4001 0010 0000     !...60.....@....
    aea4:	0022 0000 3036 0000 1000 4001 0020 0000     "...60.....@ ...
    aeb4:	0023 0000 3016 0000 0c00 4001 0001 0000     #....0.....@....
    aec4:	0024 0000 3016 0000 0c00 4001 0002 0000     $....0.....@....
    aed4:	0025 0000 3016 0000 0c00 4001 0004 0000     %....0.....@....
    aee4:	0026 0000 3046 0000 1800 4001 0080 0000     &...F0.....@....
    aef4:	0027 0000 3046 0000 1800 4001 0100 0000     '...F0.....@....
    af04:	0028 0000 3046 0000 1800 4001 0200 0000     (...F0.....@....
    af14:	0029 0000 3046 0000 1800 4001 0400 0000     )...F0.....@....
    af24:	002a 0000 3046 0000 1800 4001 0800 0000     *...F0.....@....
    af34:	002b 0000 3046 0000 1800 4001 1000 0000     +...F0.....@....
    af44:	002c 0000 3046 0000 1800 4001 2000 0000     ,...F0.....@. ..
    af54:	002d 0000 3046 0000 1800 4001 4000 0000     -...F0.....@.@..
    af64:	002e 0000 3046 0000 1800 4001 8000 0000     ....F0.....@....
    af74:	002f 0000 3016 0000 0c00 4001 0400 0000     /....0.....@....
    af84:	0030 0000 3016 0000 0c00 4001 0800 0000     0....0.....@....
    af94:	ffff ffff 0000 0000 0000 0000 0000 0000     ................
    afa4:	ffff ffff 0000 0000 0000 0000 0000 0000     ................
    afb4:	0033 0000 3016 0000 0c00 4001 1000 0000     3....0.....@....
    afc4:	0034 0000 3016 0000 0c00 4001 2000 0000     4....0.....@. ..
    afd4:	0035 0000 3016 0000 0c00 4001 4000 0000     5....0.....@.@..
    afe4:	0036 0000 3016 0000 0c00 4001 8000 0000     6....0.....@....
    aff4:	0037 0000 3004 0000 1400 4001 0100 0000     7....0.....@....
    b004:	0038 0000 3004 0000 1400 4001 0200 0000     8....0.....@....
    b014:	0039 0000 3004 0000 1400 4001 0400 0000     9....0.....@....
    b024:	003a 0000 3004 0000 1400 4001 0800 0000     :....0.....@....
    b034:	003b 0000 3004 0000 1400 4001 1000 0000     ;....0.....@....
    b044:	003c 0000 3004 0000 1400 4001 2000 0000     <....0.....@. ..
    b054:	003d 0000 3004 0000 1400 4001 4000 0000     =....0.....@.@..
    b064:	003e 0000 3004 0000 1400 4001 8000 0000     >....0.....@....
    b074:	003f 0000 3036 0000 1000 4001 0040 0000     ?...60.....@@...
    b084:	0040 0000 3036 0000 1000 4001 0080 0000     @...60.....@....
    b094:	0041 0000 3036 0000 1000 4001 0100 0000     A...60.....@....
    b0a4:	0042 0000 3036 0000 1000 4001 0200 0000     B...60.....@....
    b0b4:	0043 0000 3026 0000 0800 4001 0100 0000     C...&0.....@....
    b0c4:	0044 0000 3026 0000 0800 4001 0200 0000     D...&0.....@....
    b0d4:	0045 0000 3026 0000 0800 4001 0400 0000     E...&0.....@....
    b0e4:	0046 0000 3026 0000 0800 4001 0800 0000     F...&0.....@....
    b0f4:	0047 0000 3026 0000 0800 4001 1000 0000     G...&0.....@....
    b104:	0048 0000 3026 0000 0800 4001 2000 0000     H...&0.....@. ..
    b114:	ffff ffff 0000 0000 0000 0000 0000 0000     ................
    b124:	ffff ffff 0000 0000 0000 0000 0000 0000     ................
    b134:	ffff ffff 0000 0000 0000 0000 0000 0000     ................
    b144:	004c 0000 3026 0000 0800 4001 4000 0000     L...&0.....@.@..
    b154:	004d 0000 3026 0000 0800 4001 8000 0000     M...&0.....@....
    b164:	004e 0000 3036 0000 1000 4001 0400 0000     N...60.....@....
    b174:	004f 0000 3036 0000 1000 4001 0800 0000     O...60.....@....
    b184:	0050 0000 3036 0000 1000 4001 1000 0000     P...60.....@....
    b194:	0051 0000 3004 0000 1400 4001 0001 0000     Q....0.....@....
    b1a4:	0052 0000 3004 0000 1400 4001 0002 0000     R....0.....@....
    b1b4:	0053 0000 3004 0000 1400 4001 0004 0000     S....0.....@....
    b1c4:	0054 0000 3004 0000 1400 4001 0008 0000     T....0.....@....
    b1d4:	0055 0000 3004 0000 1400 4001 0010 0000     U....0.....@....
    b1e4:	0056 0000 3004 0000 1400 4001 0020 0000     V....0.....@ ...
    b1f4:	0057 0000 3004 0000 1400 4001 0040 0000     W....0.....@@...
    b204:	0058 0000 3004 0000 1400 4001 0080 0000     X....0.....@....
    b214:	0059 0000 3016 0000 0c00 4001 0008 0000     Y....0.....@....
    b224:	005a 0000 3016 0000 0c00 4001 0010 0000     Z....0.....@....
    b234:	005b 0000 3016 0000 0c00 4001 0020 0000     [....0.....@ ...
    b244:	005c 0000 3016 0000 0c00 4001 0040 0000     \....0.....@@...
    b254:	005d 0000 3016 0000 0c00 4001 0080 0000     ]....0.....@....
    b264:	ffff ffff 0000 0000 0000 0000 0000 0000     ................
    b274:	005f 0000 3016 0000 0c00 4001 0100 0000     _....0.....@....
    b284:	0060 0000 3016 0000 0c00 4001 0200 0000     `....0.....@....
    b294:	0061 0000 3046 0000 1800 4001 0001 0000     a...F0.....@....
    b2a4:	0062 0000 3046 0000 1800 4001 0002 0000     b...F0.....@....
    b2b4:	ffff ffff 0000 0000 0000 0000 0000 0000     ................
    b2c4:	ffff ffff 0000 0000 0000 0000 0000 0000     ................
    b2d4:	6970 006e                                   pin.

0000b2d8 <ch32_uart_ops>:
    b2d8:	3582 0000 3758 0000 3736 0000 3714 0000     .5..X7..67...7..
    b2e8:	357e 0000                                   ~5..

0000b2ec <TEST_INSTRUMENT>:
    b2ec:	0100 f010 0677 0001 77f0 0000               ....w....w..

0000b2f8 <noteFNumbers>:
    b2f8:	0156 0000 016b 0000 0181 0000 0198 0000     V...k...........
    b308:	01b0 0000 01ca 0000 01e5 0000 0202 0000     ................
    b318:	0220 0000 0241 0000 0263 0000 0287 0000      ...A...c.......

0000b328 <registerOffsets>:
    b328:	0100 0802 0a09 1110 0312 0504 0c0b 130d     ................
    b338:	1514 0000 0000 3f80 0000 0000 8000 404f     .......?......O@

0000b348 <Font11x18>:
	...
    b36c:	0000 0c00 0c00 0c00 0c00 0c00 0c00 0c00     ................
    b37c:	0c00 0c00 0c00 0c00 0000 0c00 0c00 0000     ................
    b38c:	0000 0000 0000 1b00 1b00 1b00 1b00 1b00     ................
	...
    b3b4:	0000 1980 1980 1980 1980 7fc0 7fc0 1980     ................
    b3c4:	3300 7fc0 7fc0 3300 3300 3300 3300 0000     .3.....3.3.3.3..
    b3d4:	0000 0000 0000 1e00 3f00 7580 6580 7400     .........?.u.e.t
    b3e4:	3c00 1e00 0700 0580 6580 6580 7580 3f00     .<.......e.e.u.?
    b3f4:	1e00 0400 0400 0000 0000 7000 d800 d840     ...........p..@.
    b404:	d8c0 d980 7300 0600 0c00 1b80 36c0 66c0     .....s.......6.f
    b414:	46c0 06c0 0380 0000 0000 0000 0000 1e00     .F..............
    b424:	3f00 3300 3300 3300 1e00 0c00 3cc0 66c0     .?.3.3.3.....<.f
    b434:	6380 6180 6380 3ec0 1c80 0000 0000 0000     .c.a.c.>........
    b444:	0000 0c00 0c00 0c00 0c00 0c00 0000 0000     ................
	...
    b468:	0080 0100 0300 0600 0600 0400 0c00 0c00     ................
    b478:	0c00 0c00 0c00 0c00 0400 0600 0600 0300     ................
    b488:	0100 0080 2000 1000 1800 0c00 0c00 0400     ..... ..........
    b498:	0600 0600 0600 0600 0600 0600 0400 0c00     ................
    b4a8:	0c00 1800 1000 2000 0000 0c00 2d00 3f00     ....... .....-.?
    b4b8:	1e00 3300 0000 0000 0000 0000 0000 0000     ...3............
	...
    b4d8:	0000 0c00 0c00 0c00 0c00 ffc0 ffc0 0c00     ................
    b4e8:	0c00 0c00 0c00 0000 0000 0000 0000 0000     ................
	...
    b510:	0000 0c00 0c00 0400 0400 0800 0000 0000     ................
	...
    b52c:	0000 1e00 1e00 0000 0000 0000 0000 0000     ................
	...
    b558:	0000 0c00 0c00 0000 0000 0000 0000 0300     ................
    b568:	0300 0300 0600 0600 0600 0600 0c00 0c00     ................
    b578:	0c00 0c00 1800 1800 1800 0000 0000 0000     ................
    b588:	0000 1e00 3f00 3300 6180 6180 6180 6d80     .....?.3.a.a.a.m
    b598:	6d80 6180 6180 6180 3300 3f00 1e00 0000     .m.a.a.a.3.?....
    b5a8:	0000 0000 0000 0600 0e00 1e00 3600 2600     .............6.&
    b5b8:	0600 0600 0600 0600 0600 0600 0600 0600     ................
    b5c8:	0600 0000 0000 0000 0000 1e00 3f00 7380     .............?.s
    b5d8:	6180 6180 0180 0300 0600 0c00 1800 3000     .a.a...........0
    b5e8:	6000 7f80 7f80 0000 0000 0000 0000 1c00     .`..............
    b5f8:	3e00 6300 6300 0300 0e00 0e00 0300 0180     .>.c.c..........
    b608:	0180 6180 7380 3f00 1e00 0000 0000 0000     ...a.s.?........
    b618:	0000 0600 0e00 0e00 1e00 1e00 1600 3600     ...............6
    b628:	3600 6600 7f80 7f80 0600 0600 0600 0000     .6.f............
    b638:	0000 0000 0000 7f00 7f00 6000 6000 6000     ...........`.`.`
    b648:	6e00 7f00 6380 0180 0180 6180 7380 3f00     .n...c.....a.s.?
    b658:	1e00 0000 0000 0000 0000 1e00 3f00 3380     .............?.3
    b668:	6180 6000 6e00 7f00 7380 6180 6180 6180     .a.`.n...s.a.a.a
    b678:	3380 3f00 1e00 0000 0000 0000 0000 7f80     .3.?............
    b688:	7f80 0180 0300 0300 0600 0600 0c00 0c00     ................
    b698:	0c00 0800 1800 1800 1800 0000 0000 0000     ................
    b6a8:	0000 1e00 3f00 6380 6180 6180 2100 1e00     .....?.c.a.a.!..
    b6b8:	3f00 6180 6180 6180 6180 3f00 1e00 0000     .?.a.a.a.a.?....
    b6c8:	0000 0000 0000 1e00 3f00 7300 6180 6180     .........?.s.a.a
    b6d8:	6180 7380 3f80 1d80 0180 6180 7300 3f00     .a.s.?.....a.s.?
    b6e8:	1e00 0000 0000 0000 0000 0000 0000 0000     ................
    b6f8:	0000 0c00 0c00 0000 0000 0000 0000 0000     ................
    b708:	0000 0c00 0c00 0000 0000 0000 0000 0000     ................
	...
    b720:	0c00 0c00 0000 0000 0000 0000 0000 0c00     ................
    b730:	0c00 0400 0400 0800 0000 0000 0000 0000     ................
    b740:	0080 0380 0e00 3800 6000 3800 0e00 0380     .......8.`.8....
    b750:	0080 0000 0000 0000 0000 0000 0000 0000     ................
    b760:	0000 0000 0000 7f80 7f80 0000 0000 7f80     ................
    b770:	7f80 0000 0000 0000 0000 0000 0000 0000     ................
	...
    b788:	4000 7000 1c00 0700 0180 0700 1c00 7000     .@.p...........p
    b798:	4000 0000 0000 0000 0000 0000 0000 1f00     .@..............
    b7a8:	3f80 71c0 60c0 00c0 01c0 0380 0700 0e00     .?.q.`..........
    b7b8:	0c00 0c00 0000 0c00 0c00 0000 0000 0000     ................
    b7c8:	0000 1e00 3f00 3180 7180 6380 6f80 6d80     .....?.1.q.c.o.m
    b7d8:	6d80 6f80 6780 6000 3200 3e00 1c00 0000     .m.o.g.`.2.>....
    b7e8:	0000 0000 0000 0e00 0e00 1b00 1b00 1b00     ................
    b7f8:	1b00 3180 3180 3f80 3f80 3180 60c0 60c0     ...1.1.?.?.1.`.`
    b808:	60c0 0000 0000 0000 0000 7c00 7e00 6300     .`.........|.~.c
    b818:	6300 6300 6300 7e00 7e00 6300 6180 6180     .c.c.c.~.~.c.a.a
    b828:	6380 7f00 7e00 0000 0000 0000 0000 1e00     .c...~..........
    b838:	3f00 3180 6180 6000 6000 6000 6000 6000     .?.1.a.`.`.`.`.`
    b848:	6000 6180 3180 3f00 1e00 0000 0000 0000     .`.a.1.?........
    b858:	0000 7c00 7f00 6300 6380 6180 6180 6180     ...|...c.c.a.a.a
    b868:	6180 6180 6180 6300 6300 7e00 7c00 0000     .a.a.a.c.c.~.|..
    b878:	0000 0000 0000 7f80 7f80 6000 6000 6000     ...........`.`.`
    b888:	6000 7f00 7f00 6000 6000 6000 6000 7f80     .`.....`.`.`.`..
    b898:	7f80 0000 0000 0000 0000 7f80 7f80 6000     ...............`
    b8a8:	6000 6000 6000 7f00 7f00 6000 6000 6000     .`.`.`.....`.`.`
    b8b8:	6000 6000 6000 0000 0000 0000 0000 1e00     .`.`.`..........
    b8c8:	3f00 3180 6180 6000 6000 6000 6380 6380     .?.1.a.`.`.`.c.c
    b8d8:	6180 6180 3180 3f80 1e00 0000 0000 0000     .a.a.1.?........
    b8e8:	0000 6180 6180 6180 6180 6180 6180 7f80     ...a.a.a.a.a.a..
    b8f8:	7f80 6180 6180 6180 6180 6180 6180 0000     ...a.a.a.a.a.a..
    b908:	0000 0000 0000 3f00 3f00 0c00 0c00 0c00     .......?.?......
    b918:	0c00 0c00 0c00 0c00 0c00 0c00 0c00 3f00     ...............?
    b928:	3f00 0000 0000 0000 0000 0180 0180 0180     .?..............
    b938:	0180 0180 0180 0180 0180 0180 6180 6180     .............a.a
    b948:	7380 3f00 1e00 0000 0000 0000 0000 60c0     .s.?...........`
    b958:	6180 6300 6600 6600 6c00 7800 7c00 6600     .a.c.f.f.l.x.|.f
    b968:	6600 6300 6180 6180 60c0 0000 0000 0000     .f.c.a.a.`......
    b978:	0000 6000 6000 6000 6000 6000 6000 6000     ...`.`.`.`.`.`.`
    b988:	6000 6000 6000 6000 6000 7f80 7f80 0000     .`.`.`.`.`......
    b998:	0000 0000 0000 71c0 71c0 7bc0 7ac0 6ac0     .......q.q.{.z.j
    b9a8:	6ac0 6ec0 64c0 60c0 60c0 60c0 60c0 60c0     .j.n.d.`.`.`.`.`
    b9b8:	60c0 0000 0000 0000 0000 7180 7180 7980     .`.........q.q.y
    b9c8:	7980 7980 6d80 6d80 6d80 6580 6780 6780     .y.y.m.m.m.e.g.g
    b9d8:	6780 6380 6380 0000 0000 0000 0000 1e00     .g.c.c..........
    b9e8:	3f00 3300 6180 6180 6180 6180 6180 6180     .?.3.a.a.a.a.a.a
    b9f8:	6180 6180 3300 3f00 1e00 0000 0000 0000     .a.a.3.?........
    ba08:	0000 7e00 7f00 6380 6180 6180 6180 6380     ...~...c.a.a.a.c
    ba18:	7f00 7e00 6000 6000 6000 6000 6000 0000     ...~.`.`.`.`.`..
    ba28:	0000 0000 0000 1e00 3f00 3300 6180 6180     .........?.3.a.a
    ba38:	6180 6180 6180 6180 6580 6780 3300 3f80     .a.a.a.a.e.g.3.?
    ba48:	1e40 0000 0000 0000 0000 7e00 7f00 6380     @..........~...c
    ba58:	6180 6180 6380 7f00 7e00 6600 6300 6300     .a.a.c...~.f.c.c
    ba68:	6180 6180 60c0 0000 0000 0000 0000 0e00     .a.a.`..........
    ba78:	1f00 3180 3180 3000 3800 1e00 0700 0380     ...1.1.0.8......
    ba88:	6180 6180 3180 3f00 1e00 0000 0000 0000     .a.a.1.?........
    ba98:	0000 ffc0 ffc0 0c00 0c00 0c00 0c00 0c00     ................
    baa8:	0c00 0c00 0c00 0c00 0c00 0c00 0c00 0000     ................
    bab8:	0000 0000 0000 6180 6180 6180 6180 6180     .......a.a.a.a.a
    bac8:	6180 6180 6180 6180 6180 6180 7380 3f00     .a.a.a.a.a.a.s.?
    bad8:	1e00 0000 0000 0000 0000 60c0 60c0 60c0     ...........`.`.`
    bae8:	3180 3180 3180 1b00 1b00 1b00 1b00 0e00     .1.1.1..........
    baf8:	0e00 0e00 0400 0000 0000 0000 0000 c0c0     ................
    bb08:	c0c0 c0c0 c0c0 c0c0 ccc0 4c80 4c80 5e80     ...........L.L.^
    bb18:	5280 5280 7380 6180 6180 0000 0000 0000     .R.R.s.a.a......
    bb28:	0000 c0c0 6080 6180 3300 3b00 1e00 0c00     .....`.a.3.;....
    bb38:	0c00 1e00 1f00 3b00 7180 6180 c0c0 0000     .......;.q.a....
    bb48:	0000 0000 0000 c0c0 6180 6180 3300 3300     .........a.a.3.3
    bb58:	1e00 1e00 0c00 0c00 0c00 0c00 0c00 0c00     ................
    bb68:	0c00 0000 0000 0000 0000 3f80 3f80 0180     ...........?.?..
    bb78:	0300 0300 0600 0c00 0c00 1800 1800 3000     ...............0
    bb88:	6000 7f80 7f80 0000 0000 0000 0f00 0f00     .`..............
    bb98:	0c00 0c00 0c00 0c00 0c00 0c00 0c00 0c00     ................
    bba8:	0c00 0c00 0c00 0c00 0c00 0c00 0f00 0f00     ................
    bbb8:	0000 1800 1800 1800 0c00 0c00 0c00 0c00     ................
    bbc8:	0600 0600 0600 0600 0300 0300 0300 0000     ................
    bbd8:	0000 0000 1e00 1e00 0600 0600 0600 0600     ................
    bbe8:	0600 0600 0600 0600 0600 0600 0600 0600     ................
    bbf8:	0600 0600 1e00 1e00 0000 0c00 0c00 1e00     ................
    bc08:	1200 3300 3300 6180 6180 0000 0000 0000     ...3.3.a.a......
	...
    bc44:	ffe0 0000 0000 3800 1800 0c00 0000 0000     .......8........
	...
    bc74:	0000 1f00 3f80 6180 0180 1f80 3f80 6180     .....?.a.....?.a
    bc84:	6380 7f80 38c0 0000 0000 0000 0000 6000     .c...8.........`
    bc94:	6000 6000 6000 6e00 7f00 7380 6180 6180     .`.`.`.n...s.a.a
    bca4:	6180 6180 7380 7f00 6e00 0000 0000 0000     .a.a.s...n......
	...
    bcbc:	0000 1e00 3f00 7380 6180 6000 6000 6180     .....?.s.a.`.`.a
    bccc:	7380 3f00 1e00 0000 0000 0000 0000 0180     .s.?............
    bcdc:	0180 0180 0180 1d80 3f80 7380 6180 6180     .........?.s.a.a
    bcec:	6180 6180 7380 3f80 1d80 0000 0000 0000     .a.a.s.?........
	...
    bd04:	0000 1e00 3f00 7300 6180 7f80 7f80 6000     .....?.s.a.....`
    bd14:	7180 3f00 1e00 0000 0000 0000 0000 07c0     .q.?............
    bd24:	0fc0 0c00 0c00 7f80 7f80 0c00 0c00 0c00     ................
    bd34:	0c00 0c00 0c00 0c00 0c00 0000 0000 0000     ................
	...
    bd4c:	1d80 3f80 7380 6180 6180 6180 6180 7380     ...?.s.a.a.a.a.s
    bd5c:	3f80 1d80 0180 6380 7f00 3e00 0000 6000     .?.....c...>...`
    bd6c:	6000 6000 6000 6f00 7f80 7180 6180 6180     .`.`.`.o...q.a.a
    bd7c:	6180 6180 6180 6180 6180 0000 0000 0000     .a.a.a.a.a......
    bd8c:	0000 0600 0600 0000 0000 3e00 3e00 0600     ...........>.>..
    bd9c:	0600 0600 0600 0600 0600 0600 0600 0000     ................
    bdac:	0000 0000 0600 0600 0000 0000 3e00 3e00     .............>.>
    bdbc:	0600 0600 0600 0600 0600 0600 0600 0600     ................
    bdcc:	0600 4600 7e00 3c00 0000 6000 6000 6000     ...F.~.<...`.`.`
    bddc:	6000 6180 6300 6600 6c00 7c00 7600 6300     .`.a.c.f.l.|.v.c
    bdec:	6300 6180 60c0 0000 0000 0000 0000 3e00     .c.a.`.........>
    bdfc:	3e00 0600 0600 0600 0600 0600 0600 0600     .>..............
    be0c:	0600 0600 0600 0600 0600 0000 0000 0000     ................
	...
    be24:	0000 dd80 ffc0 cec0 ccc0 ccc0 ccc0 ccc0     ................
    be34:	ccc0 ccc0 ccc0 0000 0000 0000 0000 0000     ................
    be44:	0000 0000 0000 6f00 7f80 7180 6180 6180     .......o...q.a.a
    be54:	6180 6180 6180 6180 6180 0000 0000 0000     .a.a.a.a.a......
	...
    be6c:	0000 1e00 3f00 7380 6180 6180 6180 6180     .....?.s.a.a.a.a
    be7c:	7380 3f00 1e00 0000 0000 0000 0000 0000     .s.?............
    be8c:	0000 0000 6e00 7f00 7380 6180 6180 6180     .....n...s.a.a.a
    be9c:	6180 7380 7f00 6e00 6000 6000 6000 6000     .a.s...n.`.`.`.`
	...
    beb4:	1d80 3f80 7380 6180 6180 6180 6180 7380     ...?.s.a.a.a.a.s
    bec4:	3f80 1d80 0180 0180 0180 0180 0000 0000     .?..............
    bed4:	0000 0000 0000 6700 3f80 3900 3000 3000     .......g.?.9.0.0
    bee4:	3000 3000 3000 3000 3000 0000 0000 0000     .0.0.0.0.0......
	...
    befc:	0000 1e00 3f80 6180 6000 7f00 3f80 0180     .....?.a.`...?..
    bf0c:	6180 7f00 1e00 0000 0000 0000 0000 0000     .a..............
    bf1c:	0800 1800 1800 7f00 7f00 1800 1800 1800     ................
    bf2c:	1800 1800 1800 1f80 0f80 0000 0000 0000     ................
	...
    bf44:	0000 6180 6180 6180 6180 6180 6180 6180     ...a.a.a.a.a.a.a
    bf54:	6380 7f80 3d80 0000 0000 0000 0000 0000     .c...=..........
    bf64:	0000 0000 0000 60c0 3180 3180 3180 1b00     .......`.1.1.1..
    bf74:	1b00 1b00 0e00 0e00 0600 0000 0000 0000     ................
	...
    bf8c:	0000 dd80 dd80 dd80 5500 5500 5500 7700     .........U.U.U.w
    bf9c:	7700 2200 2200 0000 0000 0000 0000 0000     .w."."..........
    bfac:	0000 0000 0000 6180 3300 3300 1e00 0c00     .......a.3.3....
    bfbc:	0c00 1e00 3300 3300 6180 0000 0000 0000     .....3.3.a......
	...
    bfd4:	6180 6180 3180 3300 3300 1b00 1b00 1b00     .a.a.1.3.3......
    bfe4:	0e00 0e00 0e00 1c00 7c00 7000 0000 0000     .........|.p....
    bff4:	0000 0000 0000 7fc0 7fc0 0180 0300 0600     ................
    c004:	0c00 1800 3000 7fc0 7fc0 0000 0000 0000     .....0..........
    c014:	0380 0780 0600 0600 0600 0600 0600 0e00     ................
    c024:	1c00 1c00 0e00 0600 0600 0600 0600 0600     ................
    c034:	0780 0380 0600 0600 0600 0600 0600 0600     ................
    c044:	0600 0600 0600 0600 0600 0600 0600 0600     ................
    c054:	0600 0600 0600 0600 3800 3c00 0c00 0c00     .........8.<....
    c064:	0c00 0c00 0c00 0e00 0700 0700 0e00 0c00     ................
    c074:	0c00 0c00 0c00 0c00 3c00 3800 0000 0000     .........<.8....
	...
    c08c:	0000 3880 7f80 4700 0000 0000 0000 0000     ...8...G........
	...

0000c0a4 <Font7x10>:
	...
    c0b8:	1000 1000 1000 1000 1000 1000 0000 1000     ................
    c0c8:	0000 0000 2800 2800 2800 0000 0000 0000     .....(.(.(......
	...
    c0e0:	2400 2400 7c00 2400 4800 7c00 4800 4800     .$.$.|.$.H.|.H.H
    c0f0:	0000 0000 3800 5400 5000 3800 1400 5400     .....8.T.P.8...T
    c100:	5400 3800 1000 0000 2000 5400 5800 3000     .T.8..... .T.X.0
    c110:	2800 5400 1400 0800 0000 0000 1000 2800     .(.T...........(
    c120:	2800 1000 3400 4800 4800 3400 0000 0000     .(...4.H.H.4....
    c130:	1000 1000 1000 0000 0000 0000 0000 0000     ................
    c140:	0000 0000 0800 1000 2000 2000 2000 2000     ......... . . . 
    c150:	2000 2000 1000 0800 2000 1000 0800 0800     . . ..... ......
    c160:	0800 0800 0800 0800 1000 2000 1000 3800     ........... ...8
    c170:	1000 2800 0000 0000 0000 0000 0000 0000     ...(............
    c180:	0000 0000 1000 1000 7c00 1000 1000 0000     .........|......
	...
    c1a0:	0000 1000 1000 1000 0000 0000 0000 0000     ................
    c1b0:	0000 3800 0000 0000 0000 0000 0000 0000     ...8............
	...
    c1c8:	0000 1000 0000 0000 0800 0800 1000 1000     ................
    c1d8:	1000 1000 2000 2000 0000 0000 3800 4400     ..... . .....8.D
    c1e8:	4400 5400 4400 4400 4400 3800 0000 0000     .D.T.D.D.D.8....
    c1f8:	1000 3000 5000 1000 1000 1000 1000 1000     ...0.P..........
    c208:	0000 0000 3800 4400 4400 0400 0800 1000     .....8.D.D......
    c218:	2000 7c00 0000 0000 3800 4400 0400 1800     . .|.....8.D....
    c228:	0400 0400 4400 3800 0000 0000 0800 1800     .....D.8........
    c238:	2800 2800 4800 7c00 0800 0800 0000 0000     .(.(.H.|........
    c248:	7c00 4000 4000 7800 0400 0400 4400 3800     .|.@.@.x.....D.8
    c258:	0000 0000 3800 4400 4000 7800 4400 4400     .....8.D.@.x.D.D
    c268:	4400 3800 0000 0000 7c00 0400 0800 1000     .D.8.....|......
    c278:	1000 2000 2000 2000 0000 0000 3800 4400     ... . . .....8.D
    c288:	4400 3800 4400 4400 4400 3800 0000 0000     .D.8.D.D.D.8....
    c298:	3800 4400 4400 4400 3c00 0400 4400 3800     .8.D.D.D.<...D.8
	...
    c2b0:	1000 0000 0000 0000 0000 1000 0000 0000     ................
    c2c0:	0000 0000 0000 1000 0000 0000 0000 1000     ................
    c2d0:	1000 1000 0000 0000 0c00 3000 4000 3000     ...........0.@.0
    c2e0:	0c00 0000 0000 0000 0000 0000 0000 7c00     ...............|
    c2f0:	0000 7c00 0000 0000 0000 0000 0000 0000     ...|............
    c300:	6000 1800 0400 1800 6000 0000 0000 0000     .`.......`......
    c310:	3800 4400 0400 0800 1000 1000 0000 1000     .8.D............
    c320:	0000 0000 3800 4400 4c00 5400 5c00 4000     .....8.D.L.T.\.@
    c330:	4000 3800 0000 0000 1000 2800 2800 2800     .@.8.......(.(.(
    c340:	2800 7c00 4400 4400 0000 0000 7800 4400     .(.|.D.D.....x.D
    c350:	4400 7800 4400 4400 4400 7800 0000 0000     .D.x.D.D.D.x....
    c360:	3800 4400 4000 4000 4000 4000 4400 3800     .8.D.@.@.@.@.D.8
    c370:	0000 0000 7000 4800 4400 4400 4400 4400     .....p.H.D.D.D.D
    c380:	4800 7000 0000 0000 7c00 4000 4000 7c00     .H.p.....|.@.@.|
    c390:	4000 4000 4000 7c00 0000 0000 7c00 4000     .@.@.@.|.....|.@
    c3a0:	4000 7800 4000 4000 4000 4000 0000 0000     .@.x.@.@.@.@....
    c3b0:	3800 4400 4000 4000 5c00 4400 4400 3800     .8.D.@.@.\.D.D.8
    c3c0:	0000 0000 4400 4400 4400 7c00 4400 4400     .....D.D.D.|.D.D
    c3d0:	4400 4400 0000 0000 3800 1000 1000 1000     .D.D.....8......
    c3e0:	1000 1000 1000 3800 0000 0000 0400 0400     .......8........
    c3f0:	0400 0400 0400 0400 4400 3800 0000 0000     .........D.8....
    c400:	4400 4800 5000 6000 5000 4800 4800 4400     .D.H.P.`.P.H.H.D
    c410:	0000 0000 4000 4000 4000 4000 4000 4000     .....@.@.@.@.@.@
    c420:	4000 7c00 0000 0000 4400 6c00 6c00 5400     .@.|.....D.l.l.T
    c430:	4400 4400 4400 4400 0000 0000 4400 6400     .D.D.D.D.....D.d
    c440:	6400 5400 5400 4c00 4c00 4400 0000 0000     .d.T.T.L.L.D....
    c450:	3800 4400 4400 4400 4400 4400 4400 3800     .8.D.D.D.D.D.D.8
    c460:	0000 0000 7800 4400 4400 4400 7800 4000     .....x.D.D.D.x.@
    c470:	4000 4000 0000 0000 3800 4400 4400 4400     .@.@.....8.D.D.D
    c480:	4400 4400 5400 3800 0400 0000 7800 4400     .D.D.T.8.....x.D
    c490:	4400 4400 7800 4800 4800 4400 0000 0000     .D.D.x.H.H.D....
    c4a0:	3800 4400 4000 3000 0800 0400 4400 3800     .8.D.@.0.....D.8
    c4b0:	0000 0000 7c00 1000 1000 1000 1000 1000     .....|..........
    c4c0:	1000 1000 0000 0000 4400 4400 4400 4400     .........D.D.D.D
    c4d0:	4400 4400 4400 3800 0000 0000 4400 4400     .D.D.D.8.....D.D
    c4e0:	4400 2800 2800 2800 1000 1000 0000 0000     .D.(.(.(........
    c4f0:	4400 4400 5400 5400 5400 6c00 2800 2800     .D.D.T.T.T.l.(.(
    c500:	0000 0000 4400 2800 2800 1000 1000 2800     .....D.(.(.....(
    c510:	2800 4400 0000 0000 4400 4400 2800 2800     .(.D.....D.D.(.(
    c520:	1000 1000 1000 1000 0000 0000 7c00 0400     .............|..
    c530:	0800 1000 1000 2000 4000 7c00 0000 0000     ....... .@.|....
    c540:	1800 1000 1000 1000 1000 1000 1000 1000     ................
    c550:	1000 1800 2000 2000 1000 1000 1000 1000     ..... . ........
    c560:	0800 0800 0000 0000 3000 1000 1000 1000     .........0......
    c570:	1000 1000 1000 1000 1000 3000 1000 2800     ...........0...(
    c580:	2800 4400 0000 0000 0000 0000 0000 0000     .(.D............
	...
    c5a0:	0000 fe00 2000 1000 0000 0000 0000 0000     ..... ..........
	...
    c5bc:	3800 4400 3c00 4400 4c00 3400 0000 0000     .8.D.<.D.L.4....
    c5cc:	4000 4000 5800 6400 4400 4400 6400 5800     .@.@.X.d.D.D.d.X
	...
    c5e4:	3800 4400 4000 4000 4400 3800 0000 0000     .8.D.@.@.D.8....
    c5f4:	0400 0400 3400 4c00 4400 4400 4c00 3400     .....4.L.D.D.L.4
	...
    c60c:	3800 4400 7c00 4000 4400 3800 0000 0000     .8.D.|.@.D.8....
    c61c:	0c00 1000 7c00 1000 1000 1000 1000 1000     .....|..........
	...
    c634:	3400 4c00 4400 4400 4c00 3400 0400 7800     .4.L.D.D.L.4...x
    c644:	4000 4000 5800 6400 4400 4400 4400 4400     .@.@.X.d.D.D.D.D
    c654:	0000 0000 1000 0000 7000 1000 1000 1000     .........p......
    c664:	1000 1000 0000 0000 1000 0000 7000 1000     .............p..
    c674:	1000 1000 1000 1000 1000 e000 4000 4000     .............@.@
    c684:	4800 5000 6000 5000 4800 4400 0000 0000     .H.P.`.P.H.D....
    c694:	7000 1000 1000 1000 1000 1000 1000 1000     .p..............
	...
    c6ac:	7800 5400 5400 5400 5400 5400 0000 0000     .x.T.T.T.T.T....
    c6bc:	0000 0000 5800 6400 4400 4400 4400 4400     .....X.d.D.D.D.D
	...
    c6d4:	3800 4400 4400 4400 4400 3800 0000 0000     .8.D.D.D.D.8....
    c6e4:	0000 0000 5800 6400 4400 4400 6400 5800     .....X.d.D.D.d.X
    c6f4:	4000 4000 0000 0000 3400 4c00 4400 4400     .@.@.....4.L.D.D
    c704:	4c00 3400 0400 0400 0000 0000 5800 6400     .L.4.........X.d
    c714:	4000 4000 4000 4000 0000 0000 0000 0000     .@.@.@.@........
    c724:	3800 4400 3000 0800 4400 3800 0000 0000     .8.D.0...D.8....
    c734:	2000 2000 7800 2000 2000 2000 2000 1800     . . .x. . . . ..
	...
    c74c:	4400 4400 4400 4400 4c00 3400 0000 0000     .D.D.D.D.L.4....
    c75c:	0000 0000 4400 4400 2800 2800 2800 1000     .....D.D.(.(.(..
	...
    c774:	5400 5400 5400 6c00 2800 2800 0000 0000     .T.T.T.l.(.(....
    c784:	0000 0000 4400 2800 1000 1000 2800 4400     .....D.(.....(.D
	...
    c79c:	4400 4400 2800 2800 1000 1000 1000 6000     .D.D.(.(.......`
    c7ac:	0000 0000 7c00 0800 1000 2000 4000 7c00     .....|..... .@.|
    c7bc:	0000 0000 1800 1000 1000 1000 2000 2000     ............. . 
    c7cc:	1000 1000 1000 1800 1000 1000 1000 1000     ................
    c7dc:	1000 1000 1000 1000 1000 1000 3000 1000     .............0..
    c7ec:	1000 1000 0800 0800 1000 1000 1000 3000     ...............0
    c7fc:	0000 0000 0000 7400 4c00 0000 0000 0000     .......t.L......
    c80c:	0000 0000 6f4e 6574 6f20 6666 203a 6425     ....Note off: %d
    c81c:	0a0d 0000 6f4e 6574 6f20 3a6e 2520 2064     ....Note on: %d 
    c82c:	6977 6874 7620 6c65 636f 7469 2079 6425     with velocity %d
    c83c:	0a0d 0000 6567 656e 6972 2063 6e69 6574     ....generic inte
    c84c:	7272 7075 2074 6163 6c6c 6465 0a0d 0000     rrupt called....
    c85c:	654c 7466 6220 7475 6f74 206e 6176 756c     Left button valu
    c86c:	3a65 2520 0d64 000a 6952 6867 2074 7562     e: %d...Right bu
    c87c:	7474 6e6f 7620 6c61 6575 203a 6425 0a0d     tton value: %d..
    c88c:	0000 0000 6f50 6574 746e 6f69 656d 6574     ....Potentiomete
    c89c:	2072 3a31 2520 0d64 000a 0000 6f50 6574     r 1: %d.....Pote
    c8ac:	746e 6f69 656d 6574 2072 3a32 2520 0d64     ntiometer 2: %d.
    c8bc:	000a 0000 6f50 6574 746e 6f69 656d 6574     ....Potentiomete
    c8cc:	2072 3a33 2520 0d64 000a 0000 6f50 6574     r 3: %d.....Pote
    c8dc:	746e 6f69 656d 6574 2072 3a34 2520 0d64     ntiometer 4: %d.
    c8ec:	000a 0000 7274 6575 0000 0000 6820 7261     ....true.... har
    c8fc:	6664 6c75 0d74 000a 4e20 494d 4820 6e61     dfult... NMI Han
    c90c:	6c64 7265 0a0d 0000 6c47 4420 6565 5470     dler....Gl DeepT
    c91c:	6572 006d 6c47 4420 6565 5670 6269 0072     rem.Gl DeepVibr.
    c92c:	6c47 4620 6565 6264 6361 006b 6c47 5320     Gl Feedback.Gl S
    c93c:	6e79 6874 6f4d 0064 704f 2031 7441 6174     ynthMod.Op1 Atta
    c94c:	6b63 0000 704f 2031 6544 6163 0079 0000     ck..Op1 Decay...
    c95c:	704f 2031 6e45 5376 6163 006c 704f 2031     Op1 EnvScal.Op1 
    c96c:	614d 6e69 7553 0073 704f 2031 754d 746c     MainSus.Op1 Mult
    c97c:	0069 0000 704f 2031 6552 656c 7361 0065     i...Op1 Release.
    c98c:	704f 2031 6353 6c61 6e69 0067 704f 2031     Op1 Scaling.Op1 
    c99c:	7553 7473 6961 006e 704f 2031 7254 6d65     Sustain.Op1 Trem
    c9ac:	6c6f 006f 704f 2031 6956 7262 7461 006f     olo.Op1 Vibrato.
    c9bc:	704f 2031 6157 4676 726f 006d 704f 2032     Op1 WavForm.Op2 
    c9cc:	7441 6174 6b63 0000 704f 2032 6544 6163     Attack..Op2 Deca
    c9dc:	0079 0000 704f 2032 6e45 5376 6163 006c     y...Op2 EnvScal.
    c9ec:	704f 2032 614d 6e69 7553 0073 704f 2032     Op2 MainSus.Op2 
    c9fc:	754d 746c 0069 0000 704f 2032 6552 656c     Multi...Op2 Rele
    ca0c:	7361 0065 704f 2032 6353 6c61 6e69 0067     ase.Op2 Scaling.
    ca1c:	704f 2032 7553 7473 6961 006e 704f 2032     Op2 Sustain.Op2 
    ca2c:	7254 6d65 6c6f 006f 704f 2032 6956 7262     Tremolo.Op2 Vibr
    ca3c:	7461 006f 704f 2032 6157 4676 726f 006d     ato.Op2 WavForm.
    ca4c:	6557 636c 6d6f 2065 6f74 4420 534f 5320     Welcome to DOS S
    ca5c:	6e79 6874 0000 0000 0a0d 4d20 5543 203a     ynth...... MCU: 
    ca6c:	4843 3233 3356 3730 0a0d 0000 5320 7379     CH32V307.... Sys
    ca7c:	6c43 3a6b 2520 4864 0d7a 000a 7720 7777     Clk: %dHz... www
    ca8c:	772e 6863 632e 0d6e 000a 0000 6557 636c     .wch.cn.....Welc
    ca9c:	6d6f 2065 6f74 7420 6568 5920 334d 3138     ome to the YM381
    caac:	2032 7973 746e 2068 202d 7277 7469 2065     2 synth - write 
    cabc:	6568 706c 7420 206f 6361 6563 7373 7420     help to access t
    cacc:	7365 2074 7566 636e 6974 6e6f 0d73 000a     est functions...
    cadc:	6f50 6c6c 0000 0000                         Poll....

0000cae4 <__fsym___cmd_YM3812_Test_Sequence_desc>:
    cae4:	6574 7473 5920 334d 3138 0032               test YM3812.

0000caf0 <__fsym___cmd_YM3812_Test_Sequence_name>:
    caf0:	5f5f 6d63 5f64 4d59 3833 3231 545f 7365     __cmd_YM3812_Tes
    cb00:	5f74 6553 7571 6e65 6563 0000               t_Sequence..

0000cb0c <__fsym___cmd_YM3812_Write_Wrapper_desc>:
    cb0c:	7277 7469 2065 6f74 5920 334d 3138 0032     write to YM3812.

0000cb1c <__fsym___cmd_YM3812_Write_Wrapper_name>:
    cb1c:	5f5f 6d63 5f64 4d59 3833 3231 575f 6972     __cmd_YM3812_Wri
    cb2c:	6574 575f 6172 7070 7265 0000               te_Wrapper..

0000cb38 <__fsym___cmd_Read_Potentiometers_Debug_desc>:
    cb38:	6572 6461 7020 746f 6e65 6974 6d6f 7465     read potentiomet
    cb48:	7265 2073 7266 6d6f 4320 3444 3530 0031     ers from CD4051.

0000cb58 <__fsym___cmd_Read_Potentiometers_Debug_name>:
    cb58:	5f5f 6d63 5f64 6552 6461 505f 746f 6e65     __cmd_Read_Poten
    cb68:	6974 6d6f 7465 7265 5f73 6544 7562 0067     tiometers_Debug.

0000cb78 <__fsym___cmd_Read_Buttons_Debug_desc>:
    cb78:	6572 6461 6220 7475 6f74 736e 0000 0000     read buttons....

0000cb88 <__fsym___cmd_Read_Buttons_Debug_name>:
    cb88:	5f5f 6d63 5f64 6552 6461 425f 7475 6f74     __cmd_Read_Butto
    cb98:	736e 445f 6265 6775 0000 0000 aa86 ffff     ns_Debug........
    cba8:	a978 ffff a978 ffff a976 ffff a97e ffff     x...x...v...~...
    cbb8:	a97e ffff a944 ffff a976 ffff a97e ffff     ~...D...v...~...
    cbc8:	a944 ffff a97e ffff a976 ffff aa72 ffff     D...~...v...r...
    cbd8:	aa72 ffff aa72 ffff a944 ffff b63e ffff     r...r...D...>...
    cbe8:	b568 ffff b638 ffff b570 ffff b638 ffff     h...8...p...8...
    cbf8:	b536 ffff b638 ffff b570 ffff b568 ffff     6...8...p...h...
    cc08:	b568 ffff b536 ffff b570 ffff b576 ffff     h...6...p...v...
    cc18:	b576 ffff b576 ffff b536 ffff b528 ffff     v...v...6...(...
    cc28:	b528 ffff b5f8 ffff b6d4 ffff b5f8 ffff     (...............
    cc38:	b4f6 ffff b5f8 ffff b6d4 ffff b528 ffff     ............(...
    cc48:	b528 ffff b4f6 ffff b6d4 ffff b536 ffff     (...........6...
    cc58:	b536 ffff b536 ffff b4f6 ffff b948 ffff     6...6.......H...
    cc68:	b89a ffff b89a ffff b898 ffff b89e ffff     ................
    cc78:	b89e ffff b86e ffff b898 ffff b89e ffff     ....n...........
    cc88:	b86e ffff b89e ffff b898 ffff b936 ffff     n...........6...
    cc98:	b936 ffff b936 ffff b86e ffff               6...6...n...

0000cca4 <__clz_tab>:
    cca4:	0100 0202 0303 0303 0404 0404 0404 0404     ................
    ccb4:	0505 0505 0505 0505 0505 0505 0505 0505     ................
    ccc4:	0606 0606 0606 0606 0606 0606 0606 0606     ................
    ccd4:	0606 0606 0606 0606 0606 0606 0606 0606     ................
    cce4:	0707 0707 0707 0707 0707 0707 0707 0707     ................
    ccf4:	0707 0707 0707 0707 0707 0707 0707 0707     ................
    cd04:	0707 0707 0707 0707 0707 0707 0707 0707     ................
    cd14:	0707 0707 0707 0707 0707 0707 0707 0707     ................
    cd24:	0808 0808 0808 0808 0808 0808 0808 0808     ................
    cd34:	0808 0808 0808 0808 0808 0808 0808 0808     ................
    cd44:	0808 0808 0808 0808 0808 0808 0808 0808     ................
    cd54:	0808 0808 0808 0808 0808 0808 0808 0808     ................
    cd64:	0808 0808 0808 0808 0808 0808 0808 0808     ................
    cd74:	0808 0808 0808 0808 0808 0808 0808 0808     ................
    cd84:	0808 0808 0808 0808 0808 0808 0808 0808     ................
    cd94:	0808 0808 0808 0808 0808 0808 0808 0808     ................
    cda4:	3130 3332 3534 3736 3938 6261 6463 6665     0123456789abcdef
    cdb4:	6867 6a69 6c6b 6e6d 706f 7271 7473 7675     ghijklmnopqrstuv
    cdc4:	7877 7a79 0000 0000                         wxyz....

0000cdcc <__sf_fake_stderr>:
	...

0000cdec <__sf_fake_stdin>:
	...

0000ce0c <__sf_fake_stdout>:
	...
    ce2c:	0043 0000 4f50 4953 0058 0000 002e 0000     C...POSIX.......
    ce3c:	2d23 2b30 0020 0000 6c68 004c 6665 4567     #-0+ ...hlL.efgE
    ce4c:	4746 0000 3130 3332 3534 3736 3938 4241     FG..0123456789AB
    ce5c:	4443 4645 0000 0000 3130 3332 3534 3736     CDEF....01234567
    ce6c:	3938 6261 6463 6665 0000 0000               89abcdef....

0000ce78 <_ctype_>:
    ce78:	2000 2020 2020 2020 2020 2828 2828 2028     .         ((((( 
    ce88:	2020 2020 2020 2020 2020 2020 2020 2020                     
    ce98:	8820 1010 1010 1010 1010 1010 1010 1010      ...............
    cea8:	0410 0404 0404 0404 0404 1004 1010 1010     ................
    ceb8:	1010 4141 4141 4141 0101 0101 0101 0101     ..AAAAAA........
    cec8:	0101 0101 0101 0101 0101 0101 1010 1010     ................
    ced8:	1010 4242 4242 4242 0202 0202 0202 0202     ..BBBBBB........
    cee8:	0202 0202 0202 0202 0202 0202 1010 1010     ................
    cef8:	0020 0000 0000 0000 0000 0000 0000 0000      ...............
	...

0000cf7c <__fsym_list_mem>:
    cf7c:	a0e0 0000 a0c0 0000 113a 0000               ........:...

0000cf88 <__fsym_list>:
    cf88:	a5dc 0000 a5c0 0000 222c 0000               ........,"..

0000cf94 <__fsym___cmd_list_device>:
    cf94:	a5fc 0000 a5e4 0000 20fe 0000               ......... ..

0000cfa0 <__fsym_list_device>:
    cfa0:	a628 0000 a610 0000 20fe 0000               (........ ..

0000cfac <__fsym___cmd_list_timer>:
    cfac:	a64c 0000 a634 0000 2192 0000               L...4....!..

0000cfb8 <__fsym_list_timer>:
    cfb8:	a678 0000 a660 0000 2192 0000               x...`....!..

0000cfc4 <__fsym___cmd_list_msgqueue>:
    cfc4:	a6a4 0000 a684 0000 2048 0000               ........H ..

0000cfd0 <__fsym_list_msgqueue>:
    cfd0:	a6d8 0000 a6b8 0000 2048 0000               ........H ..

0000cfdc <__fsym___cmd_list_mailbox>:
    cfdc:	a700 0000 a6e8 0000 1f8a 0000               ............

0000cfe8 <__fsym_list_mailbox>:
    cfe8:	a72c 0000 a714 0000 1f8a 0000               ,...........

0000cff4 <__fsym___cmd_list_mutex>:
    cff4:	a754 0000 a73c 0000 1f08 0000               T...<.......

0000d000 <__fsym_list_mutex>:
    d000:	a780 0000 a768 0000 1f08 0000               ....h.......

0000d00c <__fsym___cmd_list_event>:
    d00c:	a7a4 0000 a78c 0000 1e5c 0000               ........\...

0000d018 <__fsym_list_event>:
    d018:	a7d0 0000 a7b8 0000 1e5c 0000               ........\...

0000d024 <__fsym___cmd_list_sem>:
    d024:	a7f8 0000 a7dc 0000 1da6 0000               ............

0000d030 <__fsym_list_sem>:
    d030:	a824 0000 a808 0000 1da6 0000               $...........

0000d03c <__fsym___cmd_list_thread>:
    d03c:	a83c 0000 a830 0000 1cc4 0000               <...0.......

0000d048 <__fsym_list_thread>:
    d048:	a85c 0000 a850 0000 1cc4 0000               \...P.......

0000d054 <__fsym___cmd_clear>:
    d054:	a87c 0000 a868 0000 1c1a 0000               |...h.......

0000d060 <__fsym_clear>:
    d060:	a89c 0000 a888 0000 1c1a 0000               ............

0000d06c <__fsym___cmd_reboot>:
    d06c:	a8b8 0000 a8a4 0000 1c08 0000               ............

0000d078 <__fsym_reboot>:
    d078:	a8dc 0000 a8c8 0000 1c08 0000               ............

0000d084 <__fsym___cmd_help>:
    d084:	aa90 0000 aa78 0000 2276 0000               ....x...v"..

0000d090 <__fsym___cmd_free>:
    d090:	aac0 0000 aa9c 0000 252c 0000               ........,%..

0000d09c <__fsym___cmd_ps>:
    d09c:	aae8 0000 aacc 0000 251e 0000               .........%..

0000d0a8 <__fsym_pinRead>:
    d0a8:	ab94 0000 ab74 0000 2e7c 0000               ....t...|...

0000d0b4 <__fsym_pinWrite>:
    d0b4:	abb8 0000 ab9c 0000 2e62 0000               ........b...

0000d0c0 <__fsym_pinMode>:
    d0c0:	abdc 0000 abc4 0000 2e48 0000               ........H...

0000d0cc <__fsym___cmd_YM3812_Test_Sequence>:
    d0cc:	caf0 0000 cae4 0000 43fe 0000               .........C..

0000d0d8 <__fsym___cmd_YM3812_Write_Wrapper>:
    d0d8:	cb1c 0000 cb0c 0000 43d4 0000               .........C..

0000d0e4 <__fsym___cmd_Read_Potentiometers_Debug>:
    d0e4:	cb58 0000 cb38 0000 5230 0000               X...8...0R..

0000d0f0 <__fsym___cmd_Read_Buttons_Debug>:
    d0f0:	cb88 0000 cb78 0000 527c 0000               ....x...|R..

0000d0fc <__rt_init_rti_start>:
    d0fc:	0510 0000                                   ....

0000d100 <__rt_init_rti_board_start>:
    d100:	0518 0000                                   ....

0000d104 <__rt_init_rt_hw_pin_init>:
    d104:	3058 0000                                   X0..

0000d108 <__rt_init_rt_hw_usart_init>:
    d108:	3650 0000                                   P6..

0000d10c <__rt_init_rti_board_end>:
    d10c:	051c 0000                                   ....

0000d110 <__rt_init_finsh_system_init>:
    d110:	254c 0000                                   L%..

0000d114 <__rt_init_rti_end>:
    d114:	0514 0000                                   ....
